(lp0
(lp1
I7
aI9
aI11
aa(lp2
I1
aI3
aI5
aI6
aI9
aI11
aI13
aI15
aI17
aI19
aI21
aa(lp3
I2
aI6
aI9
aa(lp4
I1
aI2
aI5
aI6
aI8
aI11
aI13
aI15
aI17
aI19
aI21
aI23
aI25
aI27
aI28
aI31
aI33
aI35
aI37
aI39
aI45
aa(lp5
I1
aI2
aI5
aI6
aI8
aI11
aI12
aI15
aI17
aI19
aI21
aI23
aI25
aI27
aI28
aI31
aI33
aI35
aI37
aI39
aI45
aa(lp6
I2
aI8
aI12
aa(lp7
I2
aI8
aI15
aa(lp8
I1
aI2
aI5
aI8
aI11
aI13
aI14
aI17
aI21
aI23
aI25
aI27
aI28
aI31
aI33
aI35
aI37
aI39
aI45
aa(lp9
I1
aI2
aI5
aI8
aI11
aI13
aI14
aI17
aI21
aI23
aI25
aI27
aI28
aI31
aI33
aI34
aI37
aI39
aI45
aa(lp10
I0
aI2
aI11
aa(lp11
I1
aI2
aI5
aI8
aI11
aI13
aI14
aI17
aI21
aI23
aI25
aI27
aI28
aI31
aI33
aI34
aI36
aI39
aI45
aa(lp12
I1
aI2
aI4
aI8
aI11
aI13
aI14
aI17
aI18
aI34
aI36
aa(lp13
I1
aI2
aI5
aI8
aI11
aI13
aI14
aI17
aI21
aI23
aI25
aI26
aI28
aI31
aI33
aI34
aI36
aI39
aI45
aa(lp14
I1
aI2
aI5
aI8
aI11
aI13
aI16
aI18
aI21
aI23
aI25
aI26
aI28
aI31
aI33
aI34
aI36
aI39
aI45
aa(lp15
I1
aI2
aI5
aI8
aI11
aI13
aI14
aI19
aI21
aI23
aI25
aI26
aI28
aI31
aI33
aI34
aI36
aI39
aI45
aa(lp16
I1
aI2
aI5
aI8
aI11
aI13
aI14
aI16
aI21
aI23
aI25
aI26
aI28
aI31
aI33
aI34
aI37
aI39
aI45
aa(lp17
I1
aI2
aI5
aI8
aI11
aI13
aI14
aI17
aI21
aI23
aI25
aI26
aI28
aI31
aI33
aI34
aI37
aI39
aI45
aa(lp18
I1
aI2
aI5
aI8
aI11
aI13
aI14
aI17
aI20
aI23
aI25
aI26
aI28
aI31
aI33
aI34
aI37
aI39
aI45
aa(lp19
I1
aI2
aI5
aI8
aI11
aI13
aI14
aI17
aI20
aI26
aI34
aI36
aa(lp20
I1
aI2
aI5
aI6
aI8
aI11
aI13
aI14
aI18
aI20
aI34
aI36
aa(lp21
I1
aI2
aI5
aI7
aI8
aI11
aI13
aI14
aI18
aI20
aI34
aI36
aa(lp22
I1
aI2
aI5
aI7
aI8
aI11
aI13
aI14
aI19
aI20
aI34
aI36
aa(lp23
I1
aI2
aI5
aI6
aI8
aI11
aI13
aI14
aI19
aI20
aI34
aI36
aa(lp24
I1
aI2
aI5
aI7
aI8
aI11
aI13
aI14
aI19
aI20
aI23
aI25
aI26
aI28
aI31
aI33
aI34
aI37
aI39
aI43
aa(lp25
I1
aI2
aI5
aI7
aI8
aI11
aI13
aI14
aI19
aI20
aI23
aI25
aI26
aI28
aI31
aI33
aI34
aI37
aI39
aI45
aa(lp26
I1
aI2
aI5
aI8
aI11
aI13
aI14
aI19
aI20
aI23
aI25
aI26
aI28
aI31
aI33
aI34
aI37
aI39
aI42
aI45
aa(lp27
I1
aI2
aI5
aI8
aI11
aI13
aI14
aI19
aI20
aI23
aI25
aI26
aI28
aI31
aI33
aI34
aI37
aI39
aI49
aa(lp28
I1
aI2
aI5
aI8
aI11
aI13
aI14
aI19
aI26
aI31
aI34
aa(lp29
I1
aI2
aI5
aI8
aI11
aI13
aI14
aI20
aI23
aI25
aI26
aI28
aI31
aI33
aI34
aI37
aI39
aI45
aa(lp30
I1
aI2
aI5
aI6
aI8
aI11
aI13
aI14
aI20
aI23
aI25
aI26
aI28
aI31
aI32
aI34
aI37
aI39
aI45
aI48
aa(lp31
I1
aI2
aI5
aI6
aI8
aI11
aI13
aI14
aI20
aI23
aI25
aI26
aI28
aI31
aI32
aI34
aI37
aI39
aI45
aa(lp32
I1
aI2
aI5
aI7
aI8
aI11
aI13
aI14
aI18
aI20
aI32
aI34
aa(lp33
I1
aI2
aI5
aI7
aI8
aI11
aI13
aI14
aI18
aI28
aI32
aa(lp34
I1
aI2
aI5
aI6
aI8
aI11
aI13
aI14
aI16
aI21
aI23
aI25
aI26
aI28
aI31
aI32
aI34
aI37
aI39
aI43
aa(lp35
I1
aI2
aI5
aI8
aI11
aI13
aI14
aI18
aI21
aI23
aI25
aI26
aI28
aI31
aI32
aI34
aI37
aI39
aI45
aa(lp36
I1
aI2
aI5
aI8
aI11
aI13
aI14
aI18
aI26
aI34
aI36
aa(lp37
I1
aI2
aI5
aI8
aI11
aI13
aI14
aI16
aI21
aI23
aI25
aI26
aI28
aI31
aI32
aI34
aI37
aI38
aI45
aa(lp38
I1
aI2
aI5
aI8
aI11
aI13
aI14
aI17
aI21
aI23
aI25
aI26
aI28
aI31
aI32
aI34
aI37
aI38
aI45
aa(lp39
I1
aI2
aI5
aI8
aI11
aI13
aI16
aI18
aI21
aI23
aI25
aI26
aI28
aI31
aI33
aI34
aI37
aI38
aI45
aa(lp40
I1
aI2
aI5
aI8
aI11
aI13
aI14
aI17
aI21
aI23
aI25
aI26
aI28
aI31
aI33
aI34
aI37
aI38
aI45
aa(lp41
I1
aI2
aI5
aI8
aI11
aI13
aI14
aI16
aI20
aI23
aI25
aI26
aI28
aI31
aI32
aI34
aI37
aI38
aI45
aa(lp42
I1
aI2
aI5
aI8
aI11
aI13
aI14
aI17
aI20
aI23
aI25
aI26
aI28
aI31
aI32
aI34
aI37
aI38
aI45
aa(lp43
I1
aI2
aI5
aI8
aI11
aI13
aI14
aI16
aI20
aI23
aI25
aI26
aI28
aI31
aI33
aI34
aI37
aI38
aI45
aa(lp44
I1
aI2
aI5
aI8
aI11
aI13
aI14
aI17
aI20
aI23
aI25
aI26
aI28
aI31
aI33
aI34
aI37
aI38
aI45
aa(lp45
I1
aI2
aI5
aI8
aI11
aI13
aI14
aI18
aI20
aI23
aI25
aI26
aI28
aI31
aI32
aI34
aI37
aI38
aI53
aa(lp46
I1
aI2
aI5
aI8
aI11
aI13
aI14
aI18
aI20
aI25
aI26
aI38
aa(lp47
I1
aI2
aI5
aI8
aI11
aI13
aI14
aI16
aI18
aI21
aI23
aI25
aI26
aI28
aI31
aI32
aI34
aI37
aI38
aI52
aa(lp48
I1
aI2
aI5
aI8
aI11
aI13
aI14
aI18
aI26
aI32
aI34
aI38
aa(lp49
I1
aI2
aI5
aI8
aI11
aI13
aI14
aI18
aI21
aI23
aI25
aI26
aI28
aI31
aI33
aI34
aI37
aI38
aI49
aa(lp50
I1
aI2
aI5
aI8
aI11
aI13
aI14
aI16
aI18
aI21
aI23
aI25
aI26
aI28
aI31
aI33
aI34
aI37
aI38
aI42
aI48
aa(lp51
I1
aI2
aI5
aI8
aI11
aI13
aI14
aI18
aI26
aI34
aI38
aa(lp52
I1
aI2
aI5
aI8
aI11
aI13
aI14
aI18
aI26
aI31
aI34
aa(lp53
I1
aI2
aI5
aI8
aI11
aI13
aI14
aI19
aI21
aI23
aI25
aI26
aI28
aI30
aI33
aI34
aI37
aI39
aI47
aI48
aa(lp54
I1
aI2
aI5
aI8
aI11
aI13
aI14
aI19
aI21
aI23
aI25
aI26
aI28
aI30
aI33
aI34
aI37
aI39
aI49
aa(lp55
I1
aI2
aI5
aI6
aI8
aI11
aI13
aI14
aI19
aI21
aI26
aI34
aa(lp56
I1
aI2
aI5
aI7
aI8
aI11
aI13
aI14
aI19
aI21
aI23
aI25
aI26
aI28
aI30
aI33
aI34
aI37
aI39
aI48
aa(lp57
I1
aI2
aI5
aI7
aI8
aI11
aI13
aI14
aI21
aI23
aI25
aI26
aI28
aI30
aI33
aI34
aI37
aI39
aI43
aa(lp58
I1
aI2
aI5
aI7
aI8
aI11
aI13
aI14
aI21
aI23
aI25
aI26
aI28
aI30
aI33
aI34
aI37
aI39
aI46
aa(lp59
I1
aI2
aI5
aI7
aI8
aI11
aI13
aI14
aI21
aI25
aI28
aI34
aa(lp60
I1
aI2
aI5
aI6
aI8
aI11
aI13
aI14
aI18
aI21
aI23
aI25
aI26
aI28
aI30
aI33
aI34
aI37
aI39
aI42
aa(lp61
I1
aI2
aI5
aI6
aI8
aI11
aI13
aI14
aI18
aI21
aI23
aI25
aI26
aI28
aI30
aI33
aI34
aI37
aI39
aI49
aa(lp62
I1
aI2
aI5
aI6
aI8
aI11
aI13
aI14
aI21
aI23
aI25
aI26
aI28
aI30
aI32
aI34
aI37
aI39
aI43
aa(lp63
I1
aI2
aI5
aI8
aI11
aI13
aI14
aI18
aI21
aI23
aI25
aI26
aI28
aI30
aI32
aI34
aI37
aI39
aI42
aa(lp64
I1
aI2
aI5
aI6
aI8
aI11
aI13
aI14
aI21
aI23
aI25
aI26
aI28
aI30
aI33
aI34
aI37
aI39
aI48
aa(lp65
I1
aI2
aI5
aI7
aI8
aI11
aI13
aI14
aI19
aI20
aI32
aI34
aa(lp66
I1
aI2
aI5
aI8
aI11
aI13
aI14
aI19
aI20
aI23
aI25
aI26
aI28
aI30
aI32
aI34
aI37
aI39
aI42
aI48
aa(lp67
I1
aI2
aI5
aI8
aI11
aI13
aI14
aI19
aI20
aI23
aI25
aI26
aI28
aI30
aI32
aI34
aI37
aI39
aI47
aI48
aa(lp68
I1
aI2
aI5
aI6
aI8
aI11
aI13
aI14
aI19
aI20
aI23
aI25
aI26
aI28
aI30
aI32
aI34
aI37
aI39
aI48
aa(lp69
I1
aI2
aI5
aI8
aI11
aI13
aI14
aI16
aI19
aI26
aI34
aa(lp70
I1
aI2
aI5
aI8
aI11
aI13
aI14
aI17
aI19
aI20
aI26
aI34
aa(lp71
I1
aI2
aI5
aI6
aI8
aI11
aI13
aI14
aI20
aI23
aI25
aI26
aI28
aI30
aI32
aI34
aI37
aI39
aI46
aa(lp72
I1
aI2
aI5
aI8
aI11
aI13
aI14
aI16
aI20
aI23
aI25
aI26
aI28
aI30
aI32
aI34
aI37
aI39
aI43
aa(lp73
I1
aI2
aI5
aI8
aI11
aI13
aI14
aI18
aI20
aI23
aI25
aI26
aI28
aI30
aI32
aI34
aI37
aI39
aI42
aa(lp74
I1
aI2
aI5
aI8
aI11
aI13
aI14
aI17
aI20
aI28
aI30
aI34
aa(lp75
I1
aI2
aI5
aI6
aI8
aI11
aI13
aI14
aI16
aI18
aI20
aI23
aI25
aI26
aI28
aI30
aI33
aI34
aI37
aI39
aI43
aa(lp76
I1
aI2
aI5
aI8
aI11
aI13
aI14
aI16
aI18
aI20
aI23
aI25
aI26
aI28
aI30
aI33
aI34
aI37
aI39
aI42
aa(lp77
I1
aI2
aI5
aI7
aI8
aI11
aI13
aI14
aI18
aI20
aI23
aI25
aI26
aI28
aI30
aI33
aI34
aI37
aI39
aI43
aa(lp78
I1
aI2
aI5
aI7
aI8
aI11
aI13
aI14
aI17
aI19
aI34
aa(lp79
I1
aI2
aI5
aI7
aI8
aI11
aI13
aI14
aI17
aI20
aI25
aI34
aa(lp80
I1
aI2
aI5
aI8
aI11
aI13
aI14
aI17
aI25
aI30
aI34
aa(lp81
I1
aI2
aI5
aI6
aI8
aI11
aI13
aI14
aI18
aI20
aI23
aI25
aI26
aI29
aI30
aI33
aI34
aI37
aI39
aI41
aa(lp82
I1
aI2
aI5
aI6
aI8
aI11
aI13
aI14
aI18
aI29
aI34
aa(lp83
I1
aI2
aI5
aI7
aI8
aI11
aI13
aI14
aI20
aI23
aI25
aI26
aI29
aI30
aI33
aI34
aI37
aI39
aI40
aa(lp84
I1
aI2
aI5
aI7
aI8
aI11
aI13
aI14
aI16
aI25
aI34
aa(lp85
I1
aI2
aI5
aI7
aI8
aI11
aI13
aI14
aI17
aI20
aI23
aI24
aI26
aI29
aI30
aI33
aI34
aI37
aI39
aI47
aa(lp86
I1
aI2
aI5
aI7
aI8
aI11
aI13
aI14
aI17
aI20
aI23
aI24
aI26
aI29
aI30
aI33
aI34
aI37
aI39
aI59
aa(lp87
I1
aI2
aI5
aI7
aI8
aI11
aI13
aI14
aI17
aI20
aI34
aI39
aa(lp88
I1
aI2
aI5
aI7
aI8
aI11
aI13
aI14
aI18
aI20
aI23
aI24
aI26
aI29
aI30
aI33
aI34
aI37
aI39
aI58
aa(lp89
I1
aI2
aI5
aI7
aI8
aI11
aI13
aI14
aI18
aI20
aI23
aI24
aI26
aI29
aI30
aI33
aI34
aI37
aI39
aI46
aa(lp90
I1
aI2
aI5
aI7
aI8
aI11
aI13
aI14
aI16
aI20
aI23
aI24
aI26
aI29
aI30
aI33
aI34
aI37
aI39
aI47
aa(lp91
I1
aI2
aI5
aI7
aI8
aI11
aI13
aI14
aI17
aI21
aI23
aI24
aI26
aI29
aI30
aI33
aI34
aI37
aI39
aI59
aa(lp92
I1
aI2
aI5
aI7
aI8
aI11
aI13
aI14
aI17
aI34
aI39
aa(lp93
I1
aI2
aI5
aI7
aI8
aI11
aI13
aI14
aI18
aI21
aI23
aI24
aI26
aI29
aI30
aI33
aI34
aI37
aI39
aI58
aa(lp94
I1
aI2
aI5
aI7
aI8
aI11
aI13
aI14
aI21
aI23
aI24
aI26
aI29
aI30
aI33
aI34
aI37
aI39
aI59
aa(lp95
I1
aI2
aI5
aI7
aI8
aI11
aI13
aI14
aI30
aI32
aI34
aa(lp96
I1
aI2
aI5
aI8
aI11
aI13
aI14
aI18
aI20
aI23
aI24
aI26
aI28
aI30
aI32
aI34
aI37
aI39
aI46
aa(lp97
I1
aI2
aI5
aI8
aI11
aI13
aI14
aI18
aI20
aI24
aI32
aa(lp98
I1
aI2
aI5
aI6
aI8
aI11
aI13
aI14
aI16
aI18
aI24
aI34
aa(lp99
I1
aI2
aI5
aI7
aI8
aI11
aI13
aI14
aI16
aI20
aI23
aI24
aI26
aI28
aI30
aI33
aI34
aI37
aI39
aI59
aa(lp100
I1
aI2
aI5
aI7
aI8
aI11
aI13
aI14
aI20
aI23
aI24
aI26
aI28
aI30
aI33
aI34
aI37
aI39
aI47
aI58
aa(lp101
I1
aI2
aI5
aI7
aI8
aI11
aI13
aI14
aI18
aI20
aI23
aI24
aI26
aI28
aI30
aI33
aI34
aI37
aI39
aI58
aa(lp102
I1
aI2
aI5
aI8
aI11
aI13
aI14
aI17
aI28
aI30
aI34
aa(lp103
I1
aI2
aI5
aI7
aI8
aI11
aI13
aI14
aI18
aI21
aI23
aI24
aI26
aI28
aI30
aI33
aI34
aI37
aI39
aI58
aa(lp104
I1
aI2
aI5
aI7
aI8
aI11
aI13
aI14
aI18
aI21
aI23
aI24
aI26
aI28
aI30
aI33
aI34
aI37
aI39
aI59
aa(lp105
I1
aI2
aI5
aI7
aI8
aI11
aI13
aI14
aI20
aI22
aI24
aI26
aI29
aI30
aI33
aI34
aI37
aI39
aI59
aa(lp106
I1
aI2
aI5
aI7
aI8
aI11
aI13
aI14
aI20
aI22
aI24
aI26
aI29
aI30
aI33
aI34
aI37
aI39
aI53
aa(lp107
I1
aI2
aI5
aI7
aI8
aI11
aI13
aI14
aI22
aI30
aI39
aa(lp108
I1
aI2
aI5
aI6
aI8
aI11
aI13
aI16
aI20
aI22
aI25
aI26
aI28
aI30
aI33
aI34
aI37
aI39
aI58
aa(lp109
I1
aI2
aI5
aI6
aI8
aI11
aI13
aI14
aI22
aI28
aI30
aa(lp110
I1
aI2
aI5
aI8
aI11
aI13
aI14
aI19
aI22
aI34
aI38
aa(lp111
I1
aI2
aI5
aI8
aI11
aI13
aI14
aI19
aI21
aI22
aI25
aI27
aI29
aI31
aI33
aI34
aI36
aI39
aI42
aa(lp112
I1
aI2
aI5
aI8
aI11
aI13
aI14
aI19
aI22
aI34
aI36
aa(lp113
I1
aI2
aI5
aI6
aI8
aI11
aI13
aI14
aI16
aI19
aI22
aa(lp114
I1
aI2
aI5
aI6
aI8
aI11
aI13
aI14
aI17
aI19
aI22
aa(lp115
I1
aI2
aI5
aI7
aI8
aI11
aI13
aI14
aI16
aI19
aI27
aa(lp116
I1
aI2
aI5
aI8
aI11
aI13
aI14
aI17
aI22
aI34
aI36
aa(lp117
I1
aI2
aI5
aI8
aI11
aI13
aI14
aI17
aI22
aI28
aI34
aa(lp118
I1
aI2
aI5
aI8
aI11
aI13
aI14
aI16
aI22
aI28
aI38
aa(lp119
I1
aI2
aI5
aI8
aI11
aI13
aI14
aI16
aI18
aI22
aI28
aa(lp120
I1
aI2
aI5
aI7
aI8
aI11
aI13
aI14
aI17
aI18
aI27
aa(lp121
I1
aI2
aI5
aI7
aI8
aI11
aI13
aI14
aI16
aI18
aI27
aa(lp122
I1
aI2
aI5
aI8
aI11
aI13
aI14
aI17
aI19
aI21
aI23
aI24
aI27
aI29
aI31
aI33
aI34
aI37
aI38
aI55
aa(lp123
I1
aI2
aI5
aI8
aI11
aI13
aI14
aI17
aI19
aI24
aI34
aa(lp124
I1
aI2
aI5
aI6
aI8
aI11
aI13
aI14
aI17
aI19
aI34
aI38
aa(lp125
I1
aI2
aI5
aI8
aI11
aI13
aI14
aI17
aI19
aI29
aI34
aa(lp126
I1
aI2
aI5
aI8
aI11
aI13
aI14
aI17
aI19
aI21
aI23
aI25
aI27
aI28
aI31
aI33
aI34
aI37
aI39
aI54
aa(lp127
I1
aI2
aI5
aI8
aI11
aI13
aI14
aI17
aI19
aI21
aI23
aI25
aI27
aI28
aI31
aI33
aI34
aI37
aI39
aI49
aa(lp128
I1
aI2
aI5
aI8
aI11
aI13
aI14
aI17
aI19
aI21
aI23
aI25
aI27
aI28
aI31
aI33
aI34
aI37
aI39
aI52
aa(lp129
I1
aI2
aI5
aI8
aI11
aI13
aI14
aI17
aI19
aI21
aI23
aI25
aI27
aI28
aI31
aI33
aI34
aI37
aI39
aI46
aa(lp130
I1
aI2
aI5
aI8
aI11
aI13
aI14
aI17
aI19
aI33
aI34
aa(lp131
I1
aI2
aI5
aI6
aI8
aI11
aI13
aI14
aI17
aI19
aI21
aI23
aI25
aI27
aI28
aI31
aI32
aI34
aI37
aI39
aI44
aa(lp132
I1
aI2
aI5
aI6
aI8
aI11
aI13
aI14
aI17
aI19
aI21
aI23
aI25
aI27
aI28
aI31
aI32
aI34
aI37
aI39
aI48
aa(lp133
I1
aI2
aI5
aI6
aI8
aI11
aI13
aI14
aI17
aI19
aI34
aa(lp134
I1
aI2
aI5
aI6
aI8
aI11
aI13
aI14
aI19
aI31
aI34
aa(lp135
I1
aI2
aI5
aI6
aI8
aI11
aI13
aI14
aI19
aI21
aI23
aI25
aI27
aI28
aI30
aI32
aI34
aI37
aI39
aI47
aa(lp136
I1
aI2
aI5
aI6
aI8
aI11
aI13
aI14
aI19
aI21
aI23
aI25
aI27
aI28
aI30
aI32
aI34
aI37
aI39
aI45
aa(lp137
I1
aI2
aI5
aI6
aI8
aI11
aI13
aI14
aI19
aI21
aI23
aI25
aI27
aI28
aI30
aI32
aI34
aI37
aI39
aI44
aa(lp138
I1
aI2
aI5
aI6
aI8
aI11
aI13
aI14
aI19
aI27
aI34
aa(lp139
I1
aI2
aI5
aI6
aI8
aI11
aI13
aI14
aI17
aI20
aI23
aI25
aI27
aI28
aI31
aI32
aI34
aI37
aI39
aI44
aI53
aa(lp140
I1
aI2
aI5
aI6
aI8
aI11
aI13
aI14
aI17
aI20
aI23
aI25
aI27
aI28
aI31
aI32
aI34
aI37
aI39
aI44
aa(lp141
I1
aI2
aI5
aI6
aI8
aI11
aI13
aI14
aI17
aI20
aI23
aI25
aI27
aI28
aI31
aI32
aI34
aI37
aI39
aI52
aa(lp142
I1
aI2
aI5
aI6
aI8
aI11
aI13
aI14
aI17
aI20
aI27
aI34
aa(lp143
I1
aI2
aI5
aI6
aI8
aI11
aI13
aI14
aI17
aI21
aI23
aI25
aI27
aI28
aI31
aI32
aI34
aI37
aI39
aI43
aa(lp144
I1
aI2
aI5
aI6
aI8
aI11
aI13
aI14
aI17
aI27
aI34
aa(lp145
I1
aI2
aI5
aI6
aI8
aI11
aI13
aI14
aI16
aI27
aI34
aa(lp146
I1
aI2
aI5
aI6
aI8
aI11
aI13
aI14
aI17
aI19
aI21
aI23
aI25
aI27
aI28
aI31
aI32
aI35
aI37
aI39
aI46
aa(lp147
I1
aI2
aI5
aI6
aI8
aI11
aI13
aI14
aI17
aI19
aI21
aI23
aI25
aI27
aI28
aI31
aI32
aI35
aI37
aI39
aI42
aa(lp148
I1
aI2
aI5
aI6
aI8
aI11
aI13
aI14
aI17
aI19
aI32
aI37
aa(lp149
I1
aI2
aI5
aI8
aI11
aI13
aI14
aI17
aI19
aI21
aI23
aI25
aI27
aI28
aI31
aI33
aI35
aI37
aI39
aI49
aa(lp150
I1
aI2
aI5
aI6
aI8
aI11
aI13
aI14
aI17
aI19
aI27
aI39
aa(lp151
I1
aI2
aI5
aI8
aI11
aI13
aI14
aI17
aI19
aI27
aI38
aa(lp152
I1
aI2
aI5
aI8
aI11
aI13
aI14
aI16
aI19
aI27
aI38
aa(lp153
I1
aI2
aI5
aI6
aI8
aI11
aI13
aI14
aI16
aI19
aI27
aa(lp154
I1
aI2
aI5
aI6
aI8
aI11
aI13
aI14
aI19
aI21
aI23
aI25
aI26
aI28
aI31
aI33
aI35
aI37
aI39
aI48
aa(lp155
I2
aI6
aa(lp156
I1
aI2
aI5
aI7
aI8
aI11
aI13
aI14
aI16
aI19
aI21
aI23
aI25
aI26
aI28
aI31
aI33
aI35
aI37
aI39
aI43
aa(lp157
I1
aI2
aI5
aI7
aI8
aI11
aI13
aI14
aI19
aI25
aI31
aI37
aa(lp158
I1
aI2
aI5
aI7
aI8
aI11
aI13
aI14
aI19
aI25
aI28
aI31
aa(lp159
I1
aI2
aI5
aI7
aI8
aI11
aI13
aI14
aI19
aI24
aI28
aa(lp160
I1
aI2
aI5
aI7
aI8
aI11
aI13
aI14
aI16
aI19
aI25
aI30
aI36
aa(lp161
I1
aI2
aI5
aI7
aI8
aI11
aI13
aI14
aI16
aI19
aI25
aI30
aa(lp162
I1
aI2
aI5
aI7
aI8
aI11
aI13
aI14
aI19
aI29
aI31
aI37
aa(lp163
I1
aI2
aI5
aI7
aI8
aI11
aI13
aI14
aI19
aI21
aI23
aI24
aI26
aI29
aI31
aI33
aI35
aI36
aI39
aI42
aa(lp164
I1
aI2
aI5
aI7
aI8
aI11
aI13
aI14
aI16
aI19
aI21
aI23
aI24
aI26
aI29
aI31
aI33
aI35
aI36
aI39
aI43
aa(lp165
I1
aI2
aI5
aI7
aI8
aI11
aI13
aI14
aI16
aI19
aI31
aI32
aa(lp166
I1
aI2
aI5
aI7
aI8
aI11
aI13
aI14
aI19
aI20
aI24
aI36
aa(lp167
I1
aI2
aI5
aI7
aI8
aI11
aI13
aI14
aI16
aI19
aI20
aI31
aa(lp168
I1
aI2
aI5
aI7
aI8
aI11
aI13
aI14
aI19
aI20
aI24
aa(lp169
I1
aI2
aI5
aI7
aI8
aI11
aI13
aI14
aI19
aI25
aI31
aa(lp170
I1
aI2
aI5
aI7
aI8
aI11
aI13
aI14
aI19
aI26
aI32
aa(lp171
I1
aI2
aI5
aI7
aI8
aI11
aI13
aI14
aI19
aI21
aI23
aI24
aI26
aI29
aI30
aI33
aI35
aI36
aI39
aI43
aa(lp172
I2
aI11
aa(lp173
I1
aI3
aI7
aI8
aI11
aI13
aI14
aI16
aI19
aI29
aI30
aa(lp174
I3
aI11
aa(lp175
I1
aI3
aI5
aI7
aI8
aI10
aI14
aI16
aI19
aI24
aI36
aa(lp176
I1
aI3
aI5
aI7
aI8
aI10
aI13
aI14
aI16
aI19
aI24
aa(lp177
I1
aI3
aI5
aI7
aI8
aI10
aI13
aI14
aI16
aI19
aI39
aa(lp178
I1
aI3
aI5
aI7
aI8
aI10
aI13
aI14
aI16
aI19
aI21
aI23
aI25
aI26
aI29
aI31
aI33
aI35
aI37
aI38
aI41
aa(lp179
I1
aI3
aI5
aI7
aI8
aI10
aI13
aI14
aI16
aI19
aI21
aI23
aI25
aI26
aI29
aI31
aI33
aI35
aI37
aI38
aI55
aa(lp180
I1
aI3
aI5
aI7
aI8
aI10
aI13
aI14
aI16
aI19
aI23
aa(lp181
I1
aI3
aI5
aI7
aI8
aI10
aI13
aI14
aI16
aI19
aI21
aI22
aI25
aI26
aI29
aI31
aI33
aI35
aI37
aI38
aI40
aa(lp182
I1
aI3
aI7
aI8
aI10
aI13
aI14
aI16
aI19
aI21
aI22
aI25
aI26
aI29
aI31
aI33
aI35
aI37
aI38
aI49
aI53
aa(lp183
I1
aI3
aI5
aI7
aI8
aI10
aI13
aI14
aI16
aI19
aI21
aI22
aI25
aI26
aI29
aI31
aI33
aI35
aI37
aI38
aI49
aa(lp184
I1
aI3
aI5
aI7
aI8
aI10
aI13
aI14
aI16
aI19
aI21
aa(lp185
I1
aI3
aI5
aI7
aI8
aI10
aI13
aI14
aI16
aI19
aI20
aI22
aI25
aI26
aI29
aI31
aI33
aI35
aI37
aI38
aI51
aa(lp186
I1
aI3
aI5
aI7
aI8
aI10
aI13
aI14
aI16
aI19
aI20
aI22
aI25
aI26
aI29
aI31
aI33
aI35
aI37
aI38
aI52
aa(lp187
I1
aI3
aI5
aI7
aI8
aI10
aI13
aI14
aI16
aI19
aI20
aI22
aI25
aI26
aI29
aI31
aI33
aI35
aI37
aI38
aI57
aa(lp188
I1
aI3
aI5
aI7
aI8
aI10
aI13
aI14
aI16
aI19
aI35
aa(lp189
I1
aI3
aI5
aI7
aI8
aI10
aI13
aI14
aI16
aI19
aI20
aI22
aI25
aI26
aI29
aI31
aI33
aI34
aI37
aI38
aI53
aa(lp190
I1
aI3
aI5
aI7
aI8
aI10
aI13
aI14
aI16
aI19
aI20
aI22
aI25
aI26
aI29
aI31
aI33
aI34
aI37
aI38
aI48
aa(lp191
I7
aI16
aa.