(lp0
(lp1
(F2.062190805935919
F0.0
tp2
a(F2.1108668288107646
F0.38913317118923546
tp3
a(F2.222047734864832
F0.2779522651351679
tp4
a(F2.1872791470970854
F0.0
tp5
aa(lp6
(F2.2220477348648315
F1.2779522651351676
tp7
ag3
a(F1.2500000000000002
F1.25
tp8
a(F1.75
F1.7499999999999996
tp9
aa(lp10
g7
ag9
a(F2.222047734864833
F2.2220477348648324
tp11
a(F2.28109540296796
F1.7500000000000036
tp12
aa(lp13
g7
a(F2.3332286409188994
F1.1667713590810997
tp14
ag4
ag3
aa(lp15
g7
ag12
a(F2.3436395735485434
F1.2500000000000022
tp16
ag14
aa(lp17
(F5.062190805935921
F6.0
tp18
a(F5.1108668288107655
F5.610866828810766
tp19
a(F4.749999999999999
F5.25
tp20
a(F4.5
F5.499999999999999
tp21
a(F5.0
F6.0
tp22
aa(lp23
g19
ag18
a(F5.5
F6.0
tp24
aa(lp25
g19
a(F5.1664572818378
F5.166457281837799
tp26
a(F5.0
F4.999999999999999
tp27
ag20
aa(lp28
g19
ag24
a(F5.428513730559277
F5.428513730559276
tp29
ag26
aa(lp30
g27
a(F5.214054922237109
F4.78594507776289
tp31
a(F5.28109540296796
F4.2500000000000036
tp32
a(F5.110866828810765
F2.8891331711892354
tp33
a(F4.285945077762891
F3.714054922237108
tp34
a(F4.222361812108134
F4.222361812108133
tp35
aa(lp36
g27
ag26
ag31
aa(lp37
g27
ag35
a(F4.1667713590811
F4.6667713590811015
tp38
ag20
aa(lp39
(F3.749999999999999
F4.25
tp40
a(F3.5
F4.5
tp41
a(F4.1111809060540665
F5.1111809060540665
tp42
ag38
aa(lp43
g40
ag38
ag35
a(F4.0
F4.0
tp44
aa(lp45
g40
a(F2.7499999999999996
F3.2500000000000004
tp46
a(F2.6111809060540674
F3.3888190939459326
tp47
a(F2.642972538881446
F3.642972538881446
tp48
ag41
aa(lp49
g40
ag44
a(F3.0
F3.0
tp50
ag46
aa(lp51
g35
ag34
ag44
aa(lp52
(F2.5
F2.5
tp53
a(F2.444409546972966
F2.944409546972967
tp54
a(F2.5555904530270332
F3.055590453027035
tp55
a(F2.562544170580583
F3.0
tp56
aa(lp57
g53
a(F2.6111809060540674
F2.611180906054067
tp58
a(F2.625088341161166
F2.5
tp59
aa(lp60
g53
a(F2.388819093945933
F2.6111809060540674
tp61
a(F2.4285137305592768
F2.9285137305592785
tp62
ag54
aa(lp63
g53
a(F2.3570274611185535
F2.357027461118553
tp64
ag61
aa(lp65
g53
ag56
ag58
aa(lp66
g53
ag16
ag12
ag64
aa(lp67
(F1.4999999999999987
F2.0000000000000004
tp68
a(F1.2499999999999996
F2.25
tp69
a(F2.0
F3.0000000000000004
tp70
a(F2.1425686527963856
F2.8574313472036144
tp71
a(F2.166457281837799
F2.666457281837801
tp72
aa(lp73
g68
a(F0.9999999999999991
F1.5000000000000009
tp74
a(F0.7500000000000001
F1.7500000000000009
tp75
ag69
aa(lp76
g68
ag72
ag11
ag9
aa(lp77
g68
ag9
ag8
ag74
aa(lp78
g64
ag12
ag11
aa(lp79
g64
ag11
ag72
a(F2.249999999999999
F2.7500000000000004
tp80
ag61
aa(lp81
g59
ag58
ag50
a(F3.4999999999999996
F2.5
tp82
aa(lp83
(F2.5
F3.5
tp84
ag55
ag54
a(F2.437455829419417
F3.000000000000001
tp85
aa(lp86
g84
a(F2.388819093945933
F3.388819093945933
tp87
a(F2.3749116588388346
F3.5
tp88
aa(lp89
g84
ag47
a(F2.5714862694407237
F3.071486269440725
tp90
ag55
aa(lp91
g84
ag85
ag87
aa(lp92
g84
ag48
ag47
aa(lp93
g26
ag29
a(F5.3332286409188985
F4.6667713590811
tp94
ag31
aa(lp95
(F0.0
F1.0000000000000009
tp96
a(F0.1429725388814457
F1.1429725388814465
tp97
a(F0.07148626944072317
F0.5714862694407258
tp98
a(F0.0
F0.5000000000000023
tp99
aa(lp100
(F1.5000000000000002
F3.5
tp101
ag70
ag69
a(F0.38913317118923374
F3.110866828810766
tp102
a(F0.43780919406407875
F3.5
tp103
aa(lp104
g102
ag69
ag75
a(F0.277952265135167
F2.2220477348648338
tp105
aa(lp106
g102
ag105
a(F0.1429725388814458
F2.3570274611185544
tp107
a(F0.0
F3.5
tp108
aa(lp109
g102
ag108
ag103
aa(lp110
g98
a(F0.0
F0.0
tp111
ag99
aa(lp112
g98
ag97
a(F0.2779522651351672
F1.277952265135168
tp113
a(F0.33354271816220116
F0.8335427181622033
tp114
aa(lp115
g98
ag114
a(F0.38913317118923424
F0.3891331711892342
tp116
ag111
aa(lp117
g21
ag20
ag38
ag42
aa(lp118
g21
a(F4.0
F6.0
tp119
ag22
aa(lp120
g21
ag42
ag119
aa(lp121
g74
ag114
ag113
ag75
aa(lp122
g74
ag8
ag116
ag114
aa(lp123
(F5.5
F2.5
tp124
ag33
ag32
aa(lp125
g124
ag32
ag94
a(F5.5
F4.499999999999999
tp126
aa(lp127
g88
ag87
a(F2.110866828810766
F3.1108668288107664
tp128
a(F2.062190805935921
F3.5
tp129
aa(lp130
(F3.25
F4.75
tp131
ag41
ag48
a(F2.6580357173799545
F3.7633928622999235
tp132
aa(lp133
g5
ag4
a(F2.5
F0.0
tp134
aa(lp135
g4
ag14
a(F2.3570274611185544
F1.1429725388814451
tp136
ag134
aa(lp137
g87
ag85
ag62
ag80
ag71
ag128
aa(lp138
g82
ag50
ag44
ag34
a(F4.437809194064079
F2.5
tp139
aa(lp140
g61
ag80
ag62
aa(lp141
g97
ag96
a(F0.0
F2.5000000000000004
tp142
ag107
a(F0.21890459703203952
F1.7500000000000016
tp143
aa(lp144
g97
ag143
ag113
aa(lp145
g113
ag143
ag105
ag75
aa(lp146
g54
ag62
ag85
aa(lp147
g48
ag84
ag132
aa(lp148
g128
ag71
ag70
aa(lp149
g128
ag70
ag101
ag129
aa(lp150
g46
ag90
ag47
aa(lp151
g46
ag50
ag58
ag56
ag90
aa(lp152
g134
ag136
a(F2.5
F0.9999999999999989
tp153
aa(lp154
g33
a(F5.062190805935919
F2.5
tp155
ag139
ag34
aa(lp156
g33
ag124
ag155
aa(lp157
g31
ag94
ag32
aa(lp158
g72
ag71
ag80
aa(lp159
g14
ag16
ag136
aa(lp160
(F5.5
F5.499999999999999
tp161
ag29
ag24
aa(lp162
g116
a(F0.43780919406407937
F0.0
tp163
ag111
aa(lp164
g116
ag8
ag3
ag2
ag163
aa(lp165
g41
ag131
ag119
ag42
aa(lp166
g29
ag161
ag126
ag94
aa(lp167
g90
ag56
ag55
aa(lp168
g153
ag136
ag16
ag53
aa(lp169
g105
ag143
ag107
aa(lp170
g107
ag142
ag108
aa(lp171
(I0
F3.5
tp172
a(I0
I6
tp173
a(I4
I6
tp174
a(F2.5
F3.5
tp175
aa(lp176
(F2.5
I0
tp177
a(F2.5
F2.5
tp178
a(F5.5
F2.5
tp179
a(F5.5
I6
tp180
a(I6
I6
tp181
a(I6
I0
tp182
aa.