(lp0
(dp1
S'A'
p2
(lp3
(lp4
F1.0
aF-0.0
aa(lp5
F-7.99435015859377
aF1.0
aa(lp6
F-7.9943501585938055
aF-1.0
aasS'b'
p7
(lp8
F2.9999999999999996
aF-21.983050475781305
aF-23.98305047578142
asa(dp9
g2
(lp10
(lp11
F7.994350158593812
aF1.0
aa(lp12
F3.996802888650568e-15
aF-1.0
aa(lp13
F-7.994350158593764
aF1.0
aasg7
(lp14
F65.9548012687505
aF-1.9999999999999634
aF-55.95480126875012
asa(dp15
g2
(lp16
(lp17
F0.0
aF1.0
aa(lp18
F-7.994350158593811
aF-1.0
aa(lp19
F7.994350158593852
aF-1.0
aa(lp20
F7.9943501585938135
aF1.0
aasg7
(lp21
F6.0
aF-23.98305047578143
aF21.98305047578156
aF25.98305047578144
asa(dp22
g2
(lp23
(lp24
F2.9623376493365714e-16
aF-1.0
aa(lp25
F-7.9943501585938055
aF-1.0
aa(lp26
F-7.994350158593818
aF1.0
aa(lp27
F-0.0
aF1.0
aa(lp28
F7.994350158593828
aF1.0
aa(lp29
F7.994350158593818
aF-1.0
aasg7
(lp30
F8.887012948009714e-16
aF-5.999999999999999
aF1.3322676295501902e-15
aF6.0
aF23.983050475781475
aF21.983050475781443
asa(dp31
g2
(lp32
(lp33
F7.994350158593827
aF1.0
aa(lp34
F-1.065814103640154e-14
aF-1.0
aa(lp35
F-7.994350158593777
aF1.0
aasg7
(lp36
F23.983050475781475
aF-2.842170943040411e-14
aF-21.98305047578133
asa(dp37
g2
(lp38
(lp39
F-7.994350158593795
aF1.0
aa(lp40
F-7.994350158593809
aF-1.0
aa(lp41
F-3.73034936274048e-14
aF-1.0
aa(lp42
F7.9943501585937975
aF1.0
aasg7
(lp43
F-33.971750792968976
aF-45.97175079296904
aF-2.0000000000002025
aF47.97175079296898
asa(dp44
g2
(lp45
(lp46
F7.994350158593852
aF-1.0
aa(lp47
F-7.105427357601002e-15
aF1.0
aa(lp48
F-7.994350158593781
aF-1.0
aasg7
(lp49
F33.97175079296927
aF7.9999999999999645
aF-47.971750792968905
asa(dp50
g2
(lp51
(lp52
F-7.994350158593822
aF1.0
aa(lp53
F-0.0
aF-1.0
aa(lp54
F7.994350158593773
aF-1.0
aa(lp55
F-1.974659092436175e-15
aF1.0
aasg7
(lp56
F-21.983050475781468
aF-2.0
aF33.97175079296886
aF5.999999999999992
asa(dp57
g2
(lp58
(lp59
F7.994350158593816
aF1.0
aa(lp60
F-0.0
aF-1.0
aa(lp61
F-7.994350158593788
aF1.0
aasg7
(lp62
F45.971750792969075
aF-2.0
aF-33.97175079296894
asa(dp63
g2
(lp64
(lp65
F1.939337954601609e-15
aF1.0
aa(lp66
F-7.9943501585938375
aF1.0
aa(lp67
F-7.994350158593784
aF-1.0
aa(lp68
F9.48730358362299e-15
aF-1.0
aa(lp69
F7.994350158593617
aF-1.0
aa(lp70
F7.994350158593779
aF1.0
aasg7
(lp71
F8.000000000000012
aF-33.971750792969196
aF-47.97175079296891
aF-1.9999999999999432
aF55.954801268749
aF65.95480126875024
asa(dp72
g2
(lp73
(lp74
F7.994350158593819
aF-1.0
aa(lp75
F-0.0
aF1.0
aa(lp76
F-7.994350158593808
aF-1.0
aasg7
(lp77
F-1.3322676295501875e-15
aF6.0
aF-6.0
asa(dp78
g2
(lp79
(lp80
F7.9943501585938055
aF1.0
aa(lp81
F-1.332267629550189e-15
aF-1.0
aa(lp82
F-7.994350158593821
aF1.0
aasg7
(lp83
F5.999999999999998
aF0.0
aF-0.0
asa(dp84
g2
(lp85
(lp86
F7.994350158593807
aF1.0
aa(lp87
F-1.0
aF-0.0
aa(lp88
F7.994350158593822
aF-1.0
aasg7
(lp89
F6.0
aF0.0
aF0.0
asa(dp90
g2
(lp91
(lp92
F7.994350158593816
aF-1.0
aa(lp93
F-0.0
aF1.0
aa(lp94
F-7.994350158593816
aF-1.0
aasg7
(lp95
F21.983050475781447
aF6.0
aF-25.983050475781447
asa(dp96
g2
(lp97
(lp98
F1.0
aF-0.0
aa(lp99
F-7.99435015859381
aF1.0
aa(lp100
F-7.994350158593821
aF-1.0
aasg7
(lp101
F8.0
aF-55.954801268750494
aF-65.95480126875056
asa(dp102
g2
(lp103
(lp104
F7.994350158593803
aF-1.0
aa(lp105
F-5.329070518200746e-15
aF1.0
aa(lp106
F-7.994350158593793
aF-1.0
aasg7
(lp107
F55.954801268750415
aF7.999999999999963
aF-65.95480126875034
asa(dp108
g2
(lp109
(lp110
F7.994350158593781
aF1.0
aa(lp111
F-1.0
aF-0.0
aa(lp112
F7.994350158593795
aF-1.0
aasg7
(lp113
F47.971750792968905
aF-5.0
aF33.971750792968976
asa(dp114
S'A'
p115
(lp116
(lp117
F-1.0
aF0.0
aa(lp118
F1.0
aF0.0
aa(lp119
F0.0
aF-1.0
aa(lp120
F0.0
aF1.0
aasS'b'
p121
(lp122
F-0.0
aF5.0
aF-6.0
aF8.0
asa(dp123
g115
g116
sg121
(lp124
F-3.0
aF8.0
aF-0.0
aF2.0
asa(dp125
g115
g116
sg121
(lp126
I1000
aF0.0
aI1000
aI1000
asa(dp127
g115
g116
sg121
(lp128
F-8.0
aI1000
aI1000
aI1000
asa(dp129
g115
g116
sg121
(lp130
F-0.0
aF8.0
aF-8.0
aI1000
asa(dp131
g115
g116
sg121
(lp132
F-0.0
aF8.0
aI1000
aF0.0
asa.