(lp0
(lp1
(F3.0
F0.0
tp2
a(F2.874911658838834
F1.0000000000000022
tp3
a(F3.0
F2.0
tp4
aa(lp5
(F7.249469953033004
F2.0
tp6
a(F7.624734976516503
F5.000000000000005
tp7
a(F8.0
F2.0
tp8
aa(lp9
g3
a(F2.249469953033007
F6.0
tp10
a(F2.4996466353553384
F6.0
tp11
ag4
aa(lp12
g3
a(F2.749823317677668
F0.0
tp13
a(F0.7505300469669933
F0.0
tp14
a(F0.3752650234834963
F3.0000000000000027
tp15
a(F0.750530046966992
F6.0
tp16
ag10
aa(lp17
g3
ag2
ag13
aa(lp18
(F5.500353364644662
F2.0
tp19
a(F5.0
F6.0
tp20
a(F5.125088341161166
F7.000000000000001
tp21
a(F5.750530046966993
F2.0
tp22
aa(lp23
(F5.250176682322331
F8.0
tp24
ag21
a(F5.0
F8.0
tp25
aa(lp26
g20
a(F4.499646635355337
F2.0
tp27
ag4
a(F3.500353364644661
F6.0
tp28
aa(lp29
g20
ag19
ag27
aa(lp30
(F7.249469953033007
F8.0
tp31
ag7
ag6
ag22
ag21
ag24
aa(lp32
g15
a(F0.0
F6.0
tp33
ag16
aa(lp34
g15
ag14
a(F0.0
F0.0
tp35
aa(lp36
g15
ag35
ag33
aa(lp37
g4
ag11
ag28
aa(lp38
g8
ag7
a(F8.0
F8.0
tp39
aa(lp40
g7
ag31
ag39
aa(lp41
g25
ag21
ag20
aa.