(dp0
I0
(lp1
(lp2
(F3.0
F0.0
tp3
a(F2.874911658838834
F1.0000000000000022
tp4
a(F3.0
F2.0
tp5
aasI1
(lp6
(lp7
(F8.0
F2.0
tp8
a(F7.332914563675597
F2.667085436324404
tp9
a(F7.444095469729663
F3.555904530270335
tp10
a(F7.857027461118554
F3.1429725388814447
tp11
aa(lp12
g11
ag10
a(F7.624734976516503
F5.000000000000005
tp13
aa(lp14
g9
ag8
a(F7.249469953033004
F2.0
tp15
aasI2
(lp16
(lp17
(F3.0
F2.0
tp18
a(F2.777638187891866
F1.7776381878918666
tp19
a(F2.7140549222371084
F2.285945077762892
tp20
aa(lp21
g18
ag20
a(F2.666457281837799
F2.6664572818377987
tp22
a(F2.8888190939459335
F2.888819093945932
tp23
aa(lp24
(F2.777638187891866
F3.7776381878918674
tp25
a(F2.5552763757837322
F3.5552763757837336
tp26
a(F2.249469953033007
F6.0
tp27
a(F2.4996466353553384
F6.0
tp28
aa(lp29
g26
ag25
a(F2.8570274611185544
F3.1429725388814442
tp30
a(F2.5710823833556633
F3.428917616644336
tp31
aa(lp32
g31
ag30
ag23
ag22
aa(lp33
g19
ag18
a(F2.874911658838834
F1.0000000000000022
tp34
aasI3
(lp35
(lp36
(F0.6670854363244015
F0.6670854363244016
tp37
a(F1.5000000000000007
F1.5000000000000002
tp38
a(F2.0
F1.0000000000000004
tp39
a(F0.9999999999999991
F0.0
tp40
a(F0.7505300469669933
F0.0
tp41
aa(lp42
(F2.666457281837799
F2.6664572818377987
tp43
a(F2.5000000000000004
F2.4999999999999996
tp44
a(F1.9999999999999996
F3.000000000000001
tp45
a(F2.499999999999999
F3.5
tp46
a(F2.5710823833556633
F3.428917616644336
tp47
aa(lp48
g44
ag43
a(F2.7140549222371084
F2.285945077762892
tp49
aa(lp50
g44
ag49
a(F2.777638187891866
F1.7776381878918666
tp51
ag39
ag38
aa(lp52
g44
ag38
a(F0.9999999999999998
F2.0000000000000018
tp53
ag45
aa(lp54
(F0.555904530270334
F4.4440954697296675
tp55
ag45
ag53
a(F0.42891761664433736
F2.571082383355664
tp56
a(F0.3752650234834963
F3.0000000000000027
tp57
aa(lp58
g47
ag46
a(F2.5552763757837322
F3.5552763757837336
tp59
aa(lp60
g56
ag53
a(F0.5559045302703345
F1.555904530270336
tp61
aa(lp62
g45
ag55
a(F0.6670854363244004
F5.332914563675599
tp63
ag46
aa(lp64
g46
ag63
a(F0.750530046966992
F6.0
tp65
a(F2.249469953033007
F6.0
tp66
ag59
aa(lp67
g61
ag53
ag38
ag37
aa(lp68
g40
ag39
a(F2.7776381878918652
F0.22236181210813474
tp69
a(F2.749823317677668
F0.0
tp70
aa(lp71
g69
ag39
ag51
a(F2.874911658838834
F1.0000000000000022
tp72
aasI4
(lp73
(lp74
(F3.0
F0.0
tp75
a(F2.7776381878918652
F0.22236181210813474
tp76
a(F2.874911658838834
F1.0000000000000022
tp77
aa(lp78
g76
ag75
a(F2.749823317677668
F0.0
tp79
aasI5
(lp80
(lp81
(F5.142972538881446
F4.857027461118555
tp82
a(F5.428917616644338
F4.571082383355663
tp83
a(F5.444723624216268
F4.444723624216268
tp84
a(F5.222361812108133
F4.222361812108133
tp85
aa(lp86
(F5.3335427181622
F5.3335427181621995
tp87
a(F5.1111809060540665
F5.111180906054066
tp88
a(F5.0
F6.0
tp89
a(F5.285945077762892
F5.714054922237108
tp90
aa(lp91
g83
ag82
ag88
ag87
aa(lp92
g89
a(F5.222361812108134
F6.222361812108134
tp93
ag90
aa(lp94
g93
ag89
a(F5.125088341161166
F7.000000000000001
tp95
aa(lp96
g85
ag84
a(F5.750530046966993
F2.0
tp97
a(F5.500353364644662
F2.0
tp98
aasI6
(lp99
(lp100
(F5.222361812108133
F7.777638187891867
tp101
a(F5.0
F8.0
tp102
a(F5.250176682322331
F8.0
tp103
aa(lp104
g102
ag101
a(F5.125088341161166
F7.000000000000001
tp105
aasI7
(lp106
(lp107
(F3.0
F2.0
tp108
a(F3.499999999999999
F2.499999999999999
tp109
a(F3.9999999999999982
F2.0
tp110
aa(lp111
(F4.5
F5.500000000000001
tp112
a(F4.000000000000001
F6.0
tp113
a(F5.0
F6.0
tp114
aa(lp115
g112
a(F3.285945077762891
F4.285945077762892
tp116
a(F3.500353364644661
F6.0
tp117
ag113
aa(lp118
g112
a(F4.8888190939459335
F5.111180906054067
tp119
a(F4.8570274611185535
F4.8570274611185535
tp120
a(F3.142972538881445
F3.1429725388814442
tp121
ag116
aa(lp122
g112
ag114
ag119
aa(lp123
g109
a(F3.1111809060540665
F2.888819093945932
tp124
ag121
ag120
a(F4.714054922237107
F3.714054922237107
tp125
aa(lp126
g109
ag125
a(F4.499646635355337
F2.0
tp127
ag110
aa(lp128
g109
ag108
ag124
aasI8
(lp129
(lp130
(F5.142972538881446
F4.857027461118555
tp131
a(F5.000000000000001
F4.999999999999999
tp132
a(F5.1111809060540665
F5.111180906054066
tp133
aa(lp134
(F4.714054922237107
F3.714054922237107
tp135
a(F5.222361812108133
F4.222361812108133
tp136
a(F5.500353364644662
F2.0
tp137
a(F4.499646635355337
F2.0
tp138
aa(lp139
(F4.8570274611185535
F4.8570274611185535
tp140
ag132
ag131
ag136
ag135
aa(lp141
(F4.8888190939459335
F5.111180906054067
tp142
ag132
ag140
aa(lp143
g132
ag142
a(F5.0
F6.0
tp144
ag133
aasI9
(lp145
(lp146
(F7.444095469729663
F3.555904530270335
tp147
a(F6.0
F5.0
tp148
a(F7.0
F5.999999999999999
tp149
a(F7.571082383355662
F5.428917616644336
tp150
a(F7.624734976516503
F5.000000000000005
tp151
aa(lp152
(F7.332914563675598
F7.3329145636755975
tp153
a(F6.5
F6.499999999999998
tp154
a(F6.0
F7.0
tp155
a(F7.0
F8.0
tp156
a(F7.249469953033007
F8.0
tp157
aa(lp158
g154
ag149
ag148
a(F5.500000000000001
F5.5
tp159
aa(lp160
g154
ag153
a(F7.444095469729666
F6.444095469729665
tp161
ag149
aa(lp162
g154
ag159
a(F5.285945077762892
F5.714054922237108
tp163
a(F5.222361812108134
F6.222361812108134
tp164
ag155
aa(lp165
(F5.222361812108133
F7.777638187891867
tp166
ag155
ag164
a(F5.125088341161166
F7.000000000000001
tp167
aa(lp168
g155
ag166
a(F5.250176682322331
F8.0
tp169
ag156
aa(lp170
(F5.444723624216268
F4.444723624216268
tp171
a(F5.5
F4.5
tp172
a(F7.332914563675597
F2.667085436324404
tp173
a(F7.249469953033004
F2.0
tp174
a(F5.750530046966993
F2.0
tp175
aa(lp176
g172
ag148
ag147
ag173
aa(lp177
g172
ag171
a(F5.428917616644338
F4.571082383355663
tp178
aa(lp179
g172
ag178
a(F5.3335427181622
F5.3335427181621995
tp180
ag159
ag148
aa(lp181
g159
ag180
ag163
aa(lp182
g150
ag149
ag161
aasI10
(lp183
(lp184
(F0.6670854363244004
F5.332914563675599
tp185
a(F0.0
F6.0
tp186
a(F0.750530046966992
F6.0
tp187
aa(lp188
g186
ag185
a(F0.555904530270334
F4.4440954697296675
tp189
a(F0.14297253888144562
F4.857027461118555
tp190
aa(lp191
g190
ag189
a(F0.3752650234834963
F3.0000000000000027
tp192
aasI11
(lp193
(lp194
(F0.0
F0.0
tp195
a(F0.6670854363244015
F0.6670854363244016
tp196
a(F0.7505300469669933
F0.0
tp197
aa(lp198
(F0.42891761664433736
F2.571082383355664
tp199
a(F0.3335427181622005
F2.6664572818378005
tp200
a(F0.3752650234834963
F3.0000000000000027
tp201
aa(lp202
g200
ag199
a(F0.5559045302703345
F1.555904530270336
tp203
a(F0.1429725388814458
F1.1429725388814473
tp204
aa(lp205
g196
ag195
ag204
ag203
aasI12
(lp206
(lp207
(F0.3335427181622005
F2.6664572818378005
tp208
a(F0.0
F3.000000000000001
tp209
a(F0.0
F5.000000000000002
tp210
a(F0.14297253888144562
F4.857027461118555
tp211
a(F0.3752650234834963
F3.0000000000000027
tp212
aa(lp213
(F0.0
F1.0000000000000022
tp214
a(F0.1429725388814458
F1.1429725388814473
tp215
a(F0.0
F0.0
tp216
aa(lp217
g209
ag208
ag215
ag214
aa(lp218
g211
ag210
a(F0.0
F6.0
tp219
aasI13
(lp220
(lp221
(F3.142972538881445
F3.1429725388814442
tp222
a(F2.9999999999999996
F2.999999999999999
tp223
a(F2.8570274611185544
F3.1429725388814442
tp224
a(F2.777638187891866
F3.7776381878918674
tp225
a(F3.285945077762891
F4.285945077762892
tp226
aa(lp227
(F2.8888190939459335
F2.888819093945932
tp228
ag223
a(F3.1111809060540665
F2.888819093945932
tp229
a(F3.0
F2.0
tp230
aa(lp231
g226
ag225
a(F2.4996466353553384
F6.0
tp232
a(F3.500353364644661
F6.0
tp233
aa(lp234
g224
ag223
ag228
aa(lp235
g229
ag223
ag222
aasI14
(lp236
(lp237
(F7.857027461118554
F3.1429725388814447
tp238
a(F8.0
F2.9999999999999987
tp239
a(F8.0
F2.0
tp240
aa(lp241
(F8.0
F4.999999999999998
tp242
a(F7.666457281837799
F5.333542718162201
tp243
a(F7.8570274611185535
F6.8570274611185535
tp244
a(F8.0
F6.999999999999999
tp245
aa(lp246
g243
ag242
ag239
ag238
a(F7.624734976516503
F5.000000000000005
tp247
aa(lp248
g245
ag244
a(F8.0
F8.0
tp249
aasI15
(lp250
(lp251
(F7.8570274611185535
F6.8570274611185535
tp252
a(F7.444095469729666
F6.444095469729665
tp253
a(F7.332914563675598
F7.3329145636755975
tp254
a(F8.0
F8.0
tp255
aa(lp256
(F7.571082383355662
F5.428917616644336
tp257
a(F7.666457281837799
F5.333542718162201
tp258
a(F7.624734976516503
F5.000000000000005
tp259
aa(lp260
g253
ag252
ag258
ag257
aa(lp261
g255
ag254
a(F7.249469953033007
F8.0
tp262
aasI16
(lp263
(lp264
(F5.0
F8.0
tp265
a(F5.125088341161166
F7.000000000000001
tp266
a(F5.0
F6.0
tp267
aas.