(lp0
(lp1
(F7.7561457475348865
F2.0196200472977606
tp2
a(F7.7596026151747495
F2.0146276964160403
tp3
a(F7.7590151061968475
F2.0
tp4
a(F7.651294309064737
F2.0
tp5
a(F7.5878660097990345
F2.0331595135168476
tp6
aa(lp7
g2
ag6
a(F7.342270077659615
F2.161553964034039
tp8
a(F7.72254183361497
F2.068150262152617
tp9
aa(lp10
g2
ag9
a(F7.761369260767821
F2.0586133313292994
tp11
a(F7.759791347829996
F2.0193267292625166
tp12
aa(lp13
g2
ag12
ag3
aa(lp14
(F2.9187039359279967
F1.7848562091349014
tp15
a(F2.9256104035060586
F1.7748820032656025
tp16
a(F2.930493854919952
F1.6583663823071455
tp17
a(F2.903200290782232
F1.52421422863264
tp18
a(F2.7996782834067324
F1.4698639596831162
tp19
aa(lp20
g15
a(F2.8953004737012833
F1.818655100922229
tp21
a(F2.921848526199887
F1.864637676691816
tp22
a(F2.924544533088161
F1.8003129010214947
tp23
aa(lp24
g15
ag23
ag16
aa(lp25
g15
ag19
a(F2.7081447745475993
F1.4218077931682762
tp26
a(F2.697138149821346
F1.475427887816258
tp27
ag21
aa(lp28
(F3.6914385916454693
F4.39554519504129
tp29
a(F3.8680597842659656
F4.612104172975566
tp30
a(F4.052671321274859
F4.495397603900801
tp31
a(F3.6173456556472168
F4.108897391981573
tp32
a(F3.609835237783561
F4.112823743555716
tp33
aa(lp34
g29
a(F3.505389605729821
F4.167426600450137
tp35
a(F3.2767520177019103
F4.286955442913842
tp36
a(F3.3015731299398525
F4.492066062171833
tp37
a(F3.616146349466973
F4.771357235679949
tp38
a(F3.7715542584656845
F4.673112433864292
tp39
aa(lp40
g29
ag39
ag30
aa(lp41
g29
ag33
ag35
aa(lp42
(F0.5183811994947984
F1.7959737952929198
tp43
a(F0.8623193352175414
F1.8242506573441157
tp44
a(F0.7308675115921835
F1.5461621745001746
tp45
a(F0.6573970917824774
F1.4809320834020423
tp46
a(F0.546243930603012
F1.5512001949905654
tp47
a(F0.5168436013470994
F1.7906466615472334
tp48
aa(lp49
g43
a(F0.6057236806578911
F2.0985789197412146
tp50
a(F0.6168362831240554
F2.1084451498931953
tp51
a(F0.8846540144957082
F1.8715000366526373
tp52
ag44
aa(lp53
g43
a(F0.5162114149550321
F1.7957954065312813
tp54
a(F0.4914875268447673
F1.997155316347759
tp55
ag50
aa(lp56
g43
ag48
ag54
aa(lp57
(F2.5933565178012583
F2.7043271717349517
tp58
a(F2.692986060986643
F2.808219898745047
tp59
a(F2.842366413491104
F2.4149733453030473
tp60
a(F2.7564227283759513
F2.4218882100218586
tp61
aa(lp62
g58
ag61
a(F2.6475165754949304
F2.4306505910299503
tp63
a(F2.5017242849672368
F2.608773962849548
tp64
aa(lp65
g58
ag64
a(F2.4520336086937613
F2.6694841058467604
tp66
a(F2.418184937518942
F2.834381973925526
tp67
a(F2.4767857484283273
F2.90623366696626
tp68
aa(lp69
g58
ag68
a(F2.598885142475425
F3.055942315112741
tp70
ag59
aa(lp71
(F7.9825639837901115
F7.56588109898379
tp72
a(F8.0
F8.0
tp73
a(F8.0
F7.575035212147171
tp74
aa(lp75
g72
a(F7.9806106133392944
F7.517246421017326
tp76
a(F7.911308180440693
F7.528470965868733
tp77
aa(lp78
g72
ag74
a(F8.0
F7.51410602563564
tp79
ag76
aa(lp80
g72
ag77
a(F7.904297355054804
F7.529606471805508
tp81
ag73
aa(lp82
(F5.872104416135986
F6.16335236540966
tp83
a(F5.819473835901661
F6.274192109947106
tp84
a(F5.987307254304619
F6.330348386200768
tp85
aa(lp86
g83
a(F5.881153773028632
F6.144294464057571
tp87
a(F5.856130414602124
F6.140196731966312
tp88
aa(lp89
g83
ag85
a(F6.109931822447455
F6.371377992757324
tp90
a(F5.89421813043458
F6.146433834628123
tp91
ag87
aa(lp92
g83
ag88
a(F5.630946276387423
F6.103321415157222
tp93
a(F5.5787891826463465
F6.193660151491898
tp94
ag84
aa(lp95
(F1.181614935662246
F3.1495353191573927
tp96
a(F1.0010896344652247
F3.462214312882307
tp97
a(F1.1578047902620443
F3.5616687749686067
tp98
a(F1.421291888212848
F3.006766235499115
tp99
a(F1.4181079789214672
F3.00003062331867
tp100
aa(lp101
g96
a(F1.3505033706855438
F2.857011968886246
tp102
a(F1.2887542622380161
F2.726380720025988
tp103
a(F0.9035732879190257
F2.889880343307478
tp104
a(F0.8687337701506751
F3.009798750026409
tp105
a(F0.951123815161294
F3.2952457569323
tp106
aa(lp107
g96
ag100
ag102
aa(lp108
g96
ag106
a(F0.998919256953292
F3.4608369494302793
tp109
ag97
aa(lp110
(F2.9328170239319826
F0.3272899390226045
tp111
a(F2.902436521194698
F0.47529220790535254
tp112
a(F2.9390019044455338
F0.4812800190465387
tp113
aa(lp114
g111
ag113
a(F2.9795500913425004
F0.48792003929714006
tp115
a(F3.0
F0.0
tp116
aa(lp117
g111
a(F2.9273528894456806
F0.19124486831126625
tp118
a(F2.8243131076654477
F0.4624990083179464
tp119
ag112
aa(lp120
g111
ag116
ag118
aa(lp121
(F3.605723680657891
F4.0985789197412155
tp122
a(F3.427931729372615
F3.9407278388723253
tp123
a(F3.3481266010982624
F3.974603106029165
tp124
ag35
ag33
aa(lp125
g122
a(F3.5457298720191712
F3.8907254939225955
tp126
ag123
aa(lp127
g122
ag33
ag32
aa(lp128
g122
ag32
a(F3.832451054337707
F3.9964430071407513
tp129
a(F3.677452872429769
F3.834812397532729
tp130
ag126
aa(lp131
(F7.967048961260864
F7.1795907647376636
tp132
a(F7.845927102552091
F7.05328605832773
tp133
a(F7.809831787167804
F7.065293371611586
tp134
a(F7.903200290782232
F7.52421422863264
tp135
ag77
ag76
aa(lp136
g132
a(F7.960445972597198
F7.015190700664129
tp137
ag133
aa(lp138
g132
a(F8.0
F7.213951790222385
tp139
a(F8.0
F7.003785958506219
tp140
a(F7.997372605867139
F7.002906844726876
tp141
ag137
aa(lp142
g132
ag76
ag79
ag139
aa(lp143
g90
ag85
a(F6.071556936781215
F6.452475253473879
tp144
a(F6.1202563735177575
F6.382144335064575
tp145
aa(lp146
g90
ag145
a(F6.124366944292494
F6.376207916963116
tp147
aa(lp148
g90
ag147
a(F6.14215100297523
F6.350524474524795
tp149
a(F5.9163625734790095
F6.150060126245721
tp150
ag91
aa(lp151
(F3.0
F2.0
tp152
a(F2.9894095015847846
F2.2526816373349896
tp153
a(F3.0347086720321386
F2.2868170106918897
tp154
aa(lp155
g152
a(F2.914656843801507
F2.036226020542103
tp156
a(F2.9138936972792977
F2.054434144956835
tp157
aa(lp158
g152
a(F3.1229386455619714
F2.0201319752764104
tp159
a(F3.1065194071769193
F2.0
tp160
aa(lp161
g152
a(F2.923019326875118
F2.202653052295488
tp162
a(F2.9536614971064856
F2.225743583777274
tp163
aa(lp164
g152
a(F2.9153032380893262
F2.020803520050948
tp165
ag156
aa(lp166
g152
a(F3.0961488502388796
F2.3331155058186166
tp167
a(F3.169815630996719
F2.3886274068167217
tp168
a(F3.183194503452691
F2.3875509682977154
tp169
aa(lp170
g152
a(F3.2629279541981253
F2.381135767172351
tp171
a(F3.3581491244539876
F2.3734744537226895
tp172
aa(lp173
g152
a(F2.9158915339306097
F2.006767206500365
tp174
ag165
aa(lp175
g152
a(F2.909613615151345
F2.1565538108703444
tp176
a(F2.908151072597793
F2.1914490190668516
tp177
ag162
aa(lp178
g152
ag22
a(F2.9202723443637737
F1.9022442360313143
tp179
aa(lp180
g152
a(F2.912947159711891
F2.0770178471542433
tp181
a(F2.911651083750705
F2.1079412827795743
tp182
aa(lp183
g152
a(F3.1862843324049335
F2.0978014610030327
tp184
a(F3.1464968192528406
F2.049017150043942
tp185
aa(lp186
g152
ag154
ag167
aa(lp187
g152
a(F2.916463017991236
F1.993132009884652
tp188
ag174
aa(lp189
g152
ag169
ag171
aa(lp190
g152
ag185
ag159
aa(lp191
g152
ag172
a(F3.4078559747024895
F2.369475135510932
tp192
a(F3.276374931427877
F2.208263448924358
tp193
aa(lp194
g152
a(F2.9873756701679848
F1.685681630094362
tp195
a(F2.9477068068839083
F1.7429707441782776
tp196
aa(lp197
g152
ag23
ag22
aa(lp198
g152
a(F2.9176473947236623
F1.964873637120912
tp199
a(F2.917035692517775
F1.9794684096127286
tp200
aa(lp201
g152
ag157
ag181
aa(lp202
g152
ag182
ag176
aa(lp203
g152
ag196
ag16
ag23
aa(lp204
g152
ag193
ag184
aa(lp205
g152
ag163
ag153
aa(lp206
g152
ag179
a(F2.9191825108674925
F1.9282468755168416
tp207
aa(lp208
g152
ag207
a(F2.918347005324069
F1.9481814338763845
tp209
aa(lp210
g152
ag200
ag188
aa(lp211
g152
ag209
ag199
aa(lp212
(F4.771233667340287
F4.041141345411549
tp213
a(F4.545040095186977
F3.7638006250027845
tp214
a(F4.620812457949756
F4.136233686597138
tp215
aa(lp216
g213
ag215
a(F4.6823513816537305
F4.43870716012528
tp217
a(F4.6844172387173915
F4.4417017904194545
tp218
a(F4.934076620995329
F4.358651167773548
tp219
a(F4.929098330067768
F4.234702545542609
tp220
aa(lp221
g213
ag220
a(F4.919747792562303
F4.001894487961138
tp222
a(F4.887126272701185
F3.967877081585207
tp223
aa(lp224
g213
ag223
a(F4.553188873128848
F3.6196503811207283
tp225
a(F4.519315270601855
F3.6373590725701535
tp226
ag214
aa(lp227
(F0.2901283954303957
F2.397491872265482
tp228
a(F0.26862066481011343
F2.2197615633224093
tp229
a(F0.0
F2.241374268844058
tp230
a(F0.0
F2.643664716917488
tp231
a(F0.013069135578124613
F2.642613199235957
tp232
aa(lp233
g228
a(F0.46088137810714414
F2.246422394493079
tp234
a(F0.46610587516151114
F2.2038722805703816
tp235
ag229
aa(lp236
g228
a(F0.3168337317264097
F2.6181728801372888
tp237
a(F0.41621797602484584
F2.6101766137032376
tp238
ag234
aa(lp239
g228
ag232
ag237
aa(lp240
(F0.7789321712283421
F5.847002326489205
tp241
a(F0.8547639169439418
F5.715657890083143
tp242
a(F0.8250734321519624
F5.725534599807145
tp243
aa(lp244
g241
a(F0.7618387202050083
F5.876609052138311
tp245
a(F0.7680689431638725
F5.8755999762067574
tp246
aa(lp247
g241
ag246
a(F1.5776039961569244
F5.744483908111405
tp248
a(F1.587128348341587
F5.719410874023644
tp249
a(F0.9908504953857505
F5.670387910760832
tp250
ag242
aa(lp251
g241
ag243
a(F0.6979819813550269
F5.767812298427366
tp252
a(F0.7121222714904791
F5.884661359757372
tp253
ag245
aa(lp254
(F2.7828156409282614
F3.281463387442232
tp255
a(F2.863294437961957
F3.261695898933847
tp256
a(F2.873684349241974
F3.013800125659544
tp257
a(F2.769720421578997
F3.1218346311907506
tp258
a(F2.7461752391099377
F3.2365378162174547
tp259
aa(lp260
g255
ag259
a(F2.7345182228980045
F3.2933263711234875
tp261
aa(lp262
g255
ag261
a(F2.7290037929043423
F3.3201905793202595
tp263
a(F2.8561128546778667
F3.433043285216867
tp264
a(F2.8585727970600066
F3.3743508380345815
tp265
aa(lp266
g255
ag265
ag256
aa(lp267
g19
a(F2.7339733348391233
F1.2959808587631052
tp268
ag26
aa(lp269
g19
ag18
a(F2.795642634360885
F0.9955514574277164
tp270
ag268
aa(lp271
(F0.11664220241669183
F5.598514905889326
tp272
a(F0.15075533326584023
F5.481096739345686
tp273
a(F0.058558271287097785
F5.593739537480437
tp274
aa(lp275
g272
ag274
a(F0.04835133510666828
F5.606209976636205
tp276
a(F0.0
F6.0
tp277
aa(lp278
g272
ag277
a(F0.18785894169906484
F5.604369987670798
tp279
aa(lp280
g272
ag279
a(F0.35931857203829315
F5.243276844850186
tp281
a(F0.33800303348746263
F5.252324754158959
tp282
ag273
aa(lp283
(F7.295037255681429
F5.236542719361131
tp284
a(F7.05506321342428
F5.316371458207099
tp285
a(F7.283856416280663
F5.488779502855516
tp286
a(F7.330194919174177
F5.263035919078243
tp287
aa(lp288
g284
a(F7.33860842372423
F5.222048520896218
tp289
a(F7.386927903082656
F4.98665437228315
tp290
a(F7.350868963415431
F4.809419021444818
tp291
a(F7.244380058222479
F4.826666460568122
tp292
a(F7.17061927115916
F4.865227668167172
tp293
a(F7.04432603522263
F5.0476182637781895
tp294
aa(lp295
g284
ag287
ag289
aa(lp296
g284
ag294
a(F6.940853857600288
F5.197051065667852
tp297
a(F6.95842373015039
F5.243548384186218
tp298
ag285
aa(lp299
(F2.7825126907519566
F0.9310157227807243
tp300
a(F2.8071946950625377
F0.9392742058989747
tp301
ag112
ag119
a(F2.7350177587005344
F0.697570673567927
tp302
aa(lp303
g300
ag302
a(F2.6616961827100796
F0.8905910846713276
tp304
aa(lp305
g300
ag270
ag301
aa(lp306
g300
ag304
a(F2.6211361898869825
F0.9973660193792835
tp307
ag268
ag270
aa(lp308
(F5.714125182483266
F2.1839171209157158
tp309
a(F5.799684203262852
F2.1770332055544865
tp310
a(F5.7357463737071495
F2.0078266494029258
tp311
aa(lp312
g309
ag311
a(F5.732788929345075
F2.0
tp313
a(F5.491138243611619
F2.0
tp314
a(F5.466105875161512
F2.2038722805703816
tp315
aa(lp316
g309
ag315
a(F5.442036836672416
F2.399898868213826
tp317
a(F5.682765685397271
F2.4393197289911197
tp318
aa(lp319
g309
ag318
a(F5.913043213113368
F2.4770291203180035
tp320
ag310
aa(lp321
(F0.95110873450726
F2.503255963537827
tp322
a(F1.0208767134582015
F2.4861193042809977
tp323
a(F1.0252533575277663
F2.4710547965835103
tp324
a(F0.9975771235526962
F2.4464826862277644
tp325
aa(lp326
g322
a(F0.8951338073078469
F2.571643960831978
tp327
a(F0.998444413607962
F2.563331786812136
tp328
ag323
aa(lp329
g322
ag325
a(F0.7028630117881246
F2.1848232536547614
tp330
a(F0.6322565253854177
F2.1905041166651276
tp331
a(F0.7376602642674276
F2.555683936347008
tp332
aa(lp333
g322
ag332
a(F0.7457363508791875
F2.583664194769521
tp334
ag327
aa(lp335
(F0.1179710990423538
F0.17100884337232466
tp336
a(F0.06492153309980393
F0.13734256509884168
tp337
a(F0.10991670207161464
F0.23253058097862933
tp338
a(F0.15775677251887507
F0.2286814603034107
tp339
aa(lp340
g336
ag339
a(F0.203099921888935
F0.2250332371279823
tp341
aa(lp342
g336
a(F0.0
F0.0
tp343
ag337
aa(lp344
g336
ag341
a(F0.2148894746723926
F0.22408467223361384
tp345
ag343
aa(lp346
(F1.7826550148193436
F5.930442342504712
tp347
a(F2.0555544096122493
F5.757922506611002
tp348
a(F1.822009625192822
F5.738721630157081
tp349
aa(lp350
g347
a(F1.7226780736269796
F5.96835819079659
tp351
a(F1.7318110125663102
F6.0
tp352
a(F1.7683768782753098
F6.0
tp353
aa(lp354
g347
ag353
a(F2.1789179188502064
F6.0
tp355
a(F2.2257372339722887
F5.771914081688304
tp356
ag348
aa(lp357
g347
ag349
a(F1.6834935784477456
F5.727333538117049
tp358
a(F1.6544668443079094
F5.732034843188389
tp359
ag351
aa(lp360
(F5.854763916943941
F5.715657890083143
tp361
a(F6.076718199518054
F5.641823527446677
tp362
a(F5.971720336882013
F5.5130834284790415
tp363
aa(lp364
g361
a(F5.643217765858474
F5.786029928200397
tp365
a(F5.633909502348088
F5.818069181352731
tp366
a(F5.683091979755983
F5.889363241033315
tp367
a(F5.761838720205008
F5.876609052138311
tp368
aa(lp369
g361
ag368
a(F6.0287904695549805
F5.833372303319918
tp370
a(F6.103912092005446
F5.675166533887461
tp371
ag362
aa(lp372
g361
ag363
a(F5.959663363043051
F5.498300117978154
tp373
a(F5.685110947155004
F5.641832652369244
tp374
ag365
aa(lp375
(F1.0206741129423424
F2.159252779597553
tp376
a(F1.1181179910813857
F2.1514126313178386
tp377
a(F1.1784971127071473
F1.9435863315225106
tp378
a(F1.0626355816514028
F1.840719650685377
tp379
a(F0.9316198278859847
F1.82994819497584
tp380
ag52
aa(lp381
g376
a(F1.0796145691819068
F2.2839422787748647
tp382
ag377
aa(lp383
g376
ag330
ag325
a(F1.0515501993147092
F2.380540473457754
tp384
ag382
aa(lp385
g376
ag52
ag51
ag330
aa(lp386
(F5.694682874157226
F6.537001264981163
tp387
a(F5.467016223493955
F6.3925196150630095
tp388
a(F5.445949480862278
F6.465031818818123
tp389
a(F5.63516553324197
F6.662344493826904
tp390
aa(lp391
g387
a(F5.808360090715691
F6.609143020300271
tp392
a(F5.699410952211657
F6.527043955725347
tp393
aa(lp394
g387
ag390
a(F5.804190228716235
F6.838601816538873
tp395
a(F5.910026807151169
F6.685754386230878
tp396
ag392
aa(lp397
g387
ag393
a(F5.4812319299323775
F6.362634269839328
tp398
a(F5.470094063433743
F6.381925620502882
tp399
ag388
aa(lp400
(F4.91075797430606
F2.312898618022787
tp401
a(F5.006741929315092
F2.2408318260910485
tp402
a(F4.8495242631845885
F2.2534812591615885
tp403
a(F4.851521102131616
F2.3031982081913904
tp404
aa(lp405
g401
a(F4.8536333660118
F2.3557889871447633
tp406
a(F4.862031278032786
F2.5648787409908165
tp407
a(F4.9036413399646035
F2.6369494823628115
tp408
a(F5.116645698649936
F2.7082197438124647
tp409
a(F5.413121130911136
F2.6353983931430713
tp410
ag317
aa(lp411
g401
ag317
ag315
ag402
aa(lp412
g401
ag404
ag406
aa(lp413
(F7.755041015972207
F7.844544301629154
tp414
a(F7.390027917448624
F7.612899945449705
tp415
a(F7.312543357274468
F7.625449705748004
tp416
a(F7.444510304769474
F7.763063566176357
tp417
a(F7.752942184170989
F7.894620911362736
tp418
aa(lp419
g414
ag73
a(F7.757547532602478
F7.7847406265505255
tp420
aa(lp421
g414
ag418
ag73
aa(lp422
g414
ag420
a(F7.53715840835576
F7.589070005790688
tp423
ag415
aa(lp424
(F1.9089129099361166
F4.038336482255874
tp425
a(F2.1408362346318617
F4.18551949965839
tp426
a(F2.247863267557972
F3.6641244509381146
tp427
a(F1.9019421349859758
F4.023589693838118
tp428
aa(lp429
g425
a(F2.0845583224024606
F4.409917225102574
tp430
a(F2.1067845965328305
F4.3514061454921285
tp431
ag426
aa(lp432
g425
a(F1.8957746320997666
F4.0299986776044285
tp433
a(F1.7263061136582847
F4.206102524433711
tp434
a(F1.5421353064717276
F4.5250957197518
tp435
a(F1.796074701733648
F4.633410050759728
tp436
a(F1.8514113528091833
F4.609921035964785
tp437
a(F2.07129789313367
F4.444825551530292
tp438
ag430
aa(lp439
g425
ag428
ag433
aa(lp440
(F1.789047700284501
F2.0974309086496197
tp441
a(F1.6544918352341123
F2.330488503373275
tp442
a(F1.7540202247928476
F2.306041986161585
tp443
a(F1.8398534866757446
F2.125277556479102
tp444
a(F1.8154122712980163
F2.0953096656323615
tp445
aa(lp446
g441
ag445
a(F1.8006925273889989
F2.0772614764592743
tp447
aa(lp448
g441
a(F1.4649116177670671
F2.1235102786241606
tp449
a(F1.5972978115301606
F2.3154149913687894
tp450
a(F1.622990452193469
F2.3382259851722815
tp451
ag442
aa(lp452
g441
ag447
a(F1.646953957470994
F1.888759365944951
tp453
a(F1.4662296992660777
F1.8739011272450572
tp454
a(F1.3720749066908864
F1.9889358047699444
tp455
ag449
aa(lp456
g97
a(F0.9999076986009012
F3.4642614858506047
tp457
a(F1.0686710436155495
F3.7024976831574365
tp458
a(F1.0783687782097153
F3.70011569107737
tp459
a(F1.101987585193325
F3.6792195358203
tp460
ag98
aa(lp461
g97
ag109
ag457
aa(lp462
(F0.9883704596781455
F0.16185186982676536
tp463
a(F1.46928532490083
F0.12315837850364386
tp464
a(F1.3688398023923065
F0.0
tp465
a(F0.7473457855768635
F0.0
tp466
a(F0.91636257347901
F0.15006012624572174
tp467
aa(lp468
g463
ag467
a(F0.9345236466610423
F0.1661842815339607
tp469
aa(lp470
g463
a(F1.5798370997120013
F0.25870824659545955
tp471
ag464
aa(lp472
g463
ag469
a(F1.1993297124336033
F0.40129010832005085
tp473
a(F1.269987419189962
F0.42493184628747876
tp474
a(F1.6410686561803538
F0.3337855523783694
tp475
ag471
aa(lp476
(F2.961326294076756
F2.922726669828665
tp477
a(F2.95468765508432
F3.081119797754974
tp478
a(F3.0774182247743354
F3.2091020524650276
tp479
a(F3.14432860045182
F3.192667287892905
tp480
a(F3.094869009984986
F2.7839552555049476
tp481
aa(lp482
g477
ag481
a(F3.082048237560707
F2.678010100988874
tp483
a(F2.9790593757079575
F2.49962815964622
tp484
aa(lp485
g477
ag484
a(F2.926285638102836
F2.408221364808841
tp486
a(F2.916034890040845
F2.409046120415031
tp487
a(F2.8946684157147304
F2.5131354669816672
tp488
a(F2.8743730388124007
F2.9973684902965747
tp489
a(F2.881921743378431
F3.0052402066337573
tp490
aa(lp491
g477
ag490
ag478
aa(lp492
(F1.292921547355047
F3.6474164764414114
tp493
a(F1.0938737114685932
F3.6963073141965643
tp494
a(F1.0770878254819223
F3.7316583079783863
tp495
a(F1.2088923787793155
F4.188305894837452
tp496
a(F1.5048691597086221
F3.826692931568835
tp497
a(F1.5264057923992929
F3.7955900840190173
tp498
aa(lp499
g493
a(F1.2026714196171873
F3.590142003773142
tp500
ag460
ag494
aa(lp501
g493
ag498
a(F1.5968186258902377
F3.693901038332303
tp502
a(F1.647566079229958
F3.560307424532203
tp503
aa(lp504
g493
ag503
a(F1.6633314301844828
F3.5188048452255623
tp505
a(F1.5512669921336335
F3.2817306936554984
tp506
ag500
aa(lp507
(F4.213457467803376
F4.393752821455857
tp508
a(F4.051872590742024
F4.225253669650477
tp509
a(F4.150373098286343
F4.4336331043886785
tp510
aa(lp511
g508
a(F4.35842107240994
F4.302110634794858
tp512
a(F4.1752088515444035
F3.817253561088143
tp513
a(F3.9216671610994274
F3.9498019536625057
tp514
ag509
aa(lp515
g508
a(F4.362221156403996
F4.548882161555715
tp516
a(F4.441680244757726
F4.522449640965294
tp517
ag512
aa(lp518
g508
ag510
a(F4.226234402283284
F4.594118933746187
tp519
ag516
aa(lp520
(F7.097365368189314
F3.5634090429673377
tp521
a(F7.149645214618249
F3.4728576927405226
tp522
a(F7.184229397757877
F3.4000235722127643
tp523
a(F7.055350920922892
F3.3569014370792223
tp524
aa(lp525
g521
ag524
a(F6.925068570337896
F3.313309572359754
tp526
a(F6.504869159708623
F3.826692931568835
tp527
a(F6.498062056149692
F3.836523637570566
tp528
a(F6.50022935585825
F3.837661495355984
tp529
a(F7.043333636484582
F3.6569947475008613
tp530
aa(lp531
g521
ag530
a(F7.065751572459545
F3.6495372927712646
tp532
a(F7.100149775967849
F3.5770948444373807
tp533
aa(lp534
g521
ag533
ag522
aa(lp535
(F7.884495423661175
F3.834259574889566
tp536
a(F7.834203198189227
F3.872020045882137
tp537
a(F7.8355269668391605
F3.9049790076421473
tp538
aa(lp539
g536
a(F7.925610403506059
F3.774882003265602
tp540
a(F7.930851227044301
F3.649839741730078
tp541
a(F7.823841439037837
F3.614034767522205
tp542
ag537
aa(lp543
g536
ag538
a(F7.85962722375073
F4.505023015328093
tp544
a(F7.895801042956537
F4.486111799659419
tp545
a(F7.924376761085014
F3.8043158197503564
tp546
aa(lp547
g536
ag546
ag540
aa(lp548
(F2.564504221994913
F3.335085815014147
tp549
a(F2.4854747354666546
F3.3544973187188654
tp550
a(F2.4461163395283734
F3.4581090273019774
tp551
aa(lp552
g549
a(F2.6480253334263932
F3.2482945386767677
tp553
a(F2.5566384645352067
F3.167157479729983
tp554
ag550
aa(lp555
g549
a(F2.706497820570741
F3.300208842052726
tp556
ag553
aa(lp557
g549
ag551
a(F2.4246228818433755
F3.514690954004317
tp558
a(F2.6284334334434254
F3.8101311675746508
tp559
ag263
ag556
aa(lp560
(F1.0700960612989205
F3.707434772734869
tp561
ag459
ag458
aa(lp562
g561
a(F0.6396321148441182
F4.0882771016438895
tp563
a(F0.6156032543047345
F4.129896308946089
tp564
a(F0.8421142786238244
F4.226511448317185
tp565
ag495
aa(lp566
g561
ag495
ag494
ag459
aa(lp567
g561
ag458
a(F0.8282705768009259
F3.7615457012730498
tp568
ag563
aa(lp569
(F5.768068943163873
F7.8755999762067574
tp570
a(F5.7208138070586845
F8.0
tp571
a(F5.945395668896699
F8.0
tp572
a(F5.878163193462477
F7.857768598596007
tp573
aa(lp574
g570
ag573
a(F5.862319335217542
F7.824250657344115
tp575
a(F5.789838339910828
F7.818291634796893
tp576
aa(lp577
g570
ag576
a(F5.5945102972314515
F7.802232746456499
tp578
a(F5.526698755482905
F7.824790643994377
tp579
a(F5.5514889481026355
F7.910678281062797
tp580
aa(lp581
g570
ag580
a(F5.577270337522103
F8.0
tp582
ag571
aa(lp583
(F7.287122881551015
F6.765260611293064
tp584
a(F7.0927991162085675
F6.428681976601851
tp585
a(F7.090580157270353
F6.430348018098998
tp586
a(F7.038882274257668
F6.6822004659823575
tp587
aa(lp588
g584
ag587
a(F7.0160290952270135
F6.793532473124214
tp589
a(F7.103233763437893
F6.900455960270082
tp590
a(F7.304445828136034
F6.795264834915117
tp591
aa(lp592
g584
a(F7.332680649270042
F6.780504027138813
tp593
a(F7.50030338529079
F6.692872978456155
tp594
a(F7.182423046583256
F6.3613904262400265
tp595
ag585
aa(lp596
g584
ag591
ag593
aa(lp597
(F5.79601841937591
F2.9355346763647647
tp598
a(F5.836117339248302
F2.9489515872711554
tp599
a(F5.895418369076891
F2.9179497580730116
tp600
a(F5.903573287919026
F2.8898803433074773
tp601
aa(lp602
g598
ag601
a(F5.975498483304959
F2.6423121969577528
tp603
a(F5.925344754161672
F2.509584204070528
tp604
a(F5.666326621601321
F2.573205159496916
tp605
a(F5.6287116387587295
F2.8795546106492957
tp606
aa(lp607
g598
ag606
a(F5.612260901355917
F3.0135351150534344
tp608
aa(lp609
g598
ag608
a(F5.605379659687432
F3.069578331056194
tp610
ag599
aa(lp611
g527
a(F6.497195286041288
F3.8360685730900412
tp612
ag528
aa(lp613
g527
a(F6.872525971621871
F3.2957290647548967
tp614
a(F6.627943611070242
F3.213892951681553
tp615
a(F6.308343848204055
F3.4966509364353557
tp616
a(F6.303989541611642
F3.511638558032181
tp617
a(F6.409105750489929
F3.789820532985014
tp618
ag612
aa(lp619
g527
ag526
ag614
aa(lp620
(F2.875463561580319
F1.8473032402306901
tp621
ag179
ag22
ag21
aa(lp622
g621
ag21
ag27
a(F2.672009698409005
F1.5978441577080713
tp623
aa(lp624
g621
ag623
a(F2.6527453240579675
F1.691692871707824
tp625
a(F2.8573985165484057
F1.873392478491767
tp626
aa(lp627
g621
ag626
ag207
ag179
aa(lp628
(F3.11347982549377
F2.393160078104393
tp629
a(F3.195957075302593
F2.678909213120931
tp630
a(F3.279756270243043
F2.5918289652617625
tp631
a(F3.19138719865397
F2.404882748991909
tp632
ag168
aa(lp633
g629
ag168
ag167
aa(lp634
g629
ag167
ag154
a(F3.048213066916296
F2.3984113168148795
tp635
aa(lp636
g629
ag635
ag483
a(F3.125086528568298
F2.7525546076849565
tp637
ag630
aa(lp638
(F4.876323557835464
F5.969393174870755
tp639
a(F4.886375570180731
F5.9906583713931765
tp640
a(F5.0
F6.0
tp641
aa(lp642
g639
a(F4.863211712144993
F5.941654850861353
tp643
a(F4.796932134143716
F5.913384215092958
tp644
a(F4.772183514514169
F5.943621119666853
tp645
aa(lp646
g639
ag645
a(F4.74331108939974
F5.978896330004631
tp647
ag640
aa(lp648
g639
ag641
ag643
aa(lp649
(F6.070863983540482
F4.314061992111729
tp650
a(F6.092572744662192
F4.3304207169777085
tp651
a(F6.448884727678129
F3.895092541497332
tp652
a(F6.435339950064096
F3.8592473276413806
tp653
a(F6.178142945357482
F3.9448053835359778
tp654
aa(lp655
g650
a(F5.871777948697969
F4.164039904237249
tp656
a(F5.832755129172191
F4.2462217712831904
tp657
a(F5.968726556310413
F4.481731191464242
tp658
a(F6.051550199314709
F4.380540473457754
tp659
aa(lp660
g650
ag654
a(F5.937935871918313
F4.02471164153859
tp661
ag656
aa(lp662
g650
ag659
ag651
aa(lp663
(F1.6792687482068809
F3.552520502165259
tp664
ag505
ag503
aa(lp665
g664
a(F1.6978806162378404
F3.5479489889098175
tp666
a(F1.9035850049587166
F3.2508741242079893
tp667
a(F1.8000327360308024
F3.1589361176867072
tp668
ag505
aa(lp669
g664
a(F1.6855354109037701
F3.56577772959513
tp670
ag666
aa(lp671
g664
ag503
ag502
ag670
aa(lp672
(F0.6902238589718053
F1.460179862633207
tp673
ag46
ag45
aa(lp674
g673
ag45
a(F0.9911661158028364
F1.7772660896452788
tp675
a(F1.137029061889824
F1.6482174560795597
tp676
a(F1.046141891591805
F1.516469002464936
tp677
a(F0.7263651810816271
F1.4373322672250175
tp678
aa(lp679
g673
ag678
a(F0.6732051414934462
F1.4241764874575615
tp680
aa(lp681
g673
ag680
a(F0.5651246268219018
F1.3974292641825758
tp682
a(F0.5649497532149736
F1.3988534954185088
tp683
ag46
aa(lp684
(F4.683052978613006
F4.442155619352644
tp685
ag218
ag217
aa(lp686
g685
ag217
a(F4.518366399666844
F4.200997396228439
tp687
ag512
ag517
aa(lp688
g685
ag517
a(F4.50983280949964
F4.702810170138859
tp689
a(F4.7095867914163225
F4.911111696462566
tp690
a(F4.767956634680869
F4.8594704214382505
tp691
aa(lp692
g685
ag691
a(F4.89504843648304
F4.747029093465932
tp693
ag218
aa(lp694
g331
a(F0.5132641710186953
F2.200078014176228
tp695
ag234
ag238
a(F0.5643186746350645
F2.5982607144224588
tp696
ag332
aa(lp697
g331
ag330
ag51
a(F0.6102526395034551
F2.1142698657371732
tp698
aa(lp699
g331
ag698
ag695
aa(lp700
(F2.959442874318897
F0.9902157340808653
tp701
a(F3.0
F1.0037859585062197
tp702
a(F3.0
F0.4912688402670524
tp703
ag115
a(F2.958980335968443
F0.978699534625675
tp704
aa(lp705
g701
a(F2.9585107362265806
F0.9899038450380465
tp706
a(F2.9354077858725156
F1.5411235415867246
tp707
a(F2.9825639837901115
F1.5658810989837892
tp708
aa(lp709
g701
ag704
ag706
aa(lp710
g701
ag708
a(F3.0
F1.5750352121471705
tp711
ag702
aa(lp712
(F6.209120805903203
F5.804165162044351
tp713
ag370
a(F5.889669325670145
F6.126360751847329
tp714
ag150
a(F6.243827748942133
F6.20368460523826
tp715
a(F6.377507080495562
F6.010627132903275
tp716
aa(lp717
g713
ag371
ag370
aa(lp718
g713
ag716
a(F6.559796254374146
F5.747368132921167
tp719
aa(lp720
g713
ag719
a(F6.573968869609832
F5.726900277180251
tp721
a(F6.3918533837507585
F5.536992004475825
tp722
a(F6.127815700541232
F5.624825651232674
tp723
ag371
aa(lp724
(F6.287280360806681
F5.033482565796141
tp725
a(F6.353853637025569
F5.148790862633571
tp726
a(F6.445359711255185
F4.9560795178967645
tp727
a(F6.3752470775158585
F4.96743528665035
tp728
aa(lp729
g725
a(F6.2679491924311215
F5.000000000000003
tp730
a(F6.219034219769225
F5.084723217901251
tp731
aa(lp732
g725
ag731
a(F6.120990903971296
F5.254539222205784
tp733
a(F6.222819700511554
F5.360725309409238
tp734
a(F6.263258097110841
F5.339584626556991
tp735
ag726
aa(lp736
g725
ag728
a(F6.277621431167891
F4.983247191084984
tp737
ag730
aa(lp738
g719
a(F6.577603996156925
F5.744483908111405
tp739
a(F6.581356865983764
F5.734604408564255
tp740
ag721
aa(lp741
g719
ag716
a(F6.445047883065706
F6.093440338705135
tp742
ag739
aa(lp743
(F4.618870683031201
F4.991370529453077
tp744
a(F4.622693303944955
F5.001486802163365
tp745
a(F4.835243938552526
F5.190198086164849
tp746
a(F4.797010904144772
F5.002276718276385
tp747
ag690
aa(lp748
g744
a(F4.615078221720544
F4.994725815789466
tp749
ag745
aa(lp750
g744
ag689
ag516
ag519
a(F4.271340145158363
F4.689540870526835
tp751
ag749
aa(lp752
g744
ag690
ag689
aa(lp753
(F6.115068615952001
F7.162782801272747
tp754
a(F6.060470236797488
F7.105848137925564
tp755
a(F6.038609787232357
F7.163396177571031
tp756
a(F6.086847932168822
F7.183971490009133
tp757
aa(lp758
g754
a(F6.329455499412461
F7.001816576013693
tp759
a(F6.15105497300614
F6.867382136799739
tp760
ag755
aa(lp761
g754
a(F6.168984402321962
F7.219005663445728
tp762
a(F6.34791609157482
F7.2953264966018105
tp763
a(F6.566978846274657
F7.180803256035672
tp764
ag759
aa(lp765
g754
ag757
ag762
aa(lp766
(F7.091414449464037
F6.426283663448774
tp767
ag585
ag595
a(F7.177866970031223
F6.3566393935410535
tp768
a(F7.108056981452129
F6.3452075694982835
tp769
aa(lp770
g767
ag586
ag585
aa(lp771
g767
a(F7.037979707703645
F6.333731975830452
tp772
a(F6.662634732612435
F6.272266878959411
tp773
a(F6.623804436143665
F6.3126175272365
tp774
a(F6.86063259109317
F6.602997534420152
tp775
ag586
aa(lp776
g767
ag769
ag772
aa(lp777
(F3.8207162986007797
F2.879116241104374
tp778
a(F3.8279625392483054
F2.8845766750923367
tp779
a(F3.8183053080649394
F2.8727357397905435
tp780
aa(lp781
g778
a(F3.3744992633452795
F2.54286758696273
tp782
a(F3.724465187959315
F3.0501720748736734
tp783
a(F3.8716886048097114
F3.014010535337529
tp784
aa(lp785
g778
ag780
a(F3.7124046269981275
F2.74288867605992
tp786
a(F3.423901265569166
F2.442040152498378
tp787
a(F3.3546132035088085
F2.51404110217558
tp788
ag782
aa(lp789
g778
ag784
a(F3.923205968541061
F3.0013566571351085
tp790
ag779
aa(lp791
(F2.718715230833652
F2.0486988732708515
tp792
a(F2.7043333769588793
F2.023788771652714
tp793
a(F2.6874600046029533
F2.0251463709578292
tp794
aa(lp795
g792
a(F2.730080421453508
F2.057263158692634
tp796
a(F2.7561457475348856
F2.019620047297761
tp797
ag793
aa(lp798
g792
a(F2.7265791676345925
F2.0623196113575917
tp799
ag796
aa(lp800
g792
ag794
a(F2.5825647347021796
F2.033586043983662
tp801
a(F2.567660726420078
F2.1061927108407983
tp802
a(F2.7225418336149696
F2.068150262152617
tp803
ag799
aa(lp804
(F6.855619371991205
F2.0920746791216422
tp805
a(F6.815296241931298
F2.176994993792148
tp806
a(F6.837385179256493
F2.285565589394966
tp807
ag8
ag6
aa(lp808
g805
a(F6.798946705250541
F2.0966344536209665
tp809
ag806
aa(lp810
g805
a(F6.8993396440586325
F2.0
tp811
a(F6.7792862034578025
F2.0
tp812
ag809
aa(lp813
g805
ag6
ag5
ag811
aa(lp814
g483
ag635
a(F2.9830819837490883
F2.4036516393410485
tp815
ag484
aa(lp816
g483
ag481
ag637
aa(lp817
(F1.8452994616207472
F0.0
tp818
a(F1.896557140708231
F0.08878090445758269
tp819
a(F2.2665614010876176
F0.05901106851816218
tp820
a(F2.2442629764483586
F0.0
tp821
aa(lp822
(F1.6064330655880308
F5.160177088634618
tp823
a(F1.847418151867068
F5.0341931300808165
tp824
a(F1.971274465631227
F4.708139082857089
tp825
a(F1.8114132202813693
F4.639952483348557
tp826
a(F1.423351622141152
F4.931317372899495
tp827
a(F1.480406510126141
F5.12898866926263
tp828
aa(lp829
g823
ag828
a(F1.5047517661569112
F5.2133347873579075
tp830
aa(lp831
g823
ag830
a(F1.5800962664487157
F5.474371931983131
tp832
a(F1.69469050307393
F5.436251503195235
tp833
a(F1.7829660153567093
F5.203864576959448
tp834
aa(lp835
g823
ag834
ag824
aa(lp836
(F6.924135384270903
F7.688358070307172
tp837
a(F7.174352913629683
F7.647831673708582
tp838
a(F6.867530574739067
F7.516960855728778
tp839
a(F6.853396575753219
F7.585816329793231
tp840
aa(lp841
g837
ag840
a(F6.8291912112669815
F7.703735670828376
tp842
aa(lp843
g837
a(F6.961896028106177
F7.743095239662068
tp844
a(F7.4849378960076125
F7.872535015790452
tp845
a(F7.202911684195233
F7.660013021644085
tp846
ag838
aa(lp847
g837
ag842
a(F6.8279178520681505
F7.7099389931420115
tp848
ag844
aa(lp849
g740
a(F6.596818625890238
F5.693901038332303
tp850
ag721
aa(lp851
g740
a(F6.58905276028946
F5.742629612942766
tp852
a(F6.687500699230931
F5.7266845261693495
tp853
a(F6.635947500580755
F5.637391766814555
tp854
ag850
aa(lp855
g740
ag739
ag852
aa(lp856
(F7.939001904445534
F6.4812800190465385
tp857
a(F7.938303530901363
F6.463892035929002
tp858
a(F7.913143265917875
F6.477045504593083
tp859
aa(lp860
g857
a(F7.959442874318897
F6.990215734080865
tp861
ag141
a(F8.0
F7.0020328270285255
tp862
a(F8.0
F6.491268840267053
tp863
aa(lp864
g857
ag863
a(F8.0
F6.431637901343932
tp865
ag858
aa(lp866
g857
ag859
a(F7.810098350967836
F6.530916084282043
tp867
a(F7.793179617886726
F6.934584826673488
tp868
ag861
aa(lp869
(F4.892325126739136
F3.3191297206666124
tp870
a(F4.896750173892592
F3.4293037755699425
tp871
a(F4.905162576602821
F3.435642975703331
tp872
a(F5.258207262224589
F3.251075674349622
tp873
a(F5.217746947292325
F3.1809963531967025
tp874
aa(lp875
g870
a(F4.801631642263336
F3.3576268208208857
tp876
ag871
aa(lp877
g870
a(F4.878964469567757
F2.986478400647549
tp878
a(F4.593643321221057
F2.8366814488421097
tp879
a(F4.3677062475351445
F2.892176916869974
tp880
a(F4.400977961810688
F3.0557126172272016
tp881
ag876
aa(lp882
g870
ag874
a(F5.203950231232674
F3.157099740003786
tp883
ag878
aa(lp884
(F7.763054708225383
F2.100577309177762
tp885
a(F7.673877202823856
F2.1384309143931057
tp886
a(F7.590460263205485
F2.258900274357001
tp887
a(F7.764982373184556
F2.1485719762812145
tp888
aa(lp889
g885
ag11
ag9
ag886
aa(lp890
g885
a(F7.810894149002037
F2.080270671346521
tp891
a(F7.829074291186548
F2.0419833808318826
tp892
ag11
aa(lp893
g885
ag888
a(F7.784244321281771
F2.1363950781710286
tp894
ag891
aa(lp895
(F0.707635478423426
F0.23677151899408866
tp896
a(F0.7141251824832662
F0.18391712091571621
tp897
a(F0.5815499006687034
F0.19458387482064374
tp898
aa(lp899
g896
ag473
ag469
ag897
aa(lp900
g896
a(F0.6920927576825917
F0.3633568211407079
tp901
a(F0.9561859927326346
F0.502008869305266
tp902
a(F1.2354992735235801
F0.4334029473509087
tp903
ag473
aa(lp904
g896
ag898
a(F0.39865614780705433
F0.2092991567783525
tp905
ag901
aa(lp906
(F4.485693781493744
F5.109195498898544
tp907
a(F4.39751377329445
F4.956463244485527
tp908
a(F4.474423357492848
F5.119166727754396
tp909
aa(lp910
g907
ag749
ag751
ag908
aa(lp911
g907
ag909
a(F4.542979284818964
F5.2641979132814525
tp912
a(F4.572430476267466
F5.259427861127225
tp913
aa(lp914
g907
ag913
a(F4.711641223166831
F5.236880640098837
tp915
ag745
ag749
aa(lp916
(F2.522755851600108
F4.324952203227178
tp917
a(F2.5759229389561593
F4.0659423498804825
tp918
a(F2.290315900411912
F4.28038218015286
tp919
a(F2.4255587714415965
F4.366209915963572
tp920
aa(lp921
g917
a(F2.5040605411784203
F4.416028653929927
tp922
a(F2.7415571268655974
F4.566748570307857
tp923
a(F2.8100983509678352
F4.530916084282044
tp924
a(F2.824091792446249
F4.197042685119163
tp925
aa(lp926
g917
ag925
a(F2.828172915856486
F4.099670030402242
tp927
a(F2.778491038886135
F4.027652049844008
tp928
a(F2.7090428689154904
F3.9659930792607847
tp929
ag918
aa(lp930
g917
ag920
ag922
aa(lp931
(F5.554665185928261
F6.090829907542496
tp932
ag93
a(F5.709829569077858
F5.966691544349062
tp933
a(F5.632044881275194
F5.8976310668868495
tp934
a(F5.609745330620715
F5.901242805984864
tp935
aa(lp936
g932
ag935
a(F5.250551784876207
F5.959419465820805
tp937
a(F5.240728848724855
F6.039420860777294
tp938
aa(lp939
g932
ag938
a(F5.235878492807808
F6.0789238396646965
tp940
a(F5.529574358588828
F6.177193101712135
tp941
aa(lp942
g932
ag941
ag94
ag93
aa(lp943
(F7.876941007905329
F4.936098603877025
tp944
a(F7.868485843113217
F4.725583380486673
tp945
a(F7.42580030585734
F4.7972827921836325
tp946
ag290
a(F7.428720628439075
F5.192072180166384
tp947
a(F7.8308642358532925
F5.058296807159812
tp948
a(F7.873684349241975
F5.013800125659543
tp949
aa(lp950
g944
a(F7.88588230286966
F4.722765768829697
tp951
ag945
aa(lp952
g944
ag949
a(F7.879806312689539
F5.007438464371777
tp953
aa(lp954
g944
ag953
a(F8.0
F4.882538743204527
tp955
a(F8.0
F4.704282735028373
tp956
ag951
aa(lp957
(F7.359775477677414
F7.21500717923162
tp958
ag590
a(F6.98095922843088
F6.964379542382012
tp959
a(F6.966941725367439
F7.032667492565076
tp960
a(F7.331906116644867
F7.224278081712344
tp961
aa(lp962
g958
ag961
a(F7.393868080155855
F7.256808839826872
tp963
aa(lp964
g958
ag963
a(F7.647927893678559
F7.3901932239234736
tp965
a(F7.5166542278254695
F7.162820564970103
tp966
aa(lp967
g958
ag966
ag591
ag590
aa(lp968
(F5.180579052940624
F5.16092928481931
tp969
a(F5.114742871242664
F5.06549430645926
tp970
a(F5.101451335447988
F5.173745178530934
tp971
aa(lp972
g969
a(F5.246892985037841
F5.150188771478495
tp973
a(F5.35953550709384
F4.762470667468786
tp974
a(F5.179112024674589
F4.541249621634213
tp975
ag970
aa(lp976
g969
a(F5.225045753269158
F5.225387436464029
tp977
ag973
aa(lp978
g969
ag971
a(F5.0855596502028595
F5.3031725684915845
tp979
a(F5.1752688955415245
F5.396720504558192
tp980
ag977
aa(lp981
(F0.02358716469280031
F1.2634122912309318
tp982
a(F0.1465722973105723
F1.2112081996664892
tp983
a(F0.12165164393937422
F1.0052750168066726
tp984
a(F0.0
F0.8972676331962885
tp985
a(F0.0
F1.2575750581054286
tp986
aa(lp987
g982
a(F0.0
F1.2734244486288142
tp988
a(F0.0
F1.5607922707476798
tp989
a(F0.21161238693961335
F1.7486705394892523
tp990
a(F0.15688155539375767
F1.296399317987942
tp991
aa(lp992
g982
ag986
ag988
aa(lp993
g982
ag991
ag983
aa(lp994
(F4.819694170420401
F5.885574441089079
tp995
ag644
ag643
a(F4.843991376836312
F5.900993917157031
tp996
aa(lp997
g995
a(F4.114207376059632
F5.437858907225176
tp998
a(F4.017087732505758
F5.523783109561956
tp999
a(F4.035839685658679
F5.588750775260537
tp1000
ag644
aa(lp1001
g995
a(F4.830475911018464
F5.87240172816674
tp1002
a(F4.811812778724543
F5.832919566553496
tp1003
a(F4.240748389041762
F5.3259048760373835
tp1004
ag998
aa(lp1005
g995
ag996
ag1002
aa(lp1006
g377
a(F1.2476172318129164
F2.140993369802028
tp1007
a(F1.3121029846946568
F2.062207175442601
tp1008
ag378
aa(lp1009
g377
ag382
a(F1.0982855466110788
F2.3234410369000447
tp1010
ag1007
aa(lp1011
(F2.6367756934534414
F1.7694908457284626
tp1012
a(F2.622510191579689
F1.8389869519095927
tp1013
a(F2.822234061110384
F1.9241764015112148
tp1014
a(F2.8400280040931265
F1.8984786843308445
tp1015
aa(lp1016
g1012
a(F2.5116794260352755
F1.6901023403741509
tp1017
a(F2.589511783593939
F1.8249119381386232
tp1018
ag1013
aa(lp1019
g1012
ag1015
ag626
ag625
aa(lp1020
g1012
ag625
a(F2.4318763056759556
F1.4955961809970637
tp1021
a(F2.4189808524672998
F1.5295437011652553
tp1022
ag1017
aa(lp1023
g153
ag163
a(F2.9188484118264335
F2.3953397110307257
tp1024
ag486
ag815
aa(lp1025
g153
ag815
ag635
ag154
aa(lp1026
(F0.0680878952962619
F0.235896046862636
tp1027
a(F0.03397293258732008
F0.11770198598163471
tp1028
a(F0.012602296652005155
F0.10413976801629342
tp1029
a(F0.028927840149777756
F0.23904679008892782
tp1030
aa(lp1031
g1027
a(F0.19860646760887324
F0.6880882480862571
tp1032
a(F0.3120825966417064
F0.660215837472399
tp1033
ag338
aa(lp1034
g1027
ag338
ag337
ag1028
aa(lp1035
g1027
ag1030
a(F0.08659716027109199
F0.7156003727357434
tp1036
ag1032
aa(lp1037
(F1.683642901097083
F1.1646143825769777
tp1038
a(F1.6200996801456347
F1.2208326755439842
tp1039
a(F1.8555436467973154
F1.3982524301866255
tp1040
a(F1.9226346950022717
F1.3162831869439044
tp1041
aa(lp1042
g1038
a(F1.4482159764822757
F1.0152079130549496
tp1043
a(F1.4300775635258203
F1.077640739956018
tp1044
ag1039
aa(lp1045
g1038
a(F1.8716927405735144
F0.9982419385964889
tp1046
a(F1.8287489673268582
F0.9601146725725256
tp1047
a(F1.6389086116499552
F0.8604462576133041
tp1048
a(F1.4603912847985956
F0.9733002269522677
tp1049
ag1043
aa(lp1050
g1038
ag1041
a(F2.0519542354820235
F1.158285582893375
tp1051
ag1046
aa(lp1052
(F0.6795013269299806
F0.9849932477660279
tp1053
a(F0.7041631523136574
F1.0207425988236012
tp1054
a(F1.0642986870330815
F1.1743534218905884
tp1055
a(F0.8506201295168366
F0.9123576254879642
tp1056
aa(lp1057
g1053
ag1056
a(F0.7124046269981309
F0.7428886760599231
tp1058
a(F0.6530870433028464
F0.6810328717199836
tp1059
a(F0.6253955007128716
F0.9065623876977502
tp1060
aa(lp1061
g1053
a(F0.6498540107167697
F0.9975777868667388
tp1062
ag1054
aa(lp1063
g1053
ag1060
a(F0.6159935564119426
F0.9831350791810369
tp1064
ag1062
aa(lp1065
(F5.220403843499024
F6.814401767582865
tp1066
a(F5.237123390813785
F6.821533258859695
tp1067
a(F5.230178393331556
F6.797471750651807
tp1068
aa(lp1069
g1066
a(F5.149297161331111
F6.784072197406222
tp1070
a(F5.125360342828752
F6.979021939672982
tp1071
aa(lp1072
g1066
ag1071
a(F5.121892494452926
F7.007265298205406
tp1073
a(F5.156881555393758
F7.296399317987943
tp1074
a(F5.201226570925753
F7.307373599847828
tp1075
a(F5.2895779233835585
F7.003266250008804
tp1076
ag1067
aa(lp1077
g1066
ag1068
a(F5.172281200449033
F6.596882220515744
tp1078
ag1070
aa(lp1079
g606
a(F5.392833145950921
F2.8006307709845992
tp1080
a(F5.353189235325614
F3.123504512876764
tp1081
ag608
aa(lp1082
g606
ag605
ag410
ag1080
aa(lp1083
(F6.841264962889647
F7.387492670097864
tp1084
a(F6.887027860300548
F7.421977486786287
tp1085
a(F6.897979280484361
F7.3686263276988635
tp1086
aa(lp1087
g1084
a(F6.73985434284387
F7.42122749336332
tp1088
a(F6.780199370595508
F7.479710940475692
tp1089
ag839
ag1085
aa(lp1090
g1084
ag1086
a(F6.910327080360325
F7.308472537185388
tp1091
a(F6.644934276119359
F7.140049142184715
tp1092
a(F6.572136631933032
F7.178106830855809
tp1093
a(F6.581594715488696
F7.191817103477684
tp1094
aa(lp1095
g1084
ag1094
ag1088
aa(lp1096
g772
ag769
a(F7.118432547876281
F6.294661751181934
tp1097
a(F6.880175007833845
F6.0462090856942865
tp1098
a(F6.875051917140978
F6.051532764610974
tp1099
aa(lp1100
g772
ag1099
ag773
aa(lp1101
(F2.368156430354847
F3.663339936689644
tp1102
ag558
a(F2.4108621150468457
F3.4947435869551553
tp1103
a(F2.303694115700931
F3.606107615598213
tp1104
aa(lp1105
g1102
ag1104
ag427
ag426
a(F2.1641731976622944
F4.200329586743577
tp1106
aa(lp1107
g1102
ag1106
ag919
ag918
a(F2.613797776408111
F3.881430529094362
tp1108
aa(lp1109
g1102
ag1108
ag559
ag558
aa(lp1110
(F2.8639146376079117
F5.246898383663995
tp1111
a(F2.77780833488721
F5.301332528620831
tp1112
a(F2.771638667940597
F5.448536322508563
tp1113
a(F2.854602975422822
F5.4690679128958335
tp1114
aa(lp1115
g1111
ag1114
a(F3.0221180023660366
F5.510523690944095
tp1116
a(F3.417078860872339
F5.446553990524768
tp1117
a(F3.4015465418328477
F5.318201822170578
tp1118
a(F3.013167989619289
F5.152544331266302
tp1119
aa(lp1120
g1111
ag1119
a(F2.870421152326413
F5.091657645413845
tp1121
aa(lp1122
g1111
ag1121
a(F2.8091459006208765
F5.065521535697659
tp1123
a(F2.7873883917842237
F5.072759295559198
tp1124
ag1112
aa(lp1125
(F5.652454813825281
F5.894325379139092
tp1126
a(F5.714347421772555
F5.958866393940736
tp1127
a(F5.721952261143957
F5.9456944257660655
tp1128
ag367
aa(lp1129
g1126
ag367
ag366
a(F5.621218376403802
F5.861752323376314
tp1130
aa(lp1131
g1126
ag934
ag933
ag1127
aa(lp1132
g1126
ag1130
a(F5.61515201451666
F5.8826328779501065
tp1133
ag934
aa(lp1134
(F4.860642228534793
F5.212747743204663
tp1135
a(F4.97236463715313
F5.311939539178505
tp1136
a(F4.967684355565491
F5.195410701695542
tp1137
aa(lp1138
g1135
ag746
a(F4.840495591758006
F5.216010786342514
tp1139
aa(lp1140
g1135
ag1139
a(F4.9454585803626925
F5.7319203577850795
tp1141
a(F4.98718524033982
F5.680940341331575
tp1142
ag1136
aa(lp1143
g1135
ag1137
a(F4.967048961260863
F5.179590764737663
tp1144
ag747
ag746
aa(lp1145
g854
ag853
a(F7.114832391092235
F5.65747189479257
tp1146
a(F6.993659705306369
F5.3367976866760864
tp1147
a(F6.79932540883596
F5.401444102829411
tp1148
aa(lp1149
g854
a(F6.625293936852453
F5.618939253155462
tp1150
ag850
aa(lp1151
g854
ag1148
a(F6.6946905030739305
F5.436251503195234
tp1152
ag1150
aa(lp1153
g579
a(F5.2326606604516765
F7.922604099475788
tp1154
a(F5.237374090496827
F7.961553786585791
tp1155
ag580
aa(lp1156
g579
ag578
a(F5.518381199494797
F7.79597379529292
tp1157
aa(lp1158
g579
ag1157
a(F5.407675944764129
F7.786872166566045
tp1159
a(F5.2276260108866985
F7.880999997285676
tp1160
ag1154
aa(lp1161
(F6.838377079646627
F4.8924245941894515
tp1162
a(F6.8207162986007805
F4.879116241104374
tp1163
a(F6.826473614259066
F4.894352534891408
tp1164
aa(lp1165
g1162
a(F6.905394166395306
F4.8815701946459065
tp1166
a(F7.07129789313367
F4.444825551530292
tp1167
a(F6.748260898266399
F4.687368587948859
tp1168
ag1163
aa(lp1169
g1162
a(F6.887274237086876
F4.9292712452170635
tp1170
ag1166
aa(lp1171
g1162
ag1164
a(F6.863408569660948
F4.992098058137851
tp1172
ag1170
aa(lp1173
(F2.7486949053982728
F5.814909028737292
tp1174
a(F2.7562570440890566
F5.81553074971081
tp1175
a(F2.7673109127136164
F5.551793434106572
tp1176
a(F2.6344895803874313
F5.573305795788018
tp1177
aa(lp1178
g1174
a(F2.7556650814588632
F5.829654550194407
tp1179
ag1175
aa(lp1180
g1174
ag356
ag355
a(F2.748525491755265
F6.0
tp1181
ag1179
aa(lp1182
g1174
ag1177
a(F2.2538507239023233
F5.634955838046371
tp1183
ag356
aa(lp1184
(F7.861528453357868
F4.552359499631338
tp1185
a(F7.815402795341903
F4.5281429877784705
tp1186
a(F7.440852746021786
F4.723953021579615
tp1187
ag946
ag945
aa(lp1188
g1185
ag544
ag1186
aa(lp1189
g1185
a(F7.892346309787527
F4.568539235977874
tp1190
ag545
ag544
aa(lp1191
g1185
ag945
ag951
ag1190
aa(lp1192
(F5.29489251610686
F5.598293189808656
tp1193
a(F5.281484273725246
F5.707494560754778
tp1194
a(F5.344331217725462
F5.6421869230785555
tp1195
aa(lp1196
g1193
a(F5.284527246188642
F5.589090472541307
tp1197
ag641
ag1194
aa(lp1198
g1193
a(F5.298500199681218
F5.568910964976573
tp1199
ag1197
aa(lp1200
g1193
ag1195
a(F5.377554904516967
F5.607662404285081
tp1201
a(F5.316066144801525
F5.543542518525704
tp1202
ag1199
aa(lp1203
(F0.899430092052804
F5.529789311077881
tp1204
a(F1.008427709128652
F5.24285105895943
tp1205
a(F0.665603478942171
F5.50025077189773
tp1206
a(F0.6828780326600934
F5.64299999185703
tp1207
aa(lp1208
g1204
a(F0.9891578475001981
F5.482880774130823
tp1209
a(F1.2190342197692257
F5.084723217901251
tp1210
ag1205
aa(lp1211
g1204
a(F0.8504077949785296
F5.658841418955941
tp1212
a(F0.8858830250366118
F5.66175801378041
tp1213
ag1209
aa(lp1214
g1204
ag1207
a(F0.6831307997481174
F5.645088746521029
tp1215
ag1212
aa(lp1216
g282
a(F0.378538136801126
F5.20280053546981
tp1217
a(F0.5257661479564015
F4.892739064124602
tp1218
a(F0.33537761820958883
F4.845622666413046
tp1219
a(F0.20022929818719204
F5.310806235129052
tp1220
aa(lp1221
g282
ag281
ag1217
aa(lp1222
g282
ag1220
ag273
aa(lp1223
g327
a(F0.7821203302697931
F2.709719448350647
tp1224
a(F0.8417015272503258
F2.916143347545889
tp1225
ag104
ag328
aa(lp1226
g327
ag334
ag1224
aa(lp1227
(F7.499166855028324
F2.736766827679242
tp1228
a(F7.64038322610798
F2.4393658409280894
tp1229
a(F7.409042917314519
F2.722008466892255
tp1230
aa(lp1231
g1228
a(F7.568109326220201
F2.748056590301768
tp1232
a(F7.774689158314437
F2.3902498252955033
tp1233
a(F7.770287336544477
F2.2806540319536692
tp1234
ag1229
aa(lp1235
g1228
ag1230
a(F7.022310592959232
F3.19450303677974
tp1236
ag524
ag523
aa(lp1237
g1228
ag523
a(F7.190487149398205
F3.4021173866222245
tp1238
ag1232
aa(lp1239
(F2.5282402885982047
F2.298234109511544
tp1240
a(F2.5134994709957703
F2.3700457733675737
tp1241
a(F2.590460263205485
F2.258900274357001
tp1242
aa(lp1243
g1240
a(F2.550273297566629
F2.190897659359957
tp1244
a(F2.2309699065085056
F2.3264339075944576
tp1245
a(F2.326331195102192
F2.4258757398706505
tp1246
aa(lp1247
g1240
ag1242
a(F2.673877202823857
F2.1384309143931057
tp1248
ag1244
aa(lp1249
g1240
ag1246
a(F2.3535885782231483
F2.4542994761747083
tp1250
a(F2.4611519952863765
F2.445645129125374
tp1251
ag1241
aa(lp1252
(F4.463612997276691
F3.3635736521893227
tp1253
ag881
a(F4.229128617168182
F2.9262148475643297
tp1254
a(F4.028149008913957
F2.9755801741225993
tp1255
a(F3.9883664982373808
F3.005449728041077
tp1256
aa(lp1257
g1253
a(F4.489370123380381
F3.49017397165806
tp1258
a(F4.580361894328944
F3.451550256408082
tp1259
aa(lp1260
g1253
ag1259
ag876
ag881
aa(lp1261
g1253
ag1256
a(F3.974311433813122
F3.016002568912813
tp1262
a(F4.4464829659212635
F3.5083784899382717
tp1263
ag1258
aa(lp1264
g1068
ag1067
a(F5.3307713621802115
F6.861477503660081
tp1265
a(F5.359871523060636
F6.761314092924955
tp1266
a(F5.310885391209817
F6.657683129800304
tp1267
aa(lp1268
g1068
ag1267
a(F5.1949343809173705
F6.412386871086183
tp1269
ag1078
aa(lp1270
(F8.0
F5.767770250513971
tp1271
a(F7.986549922223689
F5.757634889931434
tp1272
a(F7.91218001960708
F5.813473392286858
tp1273
a(F7.918342222624705
F5.966898851958807
tp1274
a(F8.0
F6.028432400822353
tp1275
aa(lp1276
(F6.245947586061794
F6.7052688908181715
tp1277
a(F6.278637083631514
F6.671299476758934
tp1278
a(F6.234368429779042
F6.648057913888267
tp1279
a(F6.224465187959315
F6.674128381980071
tp1280
aa(lp1281
g1277
a(F6.190911024778208
F6.762460339987781
tp1282
a(F6.1635302135858385
F6.834540834184793
tp1283
a(F6.374189540247148
F6.968229308091717
tp1284
a(F6.409211804415799
F6.941933848349688
tp1285
aa(lp1286
g1277
ag1285
a(F6.553317460626139
F6.833736261145454
tp1287
a(F6.518116388761843
F6.797028922812536
tp1288
ag1278
aa(lp1289
g1277
ag1280
ag1282
aa(lp1290
g1218
a(F0.5786172107338663
F4.781434984429769
tp1291
a(F0.5198436860018754
F4.295756746557503
tp1292
a(F0.4700940634337436
F4.381925620502883
tp1293
ag1219
aa(lp1294
g1218
ag1217
a(F0.5972688498595244
F4.935563825013807
tp1295
a(F0.5941339470230967
F4.9096583838744525
tp1296
aa(lp1297
g1218
ag1296
ag1291
aa(lp1298
g388
a(F5.464792415707869
F6.391108343727931
tp1299
a(F5.431070591545817
F6.449516256500507
tp1300
ag389
aa(lp1301
g388
ag399
ag1299
aa(lp1302
(F6.145720666052616
F2.7870948794785844
tp1303
a(F6.049262180436519
F2.8375221571232663
tp1304
a(F6.128310753694912
F3.04671813613432
tp1305
a(F6.269517885008265
F3.0939653813520835
tp1306
a(F6.427227747451369
F2.99426534497732
tp1307
a(F6.496975210340394
F2.8473775292942136
tp1308
a(F6.5663631287980895
F2.6085427474147433
tp1309
aa(lp1310
g1303
a(F6.541854788725376
F2.5800009648171405
tp1311
a(F6.018500464314028
F2.4942984074830368
tp1312
ag603
a(F6.046174132702888
F2.829349875926513
tp1313
aa(lp1314
g1303
ag1313
ag1304
aa(lp1315
g1303
ag1309
a(F6.573165650242289
F2.5851283150255324
tp1316
ag1311
aa(lp1317
(F0.0
F5.665283764488814
tp1318
ag276
a(F0.049969216676782474
F5.59303338864976
tp1319
a(F0.0
F5.5889251712117405
tp1320
aa(lp1321
(F2.905779302617526
F2.2480377364717556
tp1322
ag177
a(F2.8951312999313368
F2.181637916642626
tp1323
a(F2.8452994616207476
F2.2679491924311246
tp1324
a(F2.877216206849815
F2.3232306167801005
tp1325
aa(lp1326
g1322
ag162
ag177
aa(lp1327
g1322
a(F2.9009079019078436
F2.364265836338036
tp1328
ag1024
ag163
ag162
aa(lp1329
g1322
ag1325
ag1328
aa(lp1330
(F2.084716004389314
F1.6095982918893703
tp1331
a(F2.0734679478330076
F1.6048005891942887
tp1332
a(F1.9896570118350356
F1.7499653885726798
tp1333
a(F2.015077635168956
F1.7562563568398826
tp1334
aa(lp1335
g1331
a(F2.098232856634974
F1.58113186717604
tp1336
a(F2.090498176598351
F1.5753033677081933
tp1337
ag1332
aa(lp1338
g1331
a(F2.2029116841952328
F1.660013021644085
tp1339
ag1336
aa(lp1340
g1331
ag1334
a(F2.30555400282853
F1.8281419903003513
tp1341
a(F2.3323645422521255
F1.7575627471302386
tp1342
ag1339
aa(lp1343
(F7.00421273552358
F3.105549225557566
tp1344
a(F7.283970892646005
F2.7015271373893373
tp1345
a(F7.219078862544648
F2.690900659932515
tp1346
a(F6.9654962473076845
F2.9152516062848246
tp1347
aa(lp1348
g1344
ag1347
ag615
ag614
aa(lp1349
g1344
ag614
ag526
ag1236
aa(lp1350
g1344
ag1236
ag1230
ag1345
aa(lp1351
g84
a(F5.76016525880085
F6.399095683220768
tp1352
a(F6.015643374335151
F6.533224692520611
tp1353
ag144
ag85
aa(lp1354
g84
ag94
a(F5.529959803454387
F6.278235117154418
tp1355
ag1352
aa(lp1356
(F5.780622967321608
F4.356011849142429
tp1357
a(F5.960612976184975
F4.491644049299458
tp1358
ag658
ag657
aa(lp1359
g1357
ag657
a(F5.7424172769397535
F4.089752021369959
tp1360
a(F5.575026137383854
F4.145435642144318
tp1361
a(F5.541058862931748
F4.1754873480202015
tp1362
aa(lp1363
g1357
a(F5.607986572657035
F4.719583251876217
tp1364
a(F5.697578734535868
F4.813009094439825
tp1365
ag1358
aa(lp1366
g1357
ag1362
a(F5.526268181629621
F4.188573037448188
tp1367
a(F5.426867142906432
F4.530713656877776
tp1368
ag1364
aa(lp1369
g338
ag1033
a(F0.4346791127755893
F0.6301032449242041
tp1370
ag339
aa(lp1371
g16
ag196
ag17
aa(lp1372
g973
ag977
a(F5.286791511151477
F5.314893007949907
tp1373
a(F5.337260745388635
F5.253231652998027
tp1374
a(F5.352003120324195
F5.133164644351741
tp1375
aa(lp1376
g973
ag1375
a(F5.39254854591799
F4.802948652246207
tp1377
ag974
aa(lp1378
(F2.295845134159269
F2.6843785548387915
tp1379
a(F2.2667596664743375
F2.6487162480615796
tp1380
a(F2.1194733752293216
F2.77902415104879
tp1381
a(F2.1881122511473583
F2.8399645967492977
tp1382
aa(lp1383
g1379
a(F2.4055851671260875
F2.5258938202703494
tp1384
ag1380
aa(lp1385
g1379
ag1382
a(F2.2601487492126333
F2.9039215925492257
tp1386
a(F2.3677156529641756
F2.7725005172436052
tp1387
aa(lp1388
g1379
ag1387
ag66
a(F2.471059528725768
F2.57679705070916
tp1389
a(F2.414598221200853
F2.517919743619595
tp1390
ag1384
aa(lp1391
g656
ag661
a(F5.763768930926089
F4.0826492714476235
tp1392
aa(lp1393
g656
ag1392
ag1360
ag657
aa(lp1394
g751
a(F4.214028242001552
F4.638656981832459
tp1395
ag908
aa(lp1396
g751
ag519
a(F4.194423713042449
F4.604700941616837
tp1397
ag1395
aa(lp1398
g820
ag819
a(F1.9887111678496023
F0.24839636158851874
tp1399
a(F2.308448251387224
F0.1698614013568427
tp1400
aa(lp1401
g820
ag1400
a(F2.612461726418831
F0.09518852979832201
tp1402
a(F2.5996489017501805
F0.03221148454032208
tp1403
aa(lp1404
g820
ag1403
a(F2.593095401152601
F0.0
tp1405
ag821
aa(lp1406
g774
a(F6.579837099712002
F6.25870824659546
tp1407
a(F6.393838565546722
F6.2282498185385435
tp1408
a(F6.313584807279542
F6.439519328284767
tp1409
a(F6.455869955513157
F6.487127272918393
tp1410
aa(lp1411
g774
ag1410
a(F6.842610549936034
F6.616528865673738
tp1412
ag775
aa(lp1413
g774
ag773
ag1407
aa(lp1414
(F7.161324999532788
F7.46776066033566
tp1415
ag415
ag423
a(F7.182327402642233
F7.274036297162317
tp1416
a(F7.025559740575565
F7.326185957337656
tp1417
aa(lp1418
g1415
ag416
ag415
aa(lp1419
g1415
a(F6.9682694679283355
F7.345243894481831
tp1420
ag1086
ag1085
a(F7.18455393869474
F7.646179468171432
tp1421
ag416
aa(lp1422
g1415
ag1417
ag1420
aa(lp1423
g1313
ag601
ag600
ag1304
aa(lp1424
g1313
ag603
ag601
aa(lp1425
(F1.9938141057459828
F2.8901980814863433
tp1426
a(F2.073422712079765
F3.005597325895647
tp1427
ag1382
ag1381
aa(lp1428
g1426
ag1381
a(F1.9885147702111619
F2.662753660727047
tp1429
a(F1.934679112775589
F2.8044770291880425
tp1430
aa(lp1431
g1426
ag1430
a(F1.855699937500326
F3.012391175526407
tp1432
aa(lp1433
g1426
ag1432
ag668
ag667
ag1427
aa(lp1434
g1361
ag1360
a(F5.718715230833651
F4.048698873270851
tp1435
a(F5.700166133576058
F4.03472112590664
tp1436
aa(lp1437
g1361
a(F5.534925179499009
F4.158775455335581
tp1438
a(F5.532043613562472
F4.168693870345297
tp1439
ag1362
aa(lp1440
g1361
ag1436
a(F5.594171462365208
F3.954848412126391
tp1441
ag1438
aa(lp1442
g514
ag513
a(F4.112124359765183
F3.650305297834474
tp1443
a(F3.8355832510995858
F3.7676900341097035
tp1444
aa(lp1445
g514
ag1444
a(F3.735662808126568
F3.810103745776258
tp1446
a(F3.8407430468933894
F3.992108058191861
tp1447
aa(lp1448
g514
ag1447
a(F3.859577376998779
F4.02473007486092
tp1449
ag509
aa(lp1450
g465
ag464
a(F1.6008905176671104
F0.11256967611029634
tp1451
a(F1.5358983848622418
F0.0
tp1452
aa(lp1453
(F4.917607570263645
F3.9486076051640753
tp1454
a(F4.907546198258649
F3.698101313764375
tp1455
a(F4.700936538823972
F3.5424097681070146
tp1456
ag225
ag223
aa(lp1457
g1454
ag223
ag222
aa(lp1458
g1454
ag222
a(F5.1825885183805225
F4.275982262545789
tp1459
a(F5.212921720113906
F4.265891749352109
tp1460
a(F5.2508715123287555
F3.956815494684718
tp1461
a(F5.092912202529272
F3.8377846170338743
tp1462
aa(lp1463
g1454
ag1462
ag1455
aa(lp1464
g259
a(F2.70634072690611
F3.1876958787275007
tp1465
ag553
ag556
ag261
aa(lp1466
g259
ag258
ag1465
aa(lp1467
g1187
a(F7.51349947099577
F4.370045773367573
tp1468
a(F7.318710759310356
F4.651356398431137
tp1469
a(F7.343803128911278
F4.77468933530135
tp1470
aa(lp1471
g1187
ag1186
a(F7.513705430484843
F4.369748330091177
tp1472
ag1468
aa(lp1473
g1187
ag1470
ag291
ag946
aa(lp1474
(F0.722186546174565
F0.11826258233188236
tp1475
ag467
ag466
a(F0.7367073654174289
F0.0
tp1476
aa(lp1477
g1475
a(F0.12293864556197186
F0.020131975276410707
tp1478
a(F0.14649681925284133
F0.04901715004394192
tp1479
ag898
ag897
aa(lp1480
g1475
ag1476
a(F0.10651940717691989
F0.0
tp1481
ag1478
aa(lp1482
g1475
ag897
ag469
ag467
aa(lp1483
g775
ag1412
a(F6.882574100174021
F6.629900482534055
tp1484
aa(lp1485
g775
ag1484
ag587
ag586
aa(lp1486
(F3.3395245829908915
F4.946230257268352
tp1487
a(F3.355324332984271
F4.936242069943541
tp1488
a(F3.3492274701170337
F4.885860310002966
tp1489
a(F3.280449113213893
F4.908739824136384
tp1490
aa(lp1491
g1487
ag1490
a(F2.8723984729124115
F5.044480205446672
tp1492
ag1121
ag1119
aa(lp1493
g1487
ag1119
ag1118
a(F3.3579478987180726
F4.957922048953571
tp1494
aa(lp1495
g1487
ag1494
ag1488
aa(lp1496
(F3.414559767877183
F3.4362760077250964
tp1497
a(F3.465924233112456
F3.6142323720023666
tp1498
ag130
ag1446
a(F3.487998527014278
F3.3811366276697514
tp1499
aa(lp1500
g1497
ag1499
a(F3.3500168780819832
F3.1421454012068843
tp1501
a(F3.331010779348122
F3.1468137468104285
tp1502
aa(lp1503
g1497
ag1502
ag480
a(F3.1562675386067607
F3.291325356667904
tp1504
a(F3.345205847856003
F3.4883484038182395
tp1505
aa(lp1506
g1497
ag1505
ag1498
aa(lp1507
(F7.797010904144772
F7.002276718276386
tp1508
ag133
ag137
ag861
ag868
a(F7.791481564759856
F6.97509914692144
tp1509
aa(lp1510
g1508
ag134
ag133
aa(lp1511
g1508
ag1509
a(F7.790621731354002
F6.9956141504942915
tp1512
aa(lp1513
g1508
ag1512
a(F7.787388391784225
F7.072759295559198
tp1514
ag134
aa(lp1515
(F1.3192724422632647
F1.4869821331650972
tp1516
a(F1.3083438482040552
F1.4966509364353566
tp1517
a(F1.2853850336640842
F1.5756756944154986
tp1518
a(F1.4184705499444
F1.608611029979306
tp1519
aa(lp1520
g1516
a(F1.3132855519889324
F1.479641480440598
tp1521
ag1517
aa(lp1522
g1516
a(F1.3769931421292811
F1.4359151717057823
tp1523
a(F1.3378484425868327
F1.3950954564543692
tp1524
ag1521
aa(lp1525
g1516
ag1519
a(F1.5812281439799896
F1.648889462410897
tp1526
ag1523
aa(lp1527
g1113
a(F2.6087287630007805
F5.408220196938898
tp1528
a(F2.5684810772078093
F5.43366372770735
tp1529
ag1177
ag1176
aa(lp1530
g1113
ag1176
a(F2.8517086686525084
F5.538123980419711
tp1531
ag1114
aa(lp1532
g1113
ag1112
ag1528
aa(lp1533
g1047
ag1046
a(F1.882745356061763
F0.988463410434613
tp1534
aa(lp1535
g1047
a(F1.6842237737582861
F0.8317992013002669
tp1536
ag1048
aa(lp1537
g1047
ag1534
a(F2.030907378022949
F0.8573807263578592
tp1538
a(F1.9407650538081254
F0.7012496409054383
tp1539
a(F1.9237445557800958
F0.6803804484705162
tp1540
ag1536
aa(lp1541
(F7.671724175703191
F8.0
tp1542
a(F7.643627280997847
F7.970700829110276
tp1543
a(F7.611728027778026
F7.9680782330991144
tp1544
a(F7.6540896432408205
F8.0
tp1545
aa(lp1546
g1000
a(F4.089503958458604
F5.774675009754463
tp1547
ag645
ag644
aa(lp1548
g1000
a(F3.973641567306743
F5.562221029561596
tp1549
a(F3.888862542229022
F5.637227174952276
tp1550
a(F3.9618960281061772
F5.743095239662068
tp1551
ag1547
aa(lp1552
g1000
ag999
ag1549
aa(lp1553
g1032
a(F0.23712339081378495
F0.8215332588596954
tp1554
a(F0.42652457238770036
F0.9023197089224356
tp1555
ag1033
aa(lp1556
g1032
ag1036
a(F0.09192163506306225
F0.7595994615491433
tp1557
ag1554
aa(lp1558
g225
ag1456
ag1259
ag1258
a(F4.505620349114642
F3.570046382932308
tp1559
aa(lp1560
g225
ag1559
ag226
aa(lp1561
(F5.407434483304342
F7.411589880239572
tp1562
a(F5.444075859131274
F7.538536904693363
tp1563
a(F5.577031215697395
F7.400375847033926
tp1564
a(F5.438874034986115
F7.366185401413297
tp1565
aa(lp1566
g1562
a(F5.390902551667537
F7.354313659508166
tp1567
a(F5.315459688773841
F7.3356434384747615
tp1568
a(F5.192872403577955
F7.59381166147659
tp1569
a(F5.2060212145716225
F7.702467580661979
tp1570
aa(lp1571
g1562
ag1565
ag1567
aa(lp1572
g1562
ag1570
a(F5.2143114886808695
F7.770974714430412
tp1573
a(F5.2199498642229285
F7.7714382732825324
tp1574
ag1563
aa(lp1575
(F2.655165415769228
F0.3050838687616083
tp1576
a(F2.531447317526789
F0.4145403959595088
tp1577
a(F2.6434613190858958
F0.4328833921727129
tp1578
a(F2.6698568440409516
F0.3772945457278465
tp1579
aa(lp1580
g1576
a(F2.739627300705081
F0.23035830526684278
tp1581
a(F2.784244321281772
F0.13639507817102792
tp1582
a(F2.639466244913567
F0.22791997874841516
tp1583
aa(lp1584
g1576
ag1583
a(F2.389982965427378
F0.38563676103678945
tp1585
a(F2.392294173100032
F0.3917531946654933
tp1586
ag1577
aa(lp1587
g1576
ag1579
ag1581
aa(lp1588
(F7.907546198258649
F5.698101313764374
tp1589
ag1272
a(F8.0
F5.747536285883706
tp1590
a(F8.0
F5.514106025635639
tp1591
a(F7.900801487547726
F5.530172678791129
tp1592
aa(lp1593
g1589
ag1592
a(F7.851708668652509
F5.53812398041971
tp1594
a(F7.846918454329655
F5.652415031778086
tp1595
aa(lp1596
g1589
ag1273
ag1272
aa(lp1597
g1589
ag1595
a(F7.837828356309838
F5.869298200173935
tp1598
ag1273
aa(lp1599
g891
ag894
a(F8.0
F2.0
tp1600
aa(lp1601
g891
ag1600
ag892
aa(lp1602
g1531
a(F2.8397940260978203
F5.822398739826158
tp1603
a(F3.4688193110672483
F5.874114032090616
tp1604
a(F3.4372523916293387
F5.613259065886511
tp1605
ag1116
aa(lp1606
g1531
ag1116
ag1114
aa(lp1607
g1531
ag1176
ag1175
ag1603
aa(lp1608
(F1.6523713477283202
F5.7247748249841495
tp1609
ag359
ag358
aa(lp1610
g1609
ag249
ag248
ag359
aa(lp1611
g1609
ag358
a(F1.8291912112669806
F5.703735670828377
tp1612
a(F1.897979280484361
F5.3686263276988635
tp1613
ag833
a(F1.6233219039976472
F5.624130666285937
tp1614
aa(lp1615
g1609
ag1614
ag249
aa(lp1616
g1547
ag1551
a(F4.087361252834444
F5.924967436652677
tp1617
a(F4.133990148233521
F5.92880102969123
tp1618
aa(lp1619
g1547
ag1618
ag647
ag645
aa(lp1620
g935
ag1133
a(F5.543651062371192
F5.819151362067494
tp1621
a(F5.256026521770161
F5.914831311954437
tp1622
ag937
aa(lp1623
g935
ag934
ag1133
aa(lp1624
g436
a(F1.3874313992694969
F4.806868841468484
tp1625
ag827
ag826
aa(lp1626
g436
ag826
ag437
aa(lp1627
g436
ag435
a(F1.3847723512355739
F4.797656353450005
tp1628
ag1625
aa(lp1629
(F5.820877645748526
F7.736580085471539
tp1630
a(F5.825073432151963
F7.725534599807145
tp1631
a(F5.816936038302444
F7.728241550452265
tp1632
aa(lp1633
g1630
ag576
ag575
aa(lp1634
g1630
ag1632
ag578
ag576
aa(lp1635
g1630
ag575
a(F6.01009614706865
F7.836400122870229
tp1636
a(F6.24104340451492
F7.798994829273856
tp1637
a(F6.122184423535876
F7.626698927763759
tp1638
ag1631
aa(lp1639
g1229
a(F7.739627300705081
F2.2303583052668428
tp1640
a(F7.4055851671260875
F2.525893820270349
tp1641
ag1345
ag1230
aa(lp1642
g1229
ag1234
a(F7.767284474894161
F2.2058893045155386
tp1643
ag1640
aa(lp1644
(F0.7278997649943898
F0.5580813449108453
tp1645
a(F0.7374771703009091
F0.555728908538598
tp1646
a(F0.674316375507097
F0.5081338358140095
tp1647
a(F0.6725003920987059
F0.5229238337994004
tp1648
aa(lp1649
g1645
a(F0.6663266216013205
F0.5732051594969165
tp1650
a(F0.6542475765299821
F0.6715810870770096
tp1651
ag1058
a(F0.8678897795527581
F0.9050270939629628
tp1652
a(F1.080978985358002
F0.8145760924925314
tp1653
a(F0.8083600907156896
F0.6091430203002699
tp1654
aa(lp1655
g1645
ag1648
ag1650
aa(lp1656
g1645
ag1654
ag1646
aa(lp1657
(F0.07826574076729037
F5.362576693749134
tp1658
a(F0.12536034282875239
F4.979021939672982
tp1659
a(F0.0
F5.196152422706634
tp1660
a(F0.0
F5.3957985296768385
tp1661
aa(lp1662
g1658
ag1220
ag1219
a(F0.21900564693242752
F4.816823515075178
tp1663
ag1659
aa(lp1664
g1658
ag1661
ag1320
ag1319
aa(lp1665
g1658
ag1319
ag274
ag273
ag1220
aa(lp1666
(F5.501583922052303
F7.737778262452636
tp1667
a(F5.758062835416437
F7.603694326844369
tp1668
a(F5.697754515897252
F7.476111090526887
tp1669
a(F5.474450540713717
F7.643772457633165
tp1670
aa(lp1671
g1667
ag1670
a(F5.296079445465773
F7.777697264197557
tp1672
ag1159
aa(lp1673
g1667
ag1157
ag578
ag1632
ag1668
aa(lp1674
g1667
ag1159
ag1157
aa(lp1675
(F0.22087211997459166
F1.7568917151811905
tp1676
ag990
a(F0.21319459979056246
F1.7617452419661235
tp1677
aa(lp1678
g1676
ag1677
a(F0.21431148868086894
F1.7709747144304133
tp1679
a(F0.23902244133650663
F1.7730063245568357
tp1680
aa(lp1681
g1676
a(F0.46293255507941106
F1.603867460318574
tp1682
a(F0.39090255166753685
F1.3543136595081655
tp1683
ag991
ag990
aa(lp1684
g1676
ag1680
ag54
ag48
ag1682
aa(lp1685
g1421
ag1085
ag839
ag838
aa(lp1686
g1421
ag846
ag417
ag416
aa(lp1687
g1421
ag838
ag846
aa(lp1688
(F7.665008146854635
F7.113469784579177
tp1689
ag1514
ag1512
a(F7.703237356549791
F6.904490567004716
tp1690
a(F7.56907949529249
F6.859601974553615
tp1691
aa(lp1692
g1689
ag966
ag965
a(F7.771367734883615
F7.455000589416747
tp1693
a(F7.7736335992644845
F7.400938703064486
tp1694
aa(lp1695
g1689
ag1691
ag593
ag591
ag966
aa(lp1696
g1689
ag1694
ag1514
aa(lp1697
g238
ag237
a(F0.3216374818980393
F2.657868932555016
tp1698
a(F0.4131211309111359
F2.6353983931430722
tp1699
aa(lp1700
g238
ag1699
ag696
aa(lp1701
g913
ag912
a(F4.740236166253407
F5.681498072197238
tp1702
a(F4.86326294257309
F5.832343803352422
tp1703
a(F4.8866832999390635
F5.803729718148414
tp1704
aa(lp1705
g913
ag1704
a(F4.913469422534086
F5.7710034713947
tp1706
ag915
aa(lp1707
g902
a(F1.3411716509426408
F0.7041308585894046
tp1708
a(F1.4759772431242046
F0.6469092796241084
tp1709
ag903
aa(lp1710
g902
ag1646
ag1654
a(F1.1115936968893263
F0.8015809184419622
tp1711
ag1708
aa(lp1712
g902
ag901
ag1647
ag1646
aa(lp1713
g129
ag32
ag31
a(F4.11028810138877
F4.458973787506782
tp1714
ag1449
aa(lp1715
g129
ag1447
ag1446
ag130
aa(lp1716
g129
ag1449
ag1447
aa(lp1717
(F4.966133503548806
F2.7451890847655562
tp1718
ag409
ag408
aa(lp1719
g1718
ag408
a(F4.86439856471894
F2.62381903344134
tp1720
a(F4.87021950617653
F2.7687478221067208
tp1721
aa(lp1722
g1718
ag1721
ag878
ag883
aa(lp1723
g1718
ag883
a(F5.235286084904402
F3.1735514309823407
tp1724
ag1081
ag1080
ag409
aa(lp1725
(F3.8632291752694767
F4.990727633693545
tp1726
a(F3.7905834769573756
F4.739040707862821
tp1727
a(F3.637212337737056
F4.790060495270527
tp1728
aa(lp1729
g1726
a(F3.964946324365971
F5.3431349634486445
tp1730
a(F3.9833798624143735
F5.354833242416174
tp1731
a(F4.2285973472595995
F5.315116676317814
tp1732
aa(lp1733
g1726
ag1728
a(F3.5303051702794574
F4.825623776496544
tp1734
a(F3.3901134958927104
F4.914249274098764
tp1735
a(F3.4687497846840207
F5.0282390639918475
tp1736
ag1730
aa(lp1737
g1726
ag1732
a(F4.258397717095992
F5.3102900696053705
tp1738
a(F4.362424379233132
F5.218255053425218
tp1739
a(F3.9329591294623576
F4.6916786320526995
tp1740
ag1727
aa(lp1741
g796
a(F2.739123306934333
F2.0640774616713253
tp1742
ag165
ag174
ag797
aa(lp1743
g796
ag799
a(F2.7290259741106855
F2.0665576044904723
tp1744
ag1742
aa(lp1745
(F7.111773607052082
F3.634227799519029
tp1746
ag532
a(F6.881400093181779
F4.037780606397536
tp1747
a(F6.885974690504095
F4.040182323685551
tp1748
a(F7.1405451540895175
F3.7756444712348776
tp1749
aa(lp1750
g1746
ag533
ag532
aa(lp1751
g1746
ag1749
a(F7.354257982100472
F3.5535639841000966
tp1752
aa(lp1753
g1746
ag1752
a(F7.424612638107921
F3.480454679320631
tp1754
ag1238
ag522
ag533
aa(lp1755
g263
ag559
a(F2.7267722890988106
F3.952681454049035
tp1756
a(F2.8378283563098368
F3.8692982001739353
tp1757
ag264
aa(lp1758
g263
ag261
ag556
aa(lp1759
g1137
a(F4.980265630347558
F5.193372979826733
tp1760
ag1144
aa(lp1761
g1137
ag1136
a(F5.073462226370206
F5.401698179070749
tp1762
ag979
ag1760
aa(lp1763
(F0.9422927662319998
F4.99581898091487
tp1764
a(F0.6210612550837492
F5.132173667570258
tp1765
a(F0.6449734522057134
F5.3297734170290205
tp1766
a(F0.9617186928289919
F5.00062641172321
tp1767
aa(lp1768
g1764
a(F0.7314567249768587
F4.9436423356888275
tp1769
a(F0.6180636437148674
F5.107402741985937
tp1770
ag1765
aa(lp1771
g1764
a(F0.9829545716994528
F4.9785590685123235
tp1772
a(F1.1909110247782078
F4.762460339987781
tp1773
a(F1.2952970973315363
F4.48766206450696
tp1774
a(F1.2729630764724653
F4.410284034120233
tp1775
a(F1.1400323091853268
F4.353584256938255
tp1776
ag1769
aa(lp1777
g1764
ag1767
ag1772
aa(lp1778
(F2.9210182360751276
F0.03352576972592077
tp1779
ag116
a(F2.92045642025594
F0.019537777109766664
tp1780
aa(lp1781
g1779
ag1780
a(F2.8290742911865476
F0.04198338083188283
tp1782
a(F2.810894149002037
F0.08027067134652126
tp1783
aa(lp1784
g1779
ag1783
ag1582
a(F2.9216607910615187
F0.04952399209373844
tp1785
aa(lp1786
g1779
ag1785
ag116
aa(lp1787
g26
ag268
ag307
a(F2.541764645617484
F1.2063130843851537
tp1788
a(F2.647927893678559
F1.390193223923473
tp1789
aa(lp1790
g26
ag1789
ag27
aa(lp1791
(F3.6216394049524774
F2.3522745291217437
tp1792
a(F3.5009392592883657
F2.361985832258092
tp1793
a(F3.492293692278685
F2.3709699056566618
tp1794
a(F3.6830088670511705
F2.5146840980225305
tp1795
aa(lp1796
g1792
a(F3.6644269130117575
F2.348831927963921
tp1797
a(F3.609427467083196
F2.319956573301898
tp1798
aa(lp1799
g1792
ag1798
a(F3.564223382401429
F2.2962238982663425
tp1800
ag1793
aa(lp1801
g1792
ag1795
a(F4.161635862845459
F2.875355409191849
tp1802
a(F4.3374301820639465
F2.7433653007960426
tp1803
a(F4.328045809901543
F2.6972396379798123
tp1804
ag1797
aa(lp1805
g1405
ag1403
a(F2.8430118418557258
F0.012630967296417772
tp1806
a(F2.8490094660879492
F0.0
tp1807
aa(lp1808
g1470
ag1469
a(F7.1913759220712254
F4.835251257358882
tp1809
ag292
aa(lp1810
g1470
ag292
ag291
aa(lp1811
g1194
ag641
a(F5.270506956914468
F5.7968976317113805
tp1812
aa(lp1813
g1194
ag1812
a(F5.40491835420621
F5.695978699990274
tp1814
ag1195
aa(lp1815
g94
ag941
a(F5.504154953466324
F6.264687268029293
tp1816
ag1355
aa(lp1817
g290
ag946
ag291
aa(lp1818
g290
ag289
ag947
aa(lp1819
g444
ag443
a(F1.948351759982338
F2.2583095829664095
tp1820
aa(lp1821
g444
ag1820
a(F2.124216946375025
F2.215112950074558
tp1822
a(F1.9954394537691607
F2.0808250224520184
tp1823
a(F1.8556193719912044
F2.0920746791216427
tp1824
aa(lp1825
g444
ag1824
ag445
aa(lp1826
(F2.9094349486447424
F4.160816664577061
tp1827
a(F2.9071966262171625
F4.214221419831252
tp1828
a(F3.0420257545382143
F4.409667367815546
tp1829
a(F3.1469706109601536
F4.354803522728522
tp1830
a(F2.922318405684573
F4.1553479615179345
tp1831
aa(lp1832
g1827
a(F2.879206744232198
F4.173647776089421
tp1833
ag1828
aa(lp1834
g1827
ag1831
a(F2.9101181462181436
F4.144516064293483
tp1835
aa(lp1836
g1827
ag1835
a(F2.829300657085636
F4.072762939810325
tp1837
ag927
ag1833
aa(lp1838
g722
ag721
ag850
ag1150
a(F6.547993563897306
F5.485051079753124
tp1839
aa(lp1840
g722
ag1839
a(F6.4174642153312
F5.258967616157761
tp1841
ag735
a(F6.243152105899004
F5.381927745703122
tp1842
aa(lp1843
g722
ag1842
ag723
aa(lp1844
g1017
ag1022
a(F2.387843404528613
F1.6115136113949309
tp1845
aa(lp1846
g1017
ag1845
a(F2.3462032624107856
F1.721132059190344
tp1847
ag1018
aa(lp1848
g366
ag365
a(F5.617669919307994
F5.794528565599561
tp1849
aa(lp1850
g366
ag1849
a(F5.571486021774233
F5.8098919034857515
tp1851
ag1130
aa(lp1852
(F2.323906778960671
F1.1710278094930138
tp1853
a(F2.304350402763531
F1.1470493232280574
tp1854
a(F2.2804957764025464
F1.1972870496623038
tp1855
a(F2.3021747599904563
F1.2086687705004764
tp1856
aa(lp1857
g1853
a(F2.4226497308103743
F1.0000000000000009
tp1858
a(F2.3960506527323253
F0.9539290453343292
tp1859
ag1854
aa(lp1860
g1853
ag1856
a(F2.3938680801558547
F1.256808839826872
tp1861
aa(lp1862
g1853
ag1861
a(F2.501181286045069
F1.3131495324948426
tp1863
ag1788
ag1858
aa(lp1864
g1603
a(F2.8326628060418697
F5.992544495888501
tp1865
a(F2.8361870066900967
F6.0
tp1866
a(F3.4788224545529864
F6.0
tp1867
a(F3.4835473257173253
F5.995819787109137
tp1868
ag1604
aa(lp1869
g1603
ag1175
ag1179
ag1865
aa(lp1870
g1514
ag1694
a(F7.799678283406733
F7.469863959683117
tp1871
ag135
ag134
aa(lp1872
(F2.2741885062493106
F4.811082980533108
tp1873
a(F2.4408527460217853
F4.723953021579615
tp1874
ag922
ag920
a(F2.124337513337602
F4.4940707541356915
tp1875
aa(lp1876
g1873
ag1875
a(F2.0730291491667368
F4.515849862587134
tp1877
a(F2.0285436228294746
F4.7325664484610686
tp1878
a(F2.2465268192913657
F4.825544161003018
tp1879
aa(lp1880
g1873
a(F2.2897362845326934
F4.8439745597837875
tp1881
a(F2.4060334312497855
F4.893579496551476
tp1882
ag1874
aa(lp1883
g1873
ag1879
ag1881
aa(lp1884
g286
a(F7.360802883713545
F5.546762825030668
tp1885
a(F7.4764362542983225
F5.426601974100425
tp1886
a(F7.463612997276691
F5.363573652189323
tp1887
ag287
aa(lp1888
g286
a(F7.253850723902324
F5.63495583804637
tp1889
a(F7.280010106546483
F5.63071894257974
tp1890
ag1885
aa(lp1891
g286
ag285
ag1147
ag1146
ag1889
aa(lp1892
g637
ag481
ag480
ag1502
a(F3.309315418114527
F3.0716484046010195
tp1893
aa(lp1894
g637
ag1893
ag630
aa(lp1895
g302
a(F2.699121789396438
F0.5211363476557792
tp1896
a(F2.5432198542588225
F0.7911664203124364
tp1897
a(F2.56907949529249
F0.8596019745536156
tp1898
ag304
aa(lp1899
g302
ag119
a(F2.740865595732121
F0.4488339541810608
tp1900
ag1896
aa(lp1901
(F7.249474051586102
F4.311047107652048
tp1902
a(F7.312196488150361
F4.2639537701780625
tp1903
a(F7.231246100683774
F4.2214538666124515
tp1904
aa(lp1905
g1902
ag1904
a(F7.168635476741782
F4.188582554158071
tp1906
ag1167
aa(lp1907
g1902
ag1167
ag1166
ag1809
ag1469
aa(lp1908
g1902
ag1469
ag1468
a(F7.513574624245999
F4.369679655280461
tp1909
ag1903
aa(lp1910
g677
a(F0.9110198398001065
F1.3205984377370628
tp1911
ag678
aa(lp1912
g677
ag676
a(F1.2335280278367682
F1.5628423829027744
tp1913
aa(lp1914
g677
ag1913
ag1517
ag1521
a(F1.090853218869771
F1.2069124947218595
tp1915
ag1911
aa(lp1916
g1856
a(F2.2679491924311215
F1.2679491924311255
tp1917
a(F2.3652066979561295
F1.4364041334178494
tp1918
ag1021
a(F2.481682627688569
F1.364480112901712
tp1919
ag1861
aa(lp1920
g1856
ag1855
a(F2.2564227283759486
F1.24798477105595
tp1921
ag1917
aa(lp1922
g124
ag123
a(F3.2116123869396134
F3.748670539489253
tp1923
a(F3.219932124815731
F3.817421148707566
tp1924
aa(lp1925
g124
ag1924
a(F3.2442871621842873
F4.018680332777483
tp1926
aa(lp1927
g124
ag1926
ag36
ag35
aa(lp1928
g234
ag695
ag235
aa(lp1929
(F8.0
F3.3387542054094004
tp1930
a(F7.9430961981937225
F3.357683580816047
tp1931
ag541
a(F7.996892915914366
F3.6719369817180136
tp1932
a(F8.0
F3.667449782440951
tp1933
aa(lp1934
g1889
a(F7.247863267557973
F5.664124450938115
tp1935
ag1890
aa(lp1936
g1889
ag1146
a(F7.154145663359847
F5.761511450993897
tp1937
ag1935
aa(lp1938
g1648
ag1647
a(F0.2894133758362595
F0.21808862151533545
tp1939
a(F0.2846975961988465
F0.21846804413600562
tp1940
a(F0.38334251598945185
F0.33941866558358735
tp1941
aa(lp1942
g1648
ag1941
a(F0.5894204161626915
F0.5920951353447788
tp1943
ag1650
aa(lp1944
(F4.232850853599916
F3.7871190506499692
tp1945
ag687
ag215
ag214
a(F4.465052968772873
F3.6657267184282905
tp1946
aa(lp1947
g1945
a(F4.132502211549967
F3.6416554129433805
tp1948
ag1443
ag513
aa(lp1949
g1945
ag1946
a(F4.364949290172392
F3.5429874819666676
tp1950
ag1948
aa(lp1951
g1945
ag513
ag512
ag687
aa(lp1952
g496
a(F1.2223034499130248
F4.234769640718716
tp1953
ag497
aa(lp1954
g496
a(F1.090801025426519
F4.332585334894291
tp1955
ag1776
ag1953
aa(lp1956
g496
ag495
ag565
ag1955
aa(lp1957
g928
ag1837
ag1757
ag1756
aa(lp1958
g928
ag927
ag1837
aa(lp1959
g928
ag1756
ag929
aa(lp1960
(F6.259931175498397
F4.986112387296575
tp1961
a(F6.153344097737065
F4.801498153183655
tp1962
a(F5.923202643550648
F5.04065050885323
tp1963
aa(lp1964
g1961
ag1963
a(F5.919534426707702
F5.0444623501497015
tp1965
a(F6.067354430631255
F5.198607624967281
tp1966
ag731
ag730
aa(lp1967
g1961
ag730
ag737
aa(lp1968
g1961
ag737
a(F6.3792949275952555
F4.807143529489615
tp1969
a(F6.245172105871087
F4.706074733968153
tp1970
ag1962
aa(lp1971
(F1.6214942892297362
F2.585140958223098
tp1972
a(F1.470452185405357
F2.6492545274838637
tp1973
a(F1.3875990542948369
F2.7927603601334496
tp1974
a(F1.4827822094502414
F2.877267919745549
tp1975
aa(lp1976
g1972
a(F1.7467045326822301
F2.531992363146041
tp1977
a(F1.7278395719651924
F2.504646045796512
tp1978
a(F1.65701009242814
F2.5103448504084658
tp1979
aa(lp1980
g1972
ag1979
a(F1.545470428660452
F2.519319118671478
tp1981
ag1973
aa(lp1982
g1972
ag1975
a(F1.5366483462163054
F2.925092513880924
tp1983
a(F1.8717470962258655
F2.713251877870325
tp1984
ag1977
aa(lp1985
g63
a(F2.818573973718862
F2.2216592895279916
tp1986
a(F2.795206632095539
F2.181185866598577
tp1987
a(F2.4998049645594294
F2.4425351850597288
tp1988
aa(lp1989
g63
ag61
ag1324
ag1986
aa(lp1990
g63
ag1988
a(F2.498356474301341
F2.443816700986522
tp1991
ag1389
ag64
aa(lp1992
g442
a(F1.6408631384795918
F2.354094098593053
tp1993
a(F1.7044124164824392
F2.4105157878127823
tp1994
ag443
aa(lp1995
g442
ag451
ag1993
aa(lp1996
(F5.5624965075438375
F6.8153851064955235
tp1997
ag390
ag389
a(F5.408863749078931
F6.592681744888703
tp1998
aa(lp1999
g1997
a(F5.691140904026588
F7.0018657752985485
tp2000
ag395
ag390
aa(lp2001
g1997
ag1998
ag1266
a(F5.4265245723877005
F6.902319708922436
tp2002
a(F5.505268567174294
F6.935906868990311
tp2003
aa(lp2004
g1997
ag2003
a(F5.6840193855111965
F7.012150554162953
tp2005
ag2000
aa(lp2006
g1152
ag1148
a(F6.925721263027482
F5.218905307637399
tp2007
a(F6.810293563961993
F5.131924297512553
tp2008
aa(lp2009
g1152
ag1839
ag1150
aa(lp2010
g1152
ag2008
a(F6.748928398734793
F5.0856823287203685
tp2011
ag1841
ag1839
aa(lp2012
(F7.80269633286319
F3.0875675892454173
tp2013
a(F7.769720421578997
F3.121834631190751
tp2014
a(F7.705052940730843
F3.4368700330477644
tp2015
a(F7.8152533982240495
F3.4002112200395445
tp2016
aa(lp2017
g2013
a(F7.798451071795949
F2.9818698170678113
tp2018
ag2014
aa(lp2019
g2013
a(F7.961326294076756
F2.9227266698286645
tp2020
a(F7.965916818904167
F2.8132000654952334
tp2021
a(F7.837394201991164
F2.7921536798422544
tp2022
ag2018
aa(lp2023
g2013
ag2016
ag1931
ag2020
aa(lp2024
(F2.7880685470500755
F5.056531282534758
tp2025
ag1123
ag1492
a(F2.8885125767717534
F4.660009334697587
tp2026
a(F2.8068595820958224
F4.60819076857397
tp2027
aa(lp2028
g2025
ag1882
a(F2.377921259769161
F5.030531317208713
tp2029
a(F2.45080811490733
F5.184724651356794
tp2030
ag1124
aa(lp2031
g2025
ag1124
ag1123
aa(lp2032
g2025
ag2027
ag923
ag1874
ag1882
aa(lp2033
g1403
ag1402
ag1782
ag1806
aa(lp2034
g1747
a(F6.836957933317427
F4.014447950834127
tp2035
a(F6.726306113658284
F4.206102524433712
tp2036
a(F6.874692978559757
F4.051905756984483
tp2037
aa(lp2038
g1747
ag532
ag530
ag2035
aa(lp2039
g1747
ag2037
ag1748
aa(lp2040
g1841
ag726
ag735
aa(lp2041
g1841
ag2011
a(F6.55366181608422
F4.938538404514296
tp2042
ag727
ag726
aa(lp2043
g182
ag181
a(F2.8408927293556903
F2.140766222113561
tp2044
a(F2.868040231522783
F2.1612233323217485
tp2045
aa(lp2046
g182
ag2045
ag1323
ag176
aa(lp2047
(F4.4165898879841015
F5.284668528729987
tp2048
ag1738
ag1004
ag1003
ag1702
aa(lp2049
g2048
ag1739
ag1738
aa(lp2050
g2048
ag1702
ag912
aa(lp2051
g2048
ag912
ag909
ag1739
aa(lp2052
(F5.803620705015614
F7.164914528985051
tp2053
a(F5.8730417258183785
F7.092775414731783
tp2054
a(F5.704163152313657
F7.020742598823601
tp2055
aa(lp2056
g2053
a(F5.633980711661992
F7.341196564612706
tp2057
a(F5.673205141493447
F7.4241764874575615
tp2058
a(F5.743692030491177
F7.441620228947052
tp2059
a(F5.90892409636627
F7.317560484683012
tp2060
aa(lp2061
g2053
ag2060
a(F6.008427709128652
F7.242851058959431
tp2062
ag756
ag2054
aa(lp2063
g2053
ag2055
ag2005
a(F5.561845136967923
F7.18859257653171
tp2064
ag2057
aa(lp2065
g434
a(F1.8461588292292688
F3.9985115316396644
tp2066
a(F1.5520166021909076
F3.8118431981385075
tp2067
a(F1.3174777280420125
F4.429271142047434
tp2068
a(F1.4550695430306306
F4.487959024552971
tp2069
aa(lp2070
g434
ag433
ag2066
aa(lp2071
g434
ag2069
ag435
aa(lp2072
g872
a(F5.280166305066728
F3.718228554090957
tp2073
a(F5.32361521579997
F3.3643655731612894
tp2074
ag873
aa(lp2075
g872
a(F4.897172551502271
F3.4398200598816695
tp2076
ag1455
ag1462
a(F5.280009368673008
F3.7195066984485647
tp2077
ag2073
aa(lp2078
g872
ag871
ag2076
aa(lp2079
g858
ag865
ag1275
ag1274
aa(lp2080
g858
ag1274
a(F7.83632795591444
F5.9050966691130755
tp2081
a(F7.813043226006743
F6.460653494420473
tp2082
ag859
aa(lp2083
(F1.5663631287980888
F0.6085427474147436
tp2084
a(F1.5389685331912173
F0.7028355639723189
tp2085
ag1536
ag1540
a(F1.8825741001740217
F0.6299004825340548
tp2086
a(F1.6776110516255465
F0.5613208058188588
tp2087
aa(lp2088
g2084
ag1709
ag2085
aa(lp2089
g2084
a(F1.5887230757664834
F0.5315793051364026
tp2090
ag474
ag903
ag1709
aa(lp2091
g2084
ag2087
ag2090
aa(lp2092
g983
a(F0.2866357734365488
F1.1517547813802373
tp2093
ag984
aa(lp2094
g983
ag991
ag1683
a(F0.348218186046305
F1.2064302057888845
tp2095
ag2093
aa(lp2096
g1504
ag480
ag479
aa(lp2097
g1504
a(F3.193861038576979
F3.601981300891857
tp2098
ag1505
aa(lp2099
g1504
ag479
a(F2.9479911998726305
F3.2408923788828994
tp2100
a(F2.9383004526962333
F3.4721066020032674
tp2101
a(F3.0385318823675243
F3.5950024767533915
tp2102
a(F3.1139612231216987
F3.6619717792510587
tp2103
ag2098
aa(lp2104
g1051
ag1041
a(F2.154209610570721
F1.4632450971907993
tp2105
a(F2.225747562946039
F1.3125865194075217
tp2106
aa(lp2107
g1051
ag2106
ag1921
a(F2.2039502312326755
F1.157099740003788
tp2108
a(F2.098317171624773
F1.1016411438540248
tp2109
aa(lp2110
g1051
ag2109
ag1534
ag1046
aa(lp2111
g1086
ag1420
ag1091
aa(lp2112
g1410
a(F6.382216469420559
F6.563664569358928
tp2113
a(F6.625425721349294
F6.779595847556471
tp2114
ag1412
aa(lp2115
g1410
ag1409
a(F6.295628917027866
F6.486788542991191
tp2116
ag2113
aa(lp2117
(F2.23570074592741
F0.6761948597592823
tp2118
a(F2.1540566706991564
F0.534783173326971
tp2119
a(F1.9617107310049593
F0.65637922881125
tp2120
a(F2.176766166642145
F0.7283357710089318
tp2121
aa(lp2122
g2118
a(F2.287122881551016
F0.7652606112930644
tp2123
a(F2.3550411422027375
F0.7879857434158523
tp2124
a(F2.48296157589271
F0.631697513832444
tp2125
a(F2.433612034654203
F0.5010977424818625
tp2126
aa(lp2127
g2118
ag2121
ag2123
aa(lp2128
g2118
ag2126
ag1586
a(F2.382773840774536
F0.39019418045865883
tp2129
ag2119
aa(lp2130
g289
ag287
ag1887
ag947
aa(lp2131
g243
ag242
ag1213
ag1212
aa(lp2132
g243
ag1212
ag1215
ag252
aa(lp2133
(F1.618547240721521
F1.687805456663895
tp2134
ag1526
ag1519
a(F1.5506829373680466
F1.7707194330871716
tp2135
aa(lp2136
g2134
a(F1.825317530311559
F1.903423520978451
tp2137
a(F1.8976256789913868
F1.909368332946162
tp2138
ag1333
a(F1.6387485199939356
F1.6631243163508662
tp2139
aa(lp2140
g2134
ag2139
ag1526
aa(lp2141
g2134
ag2135
ag453
ag2137
aa(lp2142
(F2.4042532821203073
F3.0318635838100336
tp2143
a(F2.3817491169623097
F3.0118834510280834
tp2144
a(F2.362969952036756
F3.103368409020378
tp2145
aa(lp2146
g2143
ag68
ag67
ag2144
aa(lp2147
g2143
ag2145
a(F2.312037945451931
F3.3514897978759377
tp2148
a(F2.3389418616648125
F3.3904892446141517
tp2149
ag550
ag554
aa(lp2150
g2143
ag554
ag70
ag68
aa(lp2151
g1962
ag1970
a(F6.0156944558763135
F4.53315092140652
tp2152
a(F6.006271014020491
F4.546760099760718
tp2153
aa(lp2154
g1962
ag2153
a(F6.001081583150117
F4.554254589709535
tp2155
a(F5.87281662376871
F4.995745475695898
tp2156
a(F5.916863576811739
F5.0416772136304076
tp2157
ag1963
aa(lp2158
(F2.8958010429565357
F4.48611179965942
tp2159
ag1828
ag1833
ag925
ag924
aa(lp2160
g2159
ag1829
ag1828
aa(lp2161
g2159
ag2026
ag1490
ag1489
a(F3.3446957955825396
F4.8484125695014395
tp2162
ag1829
aa(lp2163
g2159
ag924
ag2027
ag2026
aa(lp2164
g1754
a(F7.436160304516799
F3.4843184744522127
tp2165
a(F7.446116339528373
F3.458109027301978
tp2166
aa(lp2167
g1754
ag2166
a(F7.707188512775747
F2.770831680529911
tp2168
ag1232
ag1238
aa(lp2169
g1754
ag1752
a(F7.417898244603705
F3.5323936864809244
tp2170
ag2165
aa(lp2171
g1921
ag2106
a(F2.2366098563592858
F1.3222305147830207
tp2172
ag1917
aa(lp2173
g1921
ag1855
ag2108
aa(lp2174
(F7.722928409218047
F5.558981831111806
tp2175
ag1595
ag1594
aa(lp2176
g2175
ag1594
a(F7.872398472912412
F5.044480205446673
tp2177
ag948
a(F7.5062042424648565
F5.395668457499786
tp2178
aa(lp2179
g2175
a(F7.510373371657424
F5.593408235102305
tp2180
a(F7.526248032742695
F5.671434687151444
tp2181
a(F7.81328055761561
F5.887729208780661
tp2182
ag1598
ag1595
aa(lp2183
g2175
ag2178
ag1886
ag2180
aa(lp2184
(F0.36144308873392383
F3.0562822713537687
tp2185
a(F0.3531892353256135
F3.123504512876764
tp2186
a(F0.3767740928994619
F3.113493334792775
tp2187
a(F0.3705501953700781
F3.062061816969864
tp2188
aa(lp2189
g2185
a(F0.0
F2.8269035122792583
tp2190
a(F0.0
F3.2734244486288144
tp2191
ag2186
aa(lp2192
g2185
a(F0.36567748335877587
F3.0217958946162202
tp2193
ag1698
a(F0.0
F2.736870675394478
tp2194
ag2190
aa(lp2195
g2185
ag2188
ag2193
aa(lp2196
g773
ag1099
a(F6.859577376998779
F6.02473007486092
tp2197
ag852
ag739
ag742
ag1407
aa(lp2198
g1166
ag1170
a(F6.953154436513643
F4.978915536316684
tp2199
ag293
ag1809
aa(lp2200
g1736
ag1494
ag1118
a(F3.623921522716137
F5.413052789514303
tp2201
a(F3.723130213544759
F5.39698448782157
tp2202
aa(lp2203
g1736
ag2202
a(F3.9689953177994672
F5.35716303026696
tp2204
ag1730
aa(lp2205
g1736
ag1735
ag1488
ag1494
aa(lp2206
g337
ag343
ag1028
aa(lp2207
g1628
a(F1.3768636812903412
F4.811354571615441
tp2208
ag1625
aa(lp2209
g1628
ag435
ag2069
a(F1.3322275773938241
F4.615610714080086
tp2210
aa(lp2211
g1628
ag2210
ag1773
a(F1.1330197576640446
F4.914860176280542
tp2212
ag2208
aa(lp2213
(F5.224772125169032
F6.169377945271337
tp2214
a(F5.476692521175273
F6.359213579985339
tp2215
ag1816
a(F5.230697585894197
F6.121118940380235
tp2216
aa(lp2217
g2214
a(F5.217695681100949
F6.227010957239994
tp2218
a(F5.235543664584417
F6.245622662327093
tp2219
ag1299
ag399
ag2215
aa(lp2220
g2214
ag2216
ag641
aa(lp2221
g2214
ag641
ag2218
aa(lp2222
g716
ag715
ag1408
ag742
aa(lp2223
g1003
a(F4.8413368453041095
F5.859132259465289
tp2224
ag1703
ag1702
aa(lp2225
g1003
ag1002
ag2224
aa(lp2226
g257
ag256
ag2100
ag478
ag490
aa(lp2227
g257
ag490
ag489
aa(lp2228
g257
ag489
a(F2.809216645474298
F2.929424031558648
tp2229
ag258
aa(lp2230
g1740
ag1739
ag909
ag908
ag1395
a(F4.180863400108247
F4.609211857338021
tp2231
aa(lp2232
g1740
ag30
ag39
ag1727
aa(lp2233
g1740
ag2231
ag31
ag30
aa(lp2234
g109
a(F0.8443508247056364
F3.3627448395347717
tp2235
a(F0.748609217901238
F3.4232701708812523
tp2236
a(F0.6366575389028182
F3.8086103774898383
tp2237
ag568
ag457
aa(lp2238
g109
ag106
ag2235
aa(lp2239
g1299
ag2219
ag1300
aa(lp2240
(F1.9273868387704987
F0.6780778927456867
tp2241
ag1540
ag1539
aa(lp2242
g2241
a(F1.903641339964604
F0.6369494823628115
tp2243
ag2086
ag1540
aa(lp2244
g2241
ag2120
ag2243
aa(lp2245
g2241
ag1539
a(F2.0525127757889274
F0.8382658851035176
tp2246
ag2121
ag2120
aa(lp2247
g1144
ag1760
ag971
ag970
a(F4.953052562485933
F4.831110860772485
tp2248
aa(lp2249
g1144
ag2248
ag693
ag691
ag747
aa(lp2250
(F6.279754606251558
F7.574282304500636
tp2251
a(F6.046141891591805
F7.5164690024649365
tp2252
ag1638
aa(lp2253
g2251
a(F6.581228143979989
F7.648889462410897
tp2254
a(F6.4540737188013315
F7.516294053851905
tp2255
aa(lp2256
g2251
ag1638
ag1637
a(F6.660088543449186
F7.731124326608912
tp2257
ag2254
aa(lp2258
g2251
ag2255
a(F6.277483684779236
F7.3321476690469165
tp2259
a(F6.014008584846072
F7.469889122605182
tp2260
ag2252
aa(lp2261
(F0.6794599079402139
F5.644786944276743
tp2262
ag1207
ag1206
a(F0.493465742442955
F5.629495440329263
tp2263
aa(lp2264
g2262
ag277
ag252
ag1215
aa(lp2265
g2262
ag2263
ag277
aa(lp2266
g2262
ag1215
ag1207
aa(lp2267
(F4.839343404131231
F2.0
tp2268
ag403
ag402
a(F5.3274998060103895
F2.0
tp2269
aa(lp2270
g1103
ag558
ag551
aa(lp2271
g1103
ag551
ag550
ag2149
aa(lp2272
g1103
ag2149
a(F2.3021789493180824
F3.3995190819642853
tp2273
a(F2.2665431004660785
F3.573123400802186
tp2274
ag1104
aa(lp2275
(F2.4125706861487037
F2.5158054496166162
tp2276
ag1390
ag1991
a(F2.498599624743024
F2.4426321643986926
tp2277
ag1251
aa(lp2278
g2276
ag1251
ag1250
aa(lp2279
g2276
ag1384
ag1390
aa(lp2280
g2276
ag1250
a(F2.270837369122246
F2.4609574803722727
tp2281
a(F2.167108663089675
F2.5265320462513428
tp2282
ag1380
ag1384
aa(lp2283
g1205
ag1210
a(F1.2293486350973923
F5.066858126502499
tp2284
a(F1.08852001818524
F5.032006567259799
tp2285
aa(lp2286
g1205
ag2285
ag1767
ag1766
ag1206
aa(lp2287
g2069
ag2068
ag1774
ag2210
aa(lp2288
g782
ag788
a(F3.346892333527371
F2.522064273187542
tp2289
aa(lp2290
g782
ag2289
ag631
a(F3.520137661069511
F3.100359729120665
tp2291
ag783
aa(lp2292
g1806
ag1782
ag1780
a(F2.919930449276665
F0.006442243087505517
tp2293
aa(lp2294
g1806
ag2293
a(F2.9196717020656155
F0.0
tp2295
ag1807
aa(lp2296
g324
ag323
a(F1.0375955996962523
F2.4820127519496396
tp2297
aa(lp2298
g324
ag384
ag325
aa(lp2299
g324
ag2297
a(F1.1591310871373706
F2.4521607730445947
tp2300
ag1010
ag384
aa(lp2301
g1557
ag984
ag2093
a(F0.3274379232115026
F1.1344352963535569
tp2302
ag1554
aa(lp2303
g1557
a(F0.024516664267537513
F0.7308488050753977
tp2304
a(F0.0
F0.7368706753944778
tp2305
ag985
ag984
aa(lp2306
g1557
ag1036
ag2304
aa(lp2307
g38
ag37
ag2162
a(F3.3665532706076293
F4.880096783291277
tp2308
ag1734
aa(lp2309
g38
ag1734
ag1728
aa(lp2310
g38
ag1728
ag1727
ag39
aa(lp2311
g1460
a(F5.208380404961902
F4.30287779318863
tp2312
a(F5.294988570215468
F4.393191952842971
tp2313
a(F5.460881378107144
F4.24642239449308
tp2314
a(F5.468948241884066
F4.180723061306547
tp2315
aa(lp2316
g1460
ag1459
ag2312
aa(lp2317
g1460
ag2315
a(F5.475643637497788
F4.1261934399560545
tp2318
ag1461
aa(lp2319
g1358
ag1365
a(F5.769778640893597
F4.888298460641378
tp2320
ag2155
a(F6.004267244940088
F4.5432894699068225
tp2321
a(F5.985105638690897
F4.510100594328596
tp2322
aa(lp2323
g1358
ag2322
ag658
aa(lp2324
g1039
a(F1.4747511185128204
F1.3494262201874014
tp2325
a(F1.786626734456699
F1.4824524434868787
tp2326
ag1040
aa(lp2327
g1039
ag1044
a(F1.3647481702396758
F1.3025059865670299
tp2328
ag2325
aa(lp2329
g2138
ag2137
a(F1.8725945423827777
F1.95272353332347
tp2330
aa(lp2331
g2138
ag2330
a(F1.9054965997259083
F1.9870334814807133
tp2332
a(F1.9406934219860852
F1.9129091459617305
tp2333
aa(lp2334
g2138
ag2333
ag1334
ag1333
aa(lp2335
(F7.438213145655638
F5.60509564143665
tp2336
ag1890
ag1935
a(F7.20192000451737
F5.887942576289317
tp2337
a(F7.336973318117688
F6.245350800027318
tp2338
a(F7.602458109238368
F6.046019180477626
tp2339
ag2181
aa(lp2340
g2336
ag2181
ag2180
aa(lp2341
g2336
ag2180
ag1886
ag1885
aa(lp2342
g2336
ag1885
ag1890
aa(lp2343
g77
ag135
ag81
aa(lp2344
g199
ag209
ag1015
ag1014
aa(lp2345
g199
ag1014
a(F2.803417628395928
F1.9513507813947832
tp2346
ag200
aa(lp2347
g1893
ag1502
ag1501
aa(lp2348
g1893
ag1501
ag2291
ag631
ag630
aa(lp2349
g516
ag689
ag517
aa(lp2350
(F5.2624135014626825
F5.8628135367100995
tp2351
ag641
ag1622
aa(lp2352
g2351
a(F5.470375044687064
F5.754093869253052
tp2353
ag1814
ag1812
aa(lp2354
g2351
ag1812
ag641
aa(lp2355
g2351
ag1622
ag1621
ag2353
aa(lp2356
(F2.091680966285919
F4.424985294732658
tp2357
ag431
ag430
aa(lp2358
g2357
a(F2.093263547691753
F4.428333271580661
tp2359
ag919
ag1106
ag431
aa(lp2360
g2357
ag430
ag438
a(F2.0905801572703533
F4.430348018098997
tp2361
aa(lp2362
g2357
ag2361
ag2359
aa(lp2363
g763
ag762
ag2259
aa(lp2364
g763
ag2259
ag2255
a(F6.685487540372526
F7.439312921418596
tp2365
aa(lp2366
g763
ag2365
ag1088
ag1094
ag764
aa(lp2367
g708
ag195
a(F3.0
F1.6674497824409509
tp2368
ag711
aa(lp2369
g708
ag707
ag17
ag196
ag195
aa(lp2370
(F3.894955530196146
F3.0755846667121958
tp2371
a(F4.08021596703419
F3.5658621867082365
tp2372
ag1948
ag1950
a(F3.950023634594169
F3.034238364391624
tp2373
aa(lp2374
g2371
a(F3.7941889197570577
F3.1512423779150427
tp2375
ag2372
aa(lp2376
g2371
ag784
ag783
ag2375
aa(lp2377
g2371
ag2373
ag790
ag784
aa(lp2378
(F5.778491038886136
F6.027652049844009
tp2379
a(F5.773826960736852
F6.020891083673637
tp2380
ag1127
ag933
aa(lp2381
g2379
ag88
ag87
a(F5.884800898400617
F6.136613635863639
tp2382
a(F5.790735795204487
F6.038523453222256
tp2383
aa(lp2384
g2379
ag933
ag93
ag88
aa(lp2385
g2379
ag2383
ag2380
aa(lp2386
g1519
ag1518
a(F1.226591247236791
F1.7780452346661093
tp2387
a(F1.2822851424565198
F1.8587781318056527
tp2388
ag454
ag2135
aa(lp2389
g563
a(F0.6000760168382393
F4.123273380916942
tp2390
ag564
aa(lp2391
g563
ag568
ag2237
a(F0.551285603633686
F4.102462506100135
tp2392
ag2390
aa(lp2393
(F7.711589162361114
F6.582415443542092
tp2394
a(F7.505125310926642
F6.690352136652886
tp2395
a(F7.509832809499642
F6.702810170138861
tp2396
ag1690
a(F7.782512690751957
F6.931015722780724
tp2397
aa(lp2398
g2394
a(F7.682466026587829
F6.439270657979191
tp2399
a(F7.392294173100033
F6.391753194665495
tp2400
ag2395
aa(lp2401
g2394
ag2397
ag868
ag867
aa(lp2402
g2394
ag867
ag2082
ag2399
aa(lp2403
g2085
ag1709
ag1708
a(F1.5124648603989725
F0.7940618040878786
tp2404
aa(lp2405
g2085
ag2404
ag1048
ag1536
aa(lp2406
(F3.6081619482357286
F5.885570082234004
tp2407
a(F3.8113196300276977
F5.705831348464032
tp2408
ag1605
ag1604
aa(lp2409
g2407
ag1604
ag1868
aa(lp2410
g2407
ag1868
a(F3.484053187060429
F6.0
tp2411
a(F4.139122751172729
F6.0
tp2412
ag1617
aa(lp2413
g2407
ag1617
ag1551
ag2408
aa(lp2414
g2326
ag2139
ag1333
ag1332
aa(lp2415
g2326
ag2325
ag1523
ag1526
ag2139
aa(lp2416
g2326
ag1332
ag1337
ag1040
aa(lp2417
g834
ag833
ag1613
a(F1.9246048543541467
F5.23891664589701
tp2418
aa(lp2419
g834
ag2418
a(F1.980959228430879
F4.964379542382014
tp2420
ag824
aa(lp2421
g1091
ag1420
ag1417
a(F6.927649193350578
F7.224085782740581
tp2422
aa(lp2423
g1091
ag2422
a(F6.779565566499651
F7.069665604476177
tp2424
ag1092
aa(lp2425
g2145
ag2144
ag1386
a(F2.1207617723487466
F3.0742192003093534
tp2426
a(F2.2617793049634836
F3.2786357510020574
tp2427
aa(lp2428
g2145
ag2427
ag2148
aa(lp2429
g959
a(F6.908762846929715
F7.002122898517527
tp2430
ag960
aa(lp2431
g959
ag590
ag589
aa(lp2432
g959
ag589
ag1484
ag1412
ag2114
a(F6.8287489673268595
F6.9601146725725265
tp2433
ag2430
aa(lp2434
(F5.881955615465522
F2.96428885994748
tp2435
ag1305
ag1304
ag600
aa(lp2436
g2435
ag600
ag599
aa(lp2437
g2435
a(F5.7486092179012385
F3.4232701708812527
tp2438
a(F6.169948896282134
F3.156910283110369
tp2439
ag1305
aa(lp2440
g2435
ag599
ag610
a(F5.570973817302356
F3.3497914305865457
tp2441
a(F5.731514352749926
F3.434077096022173
tp2442
ag2438
aa(lp2443
g506
a(F1.7451435425505406
F3.1102032112967066
tp2444
ag1983
a(F1.427227747451369
F2.994265344977319
tp2445
ag99
aa(lp2446
g506
ag505
ag668
ag2444
aa(lp2447
g506
ag99
ag98
ag500
aa(lp2448
g1283
a(F6.13746477925986
F6.817999206562657
tp2449
a(F6.1156307778424575
F6.840688091062514
tp2450
ag760
aa(lp2451
g1283
ag760
ag759
ag1284
aa(lp2452
g1283
ag1282
ag2449
aa(lp2453
g443
ag1994
a(F1.8035709399831266
F2.498552844601882
tp2454
a(F1.8306078833569954
F2.4963775037889997
tp2455
a(F2.062303699459373
F2.398028464832409
tp2456
ag1820
aa(lp2457
g2289
ag632
ag631
aa(lp2458
g2289
ag788
ag171
ag169
ag632
aa(lp2459
(F3.4885259528967163
F2.0
tp2460
a(F3.520749040013336
F2.08527592565251
tp2461
a(F3.7336697836639865
F2.120143034586528
tp2462
a(F3.8492860091981185
F2.0
tp2463
aa(lp2464
g990
ag989
a(F0.0
F1.7533551027270442
tp2465
a(F0.20040373792258304
F1.769831289178055
tp2466
ag1677
aa(lp2467
(F7.74345828576048
F7.555656716676336
tp2468
a(F7.649953932790461
F7.570801117237992
tp2469
a(F7.760817033091323
F7.706732708093944
tp2470
a(F7.765545578599661
F7.593913030075449
tp2471
aa(lp2472
g2468
ag965
ag963
ag2469
aa(lp2473
g2468
ag2471
a(F7.767310912713618
F7.551793434106572
tp2474
aa(lp2475
g2468
ag2474
ag1693
ag965
aa(lp2476
g2461
a(F3.5592312584024213
F2.1871161615807044
tp2477
a(F3.6424308204039058
F2.214954345611024
tp2478
ag2462
aa(lp2479
g2461
ag2460
ag160
ag159
aa(lp2480
g2461
ag159
ag185
ag2477
aa(lp2481
g2014
ag2018
a(F7.790523006577151
F2.78447822723793
tp2482
ag2168
ag2166
aa(lp2483
g2014
ag2166
ag2165
a(F7.499105478824591
F3.5053796351608417
tp2484
ag2015
aa(lp2485
g1847
ag1845
a(F2.1549308052359564
F1.4637027812426435
tp2486
a(F2.1496452146182485
F1.4728576927405226
tp2487
ag1336
ag1339
aa(lp2488
g1847
ag1339
ag1342
aa(lp2489
g1847
ag1342
a(F2.4849378960076125
F1.8725350157904521
tp2490
a(F2.609305950689383
F1.9033129977140033
tp2491
a(F2.6159865616477793
F1.8707675988469843
tp2492
ag1018
aa(lp2493
g1312
a(F5.999946935986204
F2.491260150701547
tp2494
ag604
ag603
aa(lp2495
g1312
ag1311
a(F6.580529316231895
F2.5597824104422555
tp2496
a(F6.646580822553917
F2.332431634458845
tp2497
a(F6.020876713458202
F2.4861193042809977
tp2498
aa(lp2499
g1312
ag2498
ag2494
aa(lp2500
g1965
ag2157
a(F5.8566383156585555
F5.051431577463357
tp2501
a(F5.83233840303206
F5.135072425334845
tp2502
aa(lp2503
g1965
ag1963
ag2157
aa(lp2504
g1965
ag2502
a(F5.78797133119336
F5.287784888264358
tp2505
a(F5.848969316105553
F5.3625758070247045
tp2506
ag1966
aa(lp2507
(F1.6975764158484585
F3.5912506724926585
tp2508
a(F1.8703123604234069
F3.9566763884292175
tp2509
a(F2.150989197935551
F3.4705298453504296
tp2510
a(F2.1211029680735223
F3.4439956088300843
tp2511
a(F1.7418600911554323
F3.5371465937811437
tp2512
aa(lp2513
g2508
ag670
ag502
a(F1.5823217328456773
F3.7320643786231242
tp2514
aa(lp2515
g2508
ag2512
ag666
ag670
aa(lp2516
g2508
ag2514
ag2067
ag2066
ag2509
aa(lp2517
g1981
a(F1.2038686163950334
F2.5468037478952685
tp2518
a(F1.271340145158363
F2.6895408705268338
tp2519
a(F1.305045206624302
F2.719465624401738
tp2520
ag1973
aa(lp2521
g1981
ag1979
a(F1.6874895226315103
F2.4461553194865715
tp2522
a(F1.6331713566863744
F2.3674166554596394
tp2523
aa(lp2524
g1981
ag2523
a(F1.614476673705497
F2.340317169740478
tp2525
ag2300
ag2518
aa(lp2526
(F2.6403832261079794
F0.43936584092808983
tp2527
ag2125
a(F2.512251411740371
F0.7092108152451799
tp2528
aa(lp2529
g2527
ag1578
ag1577
ag2126
ag2125
aa(lp2530
g2527
a(F2.6454257503887115
F0.43320508013535314
tp2531
ag1578
aa(lp2532
g2527
ag2528
ag1897
ag1896
a(F2.6824660265878286
F0.4392706579791905
tp2533
ag2531
aa(lp2534
g544
ag538
ag1472
ag1186
aa(lp2535
g130
ag1498
ag126
aa(lp2536
g1397
ag2231
ag1395
aa(lp2537
g1397
ag1714
ag31
ag2231
aa(lp2538
g1397
ag519
ag510
ag1714
aa(lp2539
g2126
ag1577
ag1586
aa(lp2540
g1029
ag1028
ag343
aa(lp2541
g1029
a(F0.0
F0.09614210736755496
tp2542
a(F0.0
F0.241374268844058
tp2543
ag1030
aa(lp2544
g1029
ag343
ag2542
aa(lp2545
g1328
a(F2.898973517679698
F2.410418845841413
tp2546
ag487
ag1024
aa(lp2547
g1328
ag1325
ag60
ag2546
aa(lp2548
g2103
ag2102
a(F3.1010543184886163
F3.6716625573669193
tp2549
aa(lp2550
g2103
ag2549
ag1924
ag1923
aa(lp2551
g2103
ag1923
ag2098
aa(lp2552
g1640
a(F7.76603365663265
F2.174746648846842
tp2553
ag888
ag887
ag1641
aa(lp2554
g1640
ag1643
ag2553
aa(lp2555
g594
ag593
ag1691
ag2396
aa(lp2556
g594
ag2395
ag2400
a(F7.186802059265757
F6.358102570516364
tp2557
ag595
aa(lp2558
g594
ag2396
ag2395
aa(lp2559
g1878
ag825
ag824
ag2420
aa(lp2560
g1878
ag2420
ag1879
aa(lp2561
g1878
ag1877
a(F2.0387989061014014
F4.530379738721103
tp2562
ag825
aa(lp2563
(F6.24777759236968
F3.7051213564016012
tp2564
a(F6.137908926769605
F3.6474390173910214
tp2565
a(F6.101987585193324
F3.679219535820301
tp2566
ag661
ag654
aa(lp2567
g2564
ag617
a(F6.3008361039626095
F3.5032932274455875
tp2568
ag2565
aa(lp2569
g2564
ag618
ag617
aa(lp2570
g2564
ag654
ag653
ag618
aa(lp2571
g1734
ag2308
ag1735
aa(lp2572
g277
a(F0.26931031664721305
F5.611066509673073
tp2573
ag279
aa(lp2574
g277
ag253
ag252
aa(lp2575
g277
ag276
ag1318
aa(lp2576
g277
a(F0.36658310703821306
F5.619063788804221
tp2577
ag2573
aa(lp2578
g277
ag2263
ag2577
aa(lp2579
g2392
ag2237
a(F0.4659660823498592
F3.8505362204479203
tp2580
a(F0.4934681768959105
F4.077801283719721
tp2581
aa(lp2582
g2392
ag2581
a(F0.5087487265498086
F4.204072941978551
tp2583
a(F0.5262681816296212
F4.1885730374481875
tp2584
aa(lp2585
g2392
ag2584
ag2390
aa(lp2586
g2514
a(F1.5289862030606385
F3.797227662420296
tp2587
ag2067
aa(lp2588
g2514
ag502
ag498
ag2587
aa(lp2589
(F1.973173318024191
F2.6491328821017754
tp2590
ag1984
ag1430
ag1429
aa(lp2591
g2590
ag1429
a(F2.000172381361628
F2.6320647827760393
tp2592
aa(lp2593
g2590
a(F1.8106585303123435
F2.5048455017561286
tp2594
ag1977
ag1984
aa(lp2595
g2590
ag2592
a(F2.0586859295830062
F2.478026779906605
tp2596
ag2455
ag2594
aa(lp2597
g1139
ag746
ag745
ag915
aa(lp2598
g1139
ag915
ag1706
ag1141
aa(lp2599
g281
ag279
ag2573
a(F0.5925236645642541
F5.144287156061085
tp2600
aa(lp2601
g281
ag2600
ag1770
ag1295
ag1217
aa(lp2602
(F5.0299815300060695
F7.755820033189854
tp2603
a(F5.0884700598052754
F7.27946918444221
tp2604
a(F5.0
F7.257575058105429
tp2605
a(F5.0
F7.753355102727044
tp2606
aa(lp2607
g2603
a(F5.0
F8.0
tp2608
a(F5.069985321450015
F7.759108943533595
tp2609
aa(lp2610
g2603
ag2606
ag2608
aa(lp2611
g2603
ag2609
a(F5.170858723909124
F7.4119004148839025
tp2612
ag1074
ag2604
aa(lp2613
(F5.0
F7.196152422706634
tp2614
a(F5.1196678299355955
F6.988881661226671
tp2615
a(F5.091921635063063
F6.7595994615491435
tp2616
a(F5.0
F6.7203915615825345
tp2617
aa(lp2618
g426
ag431
ag1106
aa(lp2619
g2474
a(F7.826984733900098
F7.5421283840593025
tp2620
ag1871
ag1693
aa(lp2621
g2474
ag2471
ag73
ag2620
aa(lp2622
g358
ag349
ag1612
aa(lp2623
(F4.689671422124692
F2.2663427133727474
tp2624
a(F4.696271963735806
F2.2777751868006684
tp2625
ag404
ag403
aa(lp2626
g2624
a(F4.647284099463576
F2.2697531163779425
tp2627
ag2625
aa(lp2628
g2624
a(F4.535898384862241
F2.0
tp2629
a(F4.186190802305202
F2.0
tp2630
a(F4.227072681869066
F2.200940857781732
tp2631
ag2627
aa(lp2632
g2624
ag403
ag2268
ag2629
aa(lp2633
g779
ag790
a(F3.95320127839931
F2.99398910239047
tp2634
a(F3.901208261726733
F2.9397712859186607
tp2635
aa(lp2636
g779
ag2635
a(F3.806198512811484
F2.8406960358296125
tp2637
ag780
aa(lp2638
g1699
ag1698
ag2193
aa(lp2639
g1699
ag2193
ag2188
a(F0.42160647533669104
F3.0944631174974933
tp2640
a(F0.49149125945031513
F3.0647987866050146
tp2641
ag1224
ag334
ag696
aa(lp2642
g1932
a(F8.0
F3.672976597510366
tp2643
ag1933
aa(lp2644
g1932
ag540
ag546
a(F8.0
F3.7475362858837054
tp2645
ag2643
aa(lp2646
g1932
ag541
ag540
aa(lp2647
g568
ag458
ag457
aa(lp2648
g276
ag274
ag1319
aa(lp2649
(F0.27637493142788105
F0.20826344892436177
tp2650
a(F0.18628433240493486
F0.09780146100303354
tp2651
ag343
aa(lp2652
g2650
ag1939
ag905
ag2651
aa(lp2653
g2650
ag343
ag345
ag1940
aa(lp2654
g2650
ag1940
ag1939
aa(lp2655
g1993
ag451
ag2525
ag2523
aa(lp2656
g1993
ag2523
ag2522
ag1994
aa(lp2657
g727
ag2042
a(F6.483825058203151
F4.885912632766969
tp2658
a(F6.475825385519518
F4.891918956915198
tp2659
aa(lp2660
g727
ag2659
ag728
aa(lp2661
g2057
ag1564
ag2058
aa(lp2662
g2057
ag2064
ag1565
ag1564
aa(lp2663
g1054
ag1911
ag1915
ag1055
aa(lp2664
g1054
ag1062
a(F0.6122609013559179
F1.0135351150534333
tp2665
a(F0.5848031427521092
F1.2371606132585515
tp2666
ag680
ag678
ag1911
aa(lp2667
g1071
ag1070
ag2616
ag2615
aa(lp2668
g1071
ag2615
ag1073
aa(lp2669
(F5.380416032754628
F5.450609478175329
tp2670
ag1202
ag1201
a(F5.442326881046178
F5.54035436183312
tp2671
aa(lp2672
g2670
ag2671
a(F5.740909381164883
F5.2300812364740565
tp2673
a(F5.628528839953182
F5.092289079239569
tp2674
aa(lp2675
g2670
ag2674
a(F5.625710693887305
F5.088833690774338
tp2676
a(F5.4483002272056895
F5.1175679163575944
tp2677
a(F5.378538136801126
F5.20280053546981
tp2678
a(F5.331216236721806
F5.302460225567573
tp2679
a(F5.323208038146955
F5.367681769025175
tp2680
aa(lp2681
g2670
ag2680
a(F5.303255331303808
F5.530183525731579
tp2682
ag1202
aa(lp2683
g1987
ag2044
a(F2.8118951291650593
F2.1189149630466497
tp2684
a(F2.7733301680713422
F2.1432947194187157
tp2685
aa(lp2686
g1987
ag2685
ag1242
ag1241
ag2277
ag1988
aa(lp2687
g1987
ag1986
ag2045
ag2044
aa(lp2688
(F2.674103530986411
F0.39816767892658
tp2689
a(F2.923429112181492
F0.09355134398455683
tp2690
a(F2.9224281582980534
F0.06862976817184642
tp2691
ag1581
ag1579
aa(lp2692
g2689
ag1579
ag1578
ag2531
aa(lp2693
g2689
ag2531
ag2533
aa(lp2694
g2689
ag2533
ag1900
a(F2.9248963861048116
F0.13008327509850157
tp2695
ag2690
aa(lp2696
(F6.468749784684021
F7.0282390639918475
tp2697
ag1092
ag2424
ag1287
ag1285
aa(lp2698
g2697
ag1284
ag759
ag764
ag1093
aa(lp2699
g2697
ag1093
ag1092
aa(lp2700
g2697
ag1285
ag1284
aa(lp2701
g2627
ag2631
a(F4.247615030310843
F2.301909726160051
tp2702
aa(lp2703
g2627
ag2702
a(F4.272838230170936
F2.425885714298498
tp2704
a(F4.610014398382675
F2.538703282029789
tp2705
a(F4.775278887820959
F2.414619193465891
tp2706
ag2625
aa(lp2707
g27
ag1789
ag1863
ag1919
ag623
aa(lp2708
g2494
ag2498
a(F6.118117991081386
F2.1514126313178394
tp2709
ag310
ag320
aa(lp2710
g2494
ag320
ag604
aa(lp2711
g475
ag474
ag2090
a(F1.6448429793923975
F0.33841332985550543
tp2712
aa(lp2713
g475
a(F1.6465808225539174
F0.3324316344588445
tp2714
a(F1.6639955577847834
F0.2724897226274863
tp2715
ag471
aa(lp2716
g475
ag2712
ag2714
aa(lp2717
g788
ag787
ag172
ag171
aa(lp2718
g2466
a(F0.0
F1.8965212732475574
tp2719
ag230
ag229
ag1679
aa(lp2720
g2466
ag1679
ag1677
aa(lp2721
g2466
ag2465
ag2719
aa(lp2722
(F4.947800968853876
F4.700357595308148
tp2723
ag693
ag2248
aa(lp2724
g2723
ag219
ag218
ag693
aa(lp2725
g2723
ag2248
ag970
ag975
a(F5.157538327366782
F4.514797655310553
tp2726
aa(lp2727
g2723
ag2726
a(F5.009677328980411
F4.333502159499377
tp2728
ag219
aa(lp2729
g67
ag1387
ag1386
ag2144
aa(lp2730
g67
ag66
ag1387
aa(lp2731
g2714
a(F1.717737141960288
F0.3149539660789915
tp2732
a(F1.6962719637358061
F0.27777518680066815
tp2733
ag2715
aa(lp2734
g2714
ag2712
a(F1.7883164300574643
F0.5143291606555558
tp2735
a(F1.8240814962267575
F0.4991477907666204
tp2736
ag2732
aa(lp2737
g1803
ag1802
ag1254
ag880
aa(lp2738
g1803
a(F4.369721836282559
F2.7191200409973044
tp2739
ag1804
aa(lp2740
g1803
ag880
ag879
ag2739
aa(lp2741
g2284
a(F1.239486717485296
F5.069367048245086
tp2742
ag827
ag1625
ag2208
aa(lp2743
g2284
ag1210
ag2742
aa(lp2744
g2284
ag2208
ag2212
ag2285
aa(lp2745
g647
a(F4.7260379356539115
F6.0
tp2746
a(F4.890791337793398
F6.0
tp2747
ag640
aa(lp2748
g647
ag1618
a(F4.154540675044206
F6.0
tp2749
ag2746
aa(lp2750
g2592
ag1429
ag1381
ag1380
ag2282
aa(lp2751
g2592
ag2282
a(F2.1233082175571263
F2.4728273940696774
tp2752
ag2596
aa(lp2753
(F1.799968161591723
F0.29475609042092804
tp2754
ag2733
ag2732
aa(lp2755
g2754
a(F2.0379797077036446
F0.333731975830452
tp2756
ag1399
aa(lp2757
g2754
ag1399
ag819
a(F1.713079059864105
F0.10354320032847109
tp2758
a(F1.6737787415668128
F0.23881578317803687
tp2759
ag2733
aa(lp2760
g2754
ag2732
ag2736
a(F2.0725823157641083
F0.3936654510655675
tp2761
ag2756
aa(lp2762
g249
ag1614
ag832
ag250
aa(lp2763
(F5.438248844674137
F5.670953459872706
tp2764
a(F5.500287708049529
F5.6243733636666775
tp2765
ag2671
ag1201
aa(lp2766
g2764
a(F5.502081881720414
F5.73751793542926
tp2767
a(F5.558128047086961
F5.708217708250627
tp2768
ag2765
aa(lp2769
g2764
ag1201
ag1195
ag1814
aa(lp2770
g2764
ag1814
ag2353
ag2767
aa(lp2771
g2037
a(F6.670574662855545
F4.481777931437786
tp2772
ag1168
ag1167
ag1906
ag1748
aa(lp2773
g2037
ag2036
a(F6.6296595627764665
F4.37349926093731
tp2774
ag2772
aa(lp2775
g2177
ag1594
ag1592
a(F7.8811767772287205
F5.041560052265997
tp2776
aa(lp2777
g2177
ag949
ag948
aa(lp2778
g2177
ag2776
ag953
ag949
aa(lp2779
g623
ag1919
ag1021
ag625
aa(lp2780
g2695
ag1900
ag119
ag118
aa(lp2781
g2695
ag118
ag116
aa(lp2782
g2695
ag116
ag2690
aa(lp2783
g2444
ag668
ag1432
aa(lp2784
g2444
ag1432
ag1430
ag1984
ag1983
aa(lp2785
g200
ag2346
a(F2.7821340590083703
F1.9820881591216148
tp2786
ag188
aa(lp2787
g104
ag1225
ag105
aa(lp2788
g104
ag103
ag2519
a(F1.1183237156230263
F2.5536865271876623
tp2789
ag328
aa(lp2790
g575
ag573
ag1636
aa(lp2791
g1501
ag1499
a(F3.609675667584833
F3.2897788463455515
tp2792
ag2291
aa(lp2793
(F5.15075533326584
F5.481096739345685
tp2794
a(F5.1558627064460705
F5.474856748680125
tp2795
a(F5.153243755179381
F5.472531534939
tp2796
aa(lp2797
g2794
ag2796
ag1762
a(F5.048351335106668
F5.606209976636204
tp2798
aa(lp2799
g2794
ag2798
ag641
aa(lp2800
g2794
ag641
a(F5.221630207032197
F5.533247868067233
tp2801
ag2795
aa(lp2802
g1273
ag1598
ag2081
ag1274
aa(lp2803
g1489
ag1488
ag1735
ag2308
aa(lp2804
g1489
ag2308
ag2162
aa(lp2805
(F2.611728027778027
F1.968078233099115
tp2806
ag794
ag793
a(F2.6751807838809416
F1.9732949992693443
tp2807
aa(lp2808
g2806
a(F2.596272391220533
F1.9668075484687777
tp2809
ag801
ag794
aa(lp2810
g2806
ag2807
a(F2.6390225577309874
F1.9106671144660587
tp2811
ag2491
a(F2.5981169515045064
F1.9578215514469453
tp2812
aa(lp2813
g2806
ag2812
ag2809
aa(lp2814
g1043
ag1049
a(F1.421210164009869
F0.9980695033141018
tp2815
aa(lp2816
g1043
ag2815
a(F1.3686102440185275
F1.0313217923923346
tp2817
ag1044
aa(lp2818
(F5.954791574640017
F7.384049179555495
tp2819
ag2062
ag2060
aa(lp2820
g2819
a(F5.916662008485591
F7.4844259709010545
tp2821
a(F5.963859839352818
F7.496106253180772
tp2822
ag2260
aa(lp2823
g2819
ag2060
ag2059
ag2821
aa(lp2824
g2819
ag2260
ag2259
ag762
ag757
ag2062
aa(lp2825
g2022
ag2482
ag2018
aa(lp2826
g2022
ag1600
a(F7.782058668337042
F2.573734604933797
tp2827
ag2482
aa(lp2828
g2022
ag2021
ag1600
aa(lp2829
g1704
ag641
ag1706
aa(lp2830
g1704
ag1703
ag641
aa(lp2831
g1010
ag2300
ag2525
ag450
a(F1.3881102361482256
F2.129689571068982
tp2832
ag1007
aa(lp2833
g1010
ag382
ag384
aa(lp2834
g256
ag265
ag2101
ag2100
aa(lp2835
(F7.843011841855726
F2.0126309672964164
tp2836
ag12
ag11
ag892
aa(lp2837
g2836
ag892
ag1600
aa(lp2838
g2836
a(F7.849009466087949
F2.0
tp2839
a(F7.7697313123725955
F2.0
tp2840
ag3
ag12
aa(lp2841
g2836
ag1600
ag2839
aa(lp2842
g51
ag50
ag698
aa(lp2843
g2320
ag2156
ag2155
aa(lp2844
g2320
ag1365
a(F5.548901853211613
F4.994656747530699
tp2845
ag2676
a(F5.63157966769708
F5.087883124437715
tp2846
aa(lp2847
g2320
ag2846
ag2501
ag2156
aa(lp2848
(F6.190644320182562
F6.625102243143521
tp2849
ag1279
a(F6.274342926970407
F6.542824307309302
tp2850
ag145
ag144
aa(lp2851
g2849
ag1353
a(F5.915843475439576
F6.67735405041141
tp2852
ag2449
ag1282
ag1280
aa(lp2853
g2849
ag1280
ag1279
aa(lp2854
g2849
ag144
ag1353
aa(lp2855
g341
ag339
ag1370
a(F0.5719207670395862
F0.596393461434282
tp2856
a(F0.23554366458441645
F0.2456226623270918
tp2857
aa(lp2858
g341
ag2857
ag345
aa(lp2859
g2054
a(F5.960640581126144
F7.001746735544586
tp2860
ag395
ag2000
ag2055
aa(lp2861
g2054
ag756
ag755
ag2860
aa(lp2862
g1583
a(F2.6254423418688506
F0.1589902930951195
tp2863
a(F2.348724710900963
F0.2764499586421709
tp2864
ag1585
aa(lp2865
g1583
ag1582
ag1783
ag2863
aa(lp2866
g1295
ag1770
ag1769
a(F0.6143727236370045
F4.914666974724986
tp2867
aa(lp2868
g1295
ag2867
ag1296
aa(lp2869
g553
ag1465
ag70
ag554
aa(lp2870
g2462
ag2631
ag2630
ag2463
aa(lp2871
g2462
ag2478
a(F3.9692498344478384
F2.324306458034406
tp2872
ag2702
ag2631
aa(lp2873
g1461
ag2077
ag1462
aa(lp2874
g1461
ag2318
a(F5.504938430235761
F3.8876064993622927
tp2875
a(F5.281017073364213
F3.718869653987225
tp2876
ag2077
aa(lp2877
g2712
ag2090
ag2087
ag2735
aa(lp2878
(F2.1414828258223335
F1.048903020016073
tp2879
a(F2.1829672844038712
F0.9982189158435661
tp2880
ag2246
ag1538
aa(lp2881
g2879
ag1538
ag1534
ag2109
aa(lp2882
g2879
ag2109
ag2108
aa(lp2883
g2879
ag2108
ag1855
ag1854
ag2880
aa(lp2884
g640
ag2747
ag641
aa(lp2885
g2625
ag2706
ag406
ag404
aa(lp2886
(F6.460391284798595
F2.9733002269522677
tp2887
ag1307
a(F6.3647555618562155
F3.125831462265659
tp2888
a(F6.411529974054349
F3.141481961659615
tp2889
aa(lp2890
g2887
ag1308
ag1307
aa(lp2891
g2887
a(F6.9183987347407
F2.683759936245246
tp2892
a(F6.909538708456894
F2.6402115157609227
tp2893
a(F6.618013081999693
F2.5924723636216704
tp2894
ag1308
aa(lp2895
g2887
ag2889
ag615
ag1347
ag2892
aa(lp2896
g2573
ag2577
ag1766
ag1765
ag2600
aa(lp2897
g2246
ag2880
a(F2.3229088521034713
F0.8272437304880805
tp2898
ag2123
ag2121
aa(lp2899
g2246
ag1539
ag1538
aa(lp2900
g2201
ag1117
ag1605
ag2408
ag1550
a(F3.7801993705955086
F5.479710940475693
tp2901
aa(lp2902
g2201
ag2901
ag2202
aa(lp2903
g2201
ag1118
ag1117
aa(lp2904
(F2.2632794466369424
F1.9394305449322977
tp2905
ag2333
ag2332
ag1823
a(F2.2163195160919016
F2.0630534346035585
tp2906
aa(lp2907
g2905
ag1341
ag1334
ag2333
aa(lp2908
g2905
ag2906
ag801
ag2809
aa(lp2909
g2905
ag2809
ag2812
ag2490
ag1341
aa(lp2910
g537
a(F7.575922938956159
F4.065942349880482
tp2911
ag1909
ag1472
ag538
aa(lp2912
g537
ag542
a(F7.67865782510423
F3.5654570098316247
tp2913
ag2911
aa(lp2914
g1402
ag1400
ag2864
ag2863
aa(lp2915
g1402
ag2863
ag1783
ag1782
aa(lp2916
g258
ag2229
ag59
ag70
ag1465
aa(lp2917
g2106
ag2105
ag2486
ag2172
aa(lp2918
g1258
ag1263
ag1559
aa(lp2919
g1400
ag1399
ag2756
a(F2.164837011578772
F0.354505656015165
tp2920
ag2864
aa(lp2921
(F5.3402762314081595
F3.22867249020631
tp2922
ag2441
ag610
a(F5.342966158224749
F3.2067647943460944
tp2923
aa(lp2924
g2922
ag2923
a(F5.320710041635722
F3.2184000109199284
tp2925
aa(lp2926
g2922
ag2925
ag873
ag2074
aa(lp2927
g2922
ag2074
a(F5.46217001209747
F3.604349519980914
tp2928
a(F5.546243930603012
F3.551200194990566
tp2929
ag2441
aa(lp2930
g2455
ag2596
a(F2.080567770163994
F2.4204224280144526
tp2931
ag2456
aa(lp2932
g2455
ag2454
ag2594
aa(lp2933
g2617
ag2616
a(F5.012602296652005
F6.104139768016294
tp2934
a(F5.0
F6.096142107367555
tp2935
aa(lp2936
g1409
a(F6.199329712433603
F6.401290108320051
tp2937
ag2116
aa(lp2938
g1409
ag1408
ag715
ag149
ag2937
aa(lp2939
g825
ag2562
ag437
ag826
aa(lp2940
g2148
ag2273
ag2149
aa(lp2941
g2148
ag2427
a(F2.1737787415668137
F3.431057197899775
tp2942
ag2273
aa(lp2943
g522
ag1238
ag523
aa(lp2944
g1823
ag1822
a(F2.162091343763303
F2.205810105813338
tp2945
ag2906
aa(lp2946
g1823
ag2332
ag1824
aa(lp2947
g1287
a(F6.56760331370162
F6.8230101392528795
tp2948
ag1288
aa(lp2949
g1287
ag2424
a(F6.888182366576093
F7.012882113637113
tp2950
ag2433
ag2948
aa(lp2951
g2077
ag2876
ag2073
aa(lp2952
(F2.924376761085014
F3.8043158197503564
tp2953
ag1757
ag1837
ag1835
aa(lp2954
g2953
ag1835
ag1831
ag1926
ag1924
ag2549
aa(lp2955
g2953
ag2549
ag2102
a(F2.936930343810374
F3.5047964097000257
tp2956
aa(lp2957
g2953
ag2956
ag264
ag1757
aa(lp2958
g1780
ag116
ag2293
aa(lp2959
g1742
a(F2.778730252065608
F2.0939234355871967
tp2960
ag156
ag165
aa(lp2961
g1742
ag1744
a(F2.751499180462649
F2.1054823397010525
tp2962
ag2960
aa(lp2963
g1263
ag1262
ag2373
ag1950
aa(lp2964
g1263
ag1950
ag1946
ag226
ag1559
aa(lp2965
g2330
ag447
ag445
ag1824
ag2332
aa(lp2966
g2330
ag2137
ag453
ag447
aa(lp2967
g1820
ag2456
a(F2.094220851562643
F2.3844804375594393
tp2968
a(F2.148814119590258
F2.2407626451385525
tp2969
ag1822
aa(lp2970
g1650
ag1943
ag1651
aa(lp2971
g2218
ag641
a(F5.117971099042355
F6.171008843372325
tp2972
a(F5.216865853240354
F6.233769362812261
tp2973
aa(lp2974
g2218
ag2973
ag2219
aa(lp2975
g1368
ag1367
ag2314
a(F5.426076086062851
F4.529888750428624
tp2976
aa(lp2977
g1368
a(F5.425321620382399
F4.536033380298249
tp2978
ag1377
a(F5.503692936626404
F4.9392251392171636
tp2979
ag1364
aa(lp2980
g1368
ag2976
ag2978
aa(lp2981
(F1.6726256808859903
F6.0
tp2982
ag351
ag359
ag248
a(F1.4805425380391228
F6.0
tp2983
aa(lp2984
g1797
ag2872
ag2478
a(F3.590242772266412
F2.269185751656495
tp2985
ag1798
aa(lp2986
g1797
ag1804
ag2704
ag2872
aa(lp2987
g453
ag2135
ag454
aa(lp2988
g1265
ag1067
ag1076
aa(lp2989
g1265
ag1076
a(F5.3590292751606405
F7.243886102659462
tp2990
a(F5.473763962737616
F7.002255411833039
tp2991
ag2002
aa(lp2992
g1265
ag2002
ag1266
aa(lp2993
g510
ag509
ag1449
ag1714
aa(lp2994
g2925
ag2923
ag1081
ag1724
aa(lp2995
g2925
ag1724
ag874
ag873
aa(lp2996
g103
ag2520
ag2519
aa(lp2997
g103
ag102
ag1974
ag2520
aa(lp2998
g2305
ag2304
a(F0.0
F0.7203915615825347
tp2999
aa(lp3000
g1324
ag61
ag60
ag1325
aa(lp3001
g1324
ag1323
ag2045
ag1986
aa(lp3002
g368
ag367
ag1128
aa(lp3003
g368
ag1128
ag2380
ag2383
ag714
ag370
aa(lp3004
g17
ag707
ag18
aa(lp3005
g406
ag2706
ag407
aa(lp3006
g1055
a(F1.110908387033532
F1.1942341437014823
tp3007
a(F1.1322757636207104
F1.180726248951124
tp3008
ag1652
ag1056
aa(lp3009
g1055
ag1915
ag3007
aa(lp3010
g1492
ag1123
ag1121
aa(lp3011
g1492
ag1490
ag2026
aa(lp3012
g1975
ag1974
ag102
ag100
ag2445
aa(lp3013
g1975
ag2445
ag1983
aa(lp3014
g1345
ag1641
ag1346
aa(lp3015
g1732
ag1731
ag998
ag1004
aa(lp3016
g1732
ag1004
ag1738
aa(lp3017
g595
ag2557
ag768
aa(lp3018
g1720
ag407
ag2706
ag2705
aa(lp3019
g1720
ag2705
ag2739
ag879
ag1721
aa(lp3020
g1720
ag408
ag407
aa(lp3021
g1352
ag1355
ag398
ag393
aa(lp3022
g1352
ag393
ag392
ag2852
ag1353
aa(lp3023
(F8.0
F2.8187814004450873
tp3024
ag2021
ag2020
a(F8.0
F2.8825387432045266
tp3025
aa(lp3026
g2257
a(F6.8132708014196215
F7.706314214566457
tp3027
ag2254
aa(lp3028
g2257
a(F6.794745295228708
F7.871543089010185
tp3029
ag848
ag3027
aa(lp3030
g2257
ag1637
a(F6.282285142456519
F7.858778131805653
tp3031
a(F6.7888171736616
F7.900422645406333
tp3032
ag3029
aa(lp3033
g1756
ag559
ag1108
ag929
aa(lp3034
(F8.0
F4.431637901343932
tp3035
ag545
ag1190
a(F8.0
F4.6250586869119505
tp3036
aa(lp3037
g1242
ag2685
ag2962
ag1248
aa(lp3038
(F6.958235972173902
F7.075078615123472
tp3039
ag2422
ag1417
ag1416
aa(lp3040
g3039
ag2950
ag2424
ag2422
aa(lp3041
g3039
ag960
ag2430
ag2950
aa(lp3042
g3039
ag1416
ag961
ag960
aa(lp3043
g2546
ag60
ag59
ag2229
ag488
aa(lp3044
g2546
ag488
ag487
aa(lp3045
g1141
ag1706
ag641
aa(lp3046
g1141
ag641
ag1142
aa(lp3047
g427
ag1104
ag2274
aa(lp3048
g427
ag2274
ag2510
ag2509
ag428
aa(lp3049
g675
ag45
ag44
ag380
aa(lp3050
g675
ag379
a(F1.2049825944333534
F1.852422705466949
tp3051
ag2387
ag676
aa(lp3052
g675
ag380
ag379
aa(lp3053
g145
ag2850
ag2116
ag2937
ag147
aa(lp3054
g320
ag318
ag605
ag604
aa(lp3055
g998
ag1731
ag2204
ag999
aa(lp3056
g2162
ag37
ag1830
ag1829
aa(lp3057
g1858
ag1788
ag307
ag1898
a(F2.514292289638923
F0.8412704319733346
tp3058
aa(lp3059
g1858
ag3058
a(F2.458421507704983
F0.8225763298413176
tp3060
ag1859
aa(lp3061
g250
ag1213
ag242
aa(lp3062
g250
ag832
ag830
ag1209
ag1213
aa(lp3063
g801
ag2906
ag2945
ag802
aa(lp3064
g2568
a(F6.249736288413134
F3.368061489534088
tp3065
a(F6.12123483438093
F3.6386849231767693
tp3066
ag2565
aa(lp3067
g2568
ag617
ag616
aa(lp3068
g2568
ag616
ag2889
ag2888
ag3065
aa(lp3069
g437
ag2562
ag438
aa(lp3070
g1698
ag237
ag232
a(F0.0
F2.6541757936678305
tp3071
ag2194
aa(lp3072
g174
ag188
ag2786
ag797
aa(lp3073
g2449
ag2852
ag396
ag2450
aa(lp3074
g1871
ag1694
ag1693
aa(lp3075
g1871
ag2620
ag81
ag135
aa(lp3076
g1772
ag2212
ag1773
aa(lp3077
g1772
ag1767
ag2285
ag2212
aa(lp3078
(F5.7431625316513095
F5.442017787921541
tp3079
ag2505
ag2673
ag2671
ag2765
aa(lp3080
g3079
ag374
ag373
ag2506
aa(lp3081
g3079
ag2765
ag2768
ag374
aa(lp3082
g3079
ag2506
ag2505
aa(lp3083
g1598
ag2182
ag2081
aa(lp3084
g1621
ag1851
ag2767
ag2353
aa(lp3085
g1621
ag1133
ag1130
ag1851
aa(lp3086
g484
ag815
ag486
aa(lp3087
(F5.899430092052804
F7.529789311077881
tp3088
ag1631
ag1638
ag2252
ag2822
aa(lp3089
g3088
ag2822
ag2821
aa(lp3090
g3088
ag2821
ag2059
ag1669
ag1668
aa(lp3091
g3088
ag1668
ag1632
ag1631
aa(lp3092
g2365
ag2255
ag2254
ag3027
ag842
ag840
ag1089
aa(lp3093
g2365
ag1089
ag1088
aa(lp3094
g881
ag880
ag1254
aa(lp3095
(F0.7260797805906444
F6.0
tp3096
a(F0.7248075082059848
F5.98948650752711
tp3097
a(F0.7208138070586844
F6.0
tp3098
aa(lp3099
g845
ag1544
ag1543
a(F7.56957595178237
F7.893480817004
tp3100
aa(lp3101
g845
ag844
a(F7.087361252834443
F7.924967436652677
tp3102
ag1544
aa(lp3103
g845
ag3100
ag417
ag846
aa(lp3104
(F6.754020224792847
F2.3060419861615853
tp3105
ag806
ag809
a(F6.713079059864106
F2.103543200328469
tp3106
ag2497
aa(lp3107
g3105
ag807
ag806
aa(lp3108
g3105
ag2497
ag2496
a(F6.651038433607523
F2.5229211346750464
tp3109
aa(lp3110
g3105
ag3109
a(F6.863118399513134
F2.4120484078715028
tp3111
ag807
aa(lp3112
g1172
a(F6.8474181518670685
F5.0341931300808165
tp3113
a(F6.874053328892115
F5.020268596035125
tp3114
aa(lp3115
g1172
ag1164
ag2042
ag2011
ag3113
aa(lp3116
g1172
ag3114
ag2199
ag1170
aa(lp3117
g1234
ag1600
ag1643
aa(lp3118
g1234
ag1233
ag1600
aa(lp3119
g1636
ag573
ag572
a(F6.379707583724243
F8.0
tp3120
ag3031
aa(lp3121
g1636
ag3031
ag1637
aa(lp3122
g1670
ag1563
ag1574
ag1672
aa(lp3123
g1670
ag1669
ag2058
ag1564
ag1563
aa(lp3124
g1775
ag1774
ag2068
aa(lp3125
g1775
ag1953
ag1776
aa(lp3126
g1775
ag2068
ag2067
ag2587
ag497
ag1953
aa(lp3127
g828
ag2742
ag1210
ag1209
ag830
aa(lp3128
g828
ag827
ag2742
aa(lp3129
g1800
ag1798
ag2985
aa(lp3130
g1800
ag2985
ag2477
ag185
ag184
aa(lp3131
g1800
ag184
ag193
a(F3.4823556263937654
F2.3634810358588925
tp3132
ag1793
aa(lp3133
g1202
ag2682
ag1199
aa(lp3134
(F5.707102237782231
F4.0285845792778465
tp3135
a(F5.617724602137098
F3.873777973280098
tp3136
ag1441
ag1436
aa(lp3137
g3135
ag1436
ag1435
aa(lp3138
g3135
ag2566
ag3066
a(F5.743622638903355
F3.4404340883723084
tp3139
ag3136
aa(lp3140
g3135
ag1435
ag1392
ag661
ag2566
aa(lp3141
g378
ag1008
ag455
ag2388
ag3051
aa(lp3142
g378
ag3051
ag379
aa(lp3143
g2015
ag2913
ag542
ag2016
aa(lp3144
g2015
ag2484
ag2913
aa(lp3145
g2875
a(F5.5261182087742045
F3.715111045677425
tp3146
ag2928
ag2876
aa(lp3147
g2875
ag1441
ag3136
ag3146
aa(lp3148
g2875
ag2318
a(F5.52379488866894
F4.162478010293592
tp3149
ag1438
ag1441
aa(lp3150
g1049
ag2404
ag1708
ag1711
ag2815
aa(lp3151
g1049
ag1048
ag2404
aa(lp3152
g1748
ag1906
a(F7.205053276101603
F4.092712020703781
tp3153
ag1749
aa(lp3154
g100
ag99
ag2445
aa(lp3155
g2950
ag2430
ag2433
aa(lp3156
g2999
ag2304
ag1036
ag1030
ag2543
aa(lp3157
g1316
ag1309
a(F6.60806168596462
F2.590842760025275
tp3158
aa(lp3159
g1316
ag2496
ag1311
aa(lp3160
g1316
ag3158
a(F6.6214942892297355
F2.5851409582230986
tp3161
ag3109
ag2496
aa(lp3162
g1711
ag1653
ag2817
ag2815
aa(lp3163
g1711
ag1654
ag1653
aa(lp3164
g1337
ag2487
ag2105
ag1041
ag1040
aa(lp3165
g1337
ag1336
ag2487
aa(lp3166
g2396
ag1691
ag1690
aa(lp3167
g156
ag2960
ag2684
ag157
aa(lp3168
g903
ag474
ag473
aa(lp3169
g106
ag105
a(F0.7783603724899248
F3.320866025105016
tp3170
ag2235
aa(lp3171
g8
ag807
ag3111
aa(lp3172
g8
ag3111
a(F6.876327025606552
F2.4769708792853584
tp3173
ag886
ag9
aa(lp3174
g2042
ag1164
ag1163
a(F6.6570944228112285
F4.755818313917741
tp3175
ag2658
aa(lp3176
g545
ag3035
ag2645
ag546
aa(lp3177
g2197
ag1099
ag1098
aa(lp3178
g2197
ag853
ag852
aa(lp3179
g2197
ag1098
ag1937
ag1146
ag853
aa(lp3180
g3132
ag1794
ag1793
aa(lp3181
g3132
ag192
a(F3.4472501080709916
F2.4177771152015577
tp3182
ag1794
aa(lp3183
g3132
ag193
ag192
aa(lp3184
g2020
ag1931
ag1930
ag3025
aa(lp3185
g169
ag168
ag632
aa(lp3186
g1070
ag1078
a(F5.03397293258732
F6.117701985981635
tp3187
ag2934
ag2616
aa(lp3188
g2792
ag1499
ag1446
ag1444
aa(lp3189
g2792
ag1444
ag1443
ag2372
ag2375
aa(lp3190
g2792
ag2375
ag783
ag2291
aa(lp3191
g2237
ag2236
a(F0.4380216057386614
F3.619615508772415
tp3192
ag2580
aa(lp3193
g2011
ag2008
ag3113
aa(lp3194
g150
ag714
ag2382
ag91
aa(lp3195
g150
ag149
ag715
aa(lp3196
g3158
ag1309
ag1308
ag2894
aa(lp3197
g3158
ag2894
ag3161
aa(lp3198
g1279
ag1278
a(F6.338195485643111
F6.609409139829667
tp3199
ag2850
aa(lp3200
g2985
ag2478
ag2477
aa(lp3201
g2482
ag2827
ag2168
aa(lp3202
g1651
ag1059
ag1058
aa(lp3203
g1651
ag1943
ag2856
ag1059
aa(lp3204
g1392
ag1435
ag1360
aa(lp3205
g760
ag2450
ag2860
ag755
aa(lp3206
g2935
ag2934
ag641
aa(lp3207
g2827
ag1233
ag1232
ag2168
aa(lp3208
g2827
ag1600
ag1233
aa(lp3209
g323
ag328
ag2789
ag2297
aa(lp3210
g235
ag55
ag1680
ag1679
ag229
aa(lp3211
g235
ag695
ag698
ag50
ag55
aa(lp3212
g1760
ag979
ag971
aa(lp3213
(F0.5125761717273718
F4.2357012446517075
tp3214
ag1292
ag564
ag2390
ag2584
aa(lp3215
g3214
ag1293
ag1292
aa(lp3216
g3214
ag2584
ag2583
aa(lp3217
g3214
ag2583
a(F0.1853849086662818
F4.490161081303374
tp3218
a(F0.1474500996754588
F4.799115307403682
tp3219
ag1663
ag1293
aa(lp3220
g929
ag1108
ag918
aa(lp3221
g1093
ag764
ag1094
aa(lp3222
g2202
ag2901
ag1549
ag999
ag2204
aa(lp3223
g1612
a(F2.248765629654189
F5.6357794435977855
tp3224
a(F2.254414726221139
F5.632208232993167
tp3225
a(F2.3152989036647633
F5.335603648183006
tp3226
a(F2.1329243437525975
F5.290470507501062
tp3227
ag1613
aa(lp3228
g1612
ag349
ag348
ag3224
aa(lp3229
g2709
a(F6.162107426927666
F2.0
tp3230
a(F5.736707365417429
F2.0
tp3231
ag311
ag310
aa(lp3232
g2709
ag3106
a(F6.743161140391499
F2.0
tp3233
ag3230
aa(lp3234
g2709
ag2498
ag2497
ag3106
aa(lp3235
g1877
ag1875
ag2359
ag2361
aa(lp3236
g1877
ag2361
ag438
ag2562
aa(lp3237
(F6.611489786051765
F4.325414342087333
tp3238
a(F6.390573464622399
F4.554980366437272
tp3239
a(F6.484163627663918
F4.62550561284699
tp3240
ag2774
aa(lp3241
g3238
ag2036
ag2035
ag529
a(F6.496389742926473
F3.8389387645769277
tp3242
a(F6.451928818436434
F3.9031484939343253
tp3243
aa(lp3244
g3238
ag3243
a(F6.134299228071461
F4.361863877547311
tp3245
ag3239
aa(lp3246
g3238
ag2774
ag2036
aa(lp3247
g55
ag54
ag1680
aa(lp3248
g1058
ag1056
ag1652
aa(lp3249
g1581
ag2691
ag1785
ag1582
aa(lp3250
g653
a(F6.4942684985348915
F3.839644408666477
tp3251
ag612
ag618
aa(lp3252
g653
ag652
ag3251
aa(lp3253
g3051
ag2388
ag2387
aa(lp3254
g2677
a(F5.416569241700205
F5.122707214576846
tp3255
ag2678
aa(lp3256
g2677
ag2676
ag2845
aa(lp3257
g2677
ag2845
ag2979
ag3255
aa(lp3258
(F6.76837687827531
F8.0
tp3259
ag3032
ag3031
ag3120
aa(lp3260
g1903
ag2911
ag2913
ag2484
ag2170
ag3153
ag1904
aa(lp3261
g1903
ag1909
ag2911
aa(lp3262
g2125
ag2124
ag3060
ag2528
aa(lp3263
g3060
ag2124
ag2898
ag1859
aa(lp3264
g3060
ag3058
ag1897
ag2528
aa(lp3265
(F5.989157847500198
F5.482880774130823
tp3266
ag733
ag1966
ag2506
ag373
aa(lp3267
g3266
ag363
ag362
ag723
ag1842
ag734
aa(lp3268
g3266
ag734
ag733
aa(lp3269
g3266
ag373
ag363
aa(lp3270
g116
ag115
ag703
aa(lp3271
g116
ag2691
ag2690
aa(lp3272
g116
ag1785
ag2691
aa(lp3273
g1342
ag1341
ag2490
aa(lp3274
g1789
ag1788
ag1863
aa(lp3275
g1554
ag2302
a(F0.5013499506597513
F1.0606140204658216
tp3276
ag1555
aa(lp3277
g1517
ag1913
ag1518
aa(lp3278
g2640
a(F0.45162089806291106
F3.1135108493642005
tp3279
ag2641
aa(lp3280
g2640
ag2187
a(F0.3864166226142342
F3.19317490675663
tp3281
ag3279
aa(lp3282
g2640
ag2188
ag2187
aa(lp3283
g2113
ag2116
ag2850
ag3199
aa(lp3284
g2113
ag3199
ag1288
ag2948
ag2114
aa(lp3285
g396
ag395
ag2860
ag2450
aa(lp3286
g396
ag2852
ag392
aa(lp3287
g1663
ag1219
ag1293
aa(lp3288
g1663
ag3219
ag1659
aa(lp3289
g526
ag524
ag1236
aa(lp3290
g410
ag409
ag1080
aa(lp3291
g410
ag605
ag318
ag317
aa(lp3292
g1978
ag2454
ag1994
ag2522
aa(lp3293
g1978
ag2522
ag1979
aa(lp3294
g1978
ag1977
ag2594
ag2454
aa(lp3295
(F6.571188900909627
F4.691083859962596
tp3296
ag3175
ag1168
ag2772
aa(lp3297
g3296
ag2772
ag2774
ag3240
aa(lp3298
g3296
ag3240
ag1969
a(F6.480033919533264
F4.883055804867776
tp3299
aa(lp3300
g3296
ag3299
ag2658
ag3175
aa(lp3301
g923
ag2027
ag924
aa(lp3302
g923
ag922
ag1874
aa(lp3303
g451
ag450
ag2525
aa(lp3304
g1851
ag1849
ag2768
ag2767
aa(lp3305
g1966
ag733
ag731
aa(lp3306
(F1.7431611403914988
F0.0
tp3307
ag2758
ag819
ag818
aa(lp3308
g2565
ag3066
ag2566
aa(lp3309
g2759
ag2715
ag2733
aa(lp3310
g2759
ag1451
ag464
ag471
ag2715
aa(lp3311
g2759
ag2758
ag1451
aa(lp3312
g3029
ag3032
a(F6.825317530311558
F7.903423520978451
tp3313
aa(lp3314
g3029
ag3313
ag3102
ag844
ag848
aa(lp3315
g417
ag3100
a(F7.751107077553327
F7.938405228838186
tp3316
ag418
aa(lp3317
(F3.9682519241025145
F2.990292309235655
tp3318
ag1255
ag1802
ag1795
ag2637
ag2635
aa(lp3319
g3318
ag2634
ag1262
ag1256
aa(lp3320
g3318
ag1256
ag1255
aa(lp3321
g3318
ag2635
ag2634
aa(lp3322
g1128
ag1127
ag2380
aa(lp3323
g1879
ag2420
ag2418
ag3227
a(F2.3386084237242297
F5.222048520896218
tp3324
ag2029
ag1881
aa(lp3325
g2894
ag2893
ag3173
ag3161
aa(lp3326
g2008
ag2007
ag297
ag3114
ag3113
aa(lp3327
g455
ag454
ag2388
aa(lp3328
g455
ag1008
ag2832
ag449
aa(lp3329
g1586
ag1585
ag2129
aa(lp3330
g3136
ag3139
ag2442
ag2929
ag3146
aa(lp3331
g2373
ag1262
ag2634
ag790
aa(lp3332
g2880
ag1854
ag1859
ag2898
aa(lp3333
(F5.1993030195031045
F5.421783057289372
tp3334
a(F5.249635365158647
F5.474269142036734
tp3335
a(F5.30960790859215
F5.347967258914137
tp3336
ag1373
aa(lp3337
g3334
ag1373
ag977
ag980
aa(lp3338
g3334
ag980
ag2796
ag2795
aa(lp3339
g3334
ag2795
ag2801
ag3335
aa(lp3340
g1002
ag996
ag641
ag2224
aa(lp3341
g497
ag2587
ag498
aa(lp3342
g1565
ag2064
ag2991
ag2990
ag1567
aa(lp3343
g963
ag961
ag1416
ag423
ag2469
aa(lp3344
g2659
ag3299
ag1969
ag737
ag728
aa(lp3345
g2659
ag2658
ag3299
aa(lp3346
g1136
ag1142
ag2798
ag1762
aa(lp3347
g1245
ag1244
ag802
ag2945
ag2969
aa(lp3348
g1245
ag2968
ag2931
ag2752
ag2281
ag1246
aa(lp3349
g1245
ag2969
ag2968
aa(lp3350
g842
ag3027
ag848
aa(lp3351
g1816
ag2215
ag398
ag1355
aa(lp3352
g1816
ag941
ag940
ag2216
aa(lp3353
g1618
ag1617
ag2412
ag2749
aa(lp3354
g2100
ag479
ag478
aa(lp3355
g3313
ag3032
ag3259
a(F6.9179310439257975
F8.0
tp3356
aa(lp3357
g3313
ag3356
a(F7.139122751172729
F8.0
tp3358
ag3102
aa(lp3359
g123
ag126
ag1498
ag1505
ag2098
ag1923
aa(lp3360
g2058
ag1669
ag2059
aa(lp3361
g1015
ag209
ag207
ag626
aa(lp3362
g799
ag803
ag1744
aa(lp3363
g868
ag2397
ag1509
aa(lp3364
g937
ag641
ag938
aa(lp3365
g937
ag1622
ag641
aa(lp3366
g374
ag2768
ag1849
ag365
aa(lp3367
g2756
ag2761
ag2920
aa(lp3368
g757
ag756
ag2062
aa(lp3369
g2888
ag1307
ag1306
aa(lp3370
g2888
ag1306
ag2439
ag3065
aa(lp3371
g1509
ag2397
ag1690
ag1512
aa(lp3372
g1206
ag1766
ag2577
ag2263
aa(lp3373
g2315
ag2314
ag1367
ag1439
ag3149
aa(lp3374
g2315
ag3149
ag2318
aa(lp3375
g2580
ag3192
a(F0.2800093686730088
F3.719506698448564
tp3376
a(F0.2576380467957473
F3.901706493868708
tp3377
aa(lp3378
g2580
ag3377
a(F0.24882860221851813
F3.973453662343704
tp3379
ag2581
aa(lp3380
g2300
ag2297
ag2789
ag2518
aa(lp3381
g1724
ag883
ag874
aa(lp3382
g1241
ag1251
ag2277
aa(lp3383
(F5.242026593530215
F8.0
tp3384
ag1155
ag2608
aa(lp3385
g1647
ag901
ag905
ag1939
aa(lp3386
g2811
ag2807
ag2786
ag2346
aa(lp3387
g2811
ag2492
ag2491
aa(lp3388
g2811
ag2346
ag1014
ag1013
ag2492
aa(lp3389
g2928
ag2074
ag2073
ag2876
aa(lp3390
g2928
ag3146
ag2929
aa(lp3391
g1370
ag1060
ag1059
ag2856
aa(lp3392
g1370
ag1033
ag1555
ag1064
ag1060
aa(lp3393
g2960
ag2962
ag2685
ag2684
aa(lp3394
g1112
ag1124
ag2030
a(F2.549528699328911
F5.393569662328318
tp3395
ag1528
aa(lp3396
g1641
ag887
a(F6.971289734624227
F2.6503236340977647
tp3397
ag1346
aa(lp3398
g4
ag3
ag2840
aa(lp3399
g222
ag220
ag2728
ag1459
aa(lp3400
g2786
ag2807
ag793
ag797
aa(lp3401
g1451
ag2758
ag3307
ag1452
aa(lp3402
g2181
ag2339
ag2182
aa(lp3403
g2673
ag2502
ag2501
ag2846
ag2674
aa(lp3404
g2673
ag2505
ag2502
aa(lp3405
g2282
ag2281
ag2752
aa(lp3406
g2224
ag641
ag1703
aa(lp3407
g3219
a(F0.0
F4.762625096842381
tp3408
ag1660
ag1659
aa(lp3409
g3219
ag3218
a(F0.0
F4.65417579366783
tp3410
ag3408
aa(lp3411
g115
ag113
ag704
aa(lp3412
g219
ag2728
ag220
aa(lp3413
g1569
a(F5.112715365019439
F7.762621992602478
tp3414
a(F5.161586189988328
F7.766639905803843
tp3415
ag1570
aa(lp3416
g1569
ag1568
ag1075
ag2612
aa(lp3417
g1569
ag2612
ag2609
ag3414
aa(lp3418
g389
ag1300
a(F5.375955460132155
F6.544978464374806
tp3419
ag1998
aa(lp3420
g149
ag147
ag2937
aa(lp3421
g3281
ag2187
ag2186
a(F0.33726074538863476
F3.253231652998028
tp3422
aa(lp3423
g3281
ag3192
ag2236
ag3170
ag3279
aa(lp3424
g3281
ag3422
ag3376
ag3192
aa(lp3425
g2302
ag2095
a(F0.5626580844144353
F1.3968188566480615
tp3426
ag682
ag2666
ag3276
aa(lp3427
g2302
ag2093
ag2095
aa(lp3428
g1116
ag1605
ag1117
aa(lp3429
g867
ag859
ag2082
aa(lp3430
g137
ag141
ag861
aa(lp3431
g2511
ag2942
ag2427
ag2426
a(F1.9456228880706723
F3.28819710333439
tp3432
aa(lp3433
g2511
ag3432
ag2512
aa(lp3434
g2511
ag2510
ag2942
aa(lp3435
g1886
ag2178
ag1887
aa(lp3436
g2153
ag2321
ag2155
aa(lp3437
g2153
ag2152
a(F6.008736134737745
F4.527907450330638
tp3438
ag2321
aa(lp3439
g1574
a(F5.214991150735239
F7.776591139009674
tp3440
a(F5.221867826314058
F7.83341692396591
tp3441
ag1672
aa(lp3442
g1574
ag1573
ag3440
aa(lp3443
g1255
ag1254
ag1802
aa(lp3444
g2789
ag2519
ag2518
aa(lp3445
g2471
ag2470
ag73
aa(lp3446
g2321
ag3438
ag2322
aa(lp3447
g723
ag362
ag371
aa(lp3448
g47
ag46
ag683
aa(lp3449
g47
ag683
ag3426
ag1683
ag1682
aa(lp3450
g47
ag1682
ag48
aa(lp3451
g1528
ag3395
ag1529
aa(lp3452
g486
ag1024
ag487
aa(lp3453
g680
ag2666
ag682
aa(lp3454
g1062
ag1064
ag2665
aa(lp3455
g1064
ag1555
ag3276
ag2665
aa(lp3456
g351
ag2982
ag352
aa(lp3457
g3438
ag2152
ag3245
ag651
ag659
aa(lp3458
g3438
ag659
ag658
ag2322
aa(lp3459
g2426
ag1427
ag667
ag3432
aa(lp3460
g2426
ag1386
ag1382
ag1427
aa(lp3461
g2978
ag2976
ag2313
a(F5.185384908666282
F4.490161081303374
tp3462
ag975
ag974
aa(lp3463
g2978
ag974
ag1377
aa(lp3464
g1159
ag1672
ag3441
ag1160
aa(lp3465
g2219
ag2973
a(F5.208465166904291
F6.302187462565916
tp3466
ag3419
ag1300
aa(lp3467
g2215
ag399
ag398
aa(lp3468
g3336
ag3335
ag2682
ag2680
aa(lp3469
g3336
ag2679
ag1374
ag1373
aa(lp3470
g3336
ag2680
ag2679
aa(lp3471
g1804
ag2739
ag2705
ag2704
aa(lp3472
g1456
ag1455
ag2076
aa(lp3473
g1456
ag2076
ag871
ag876
ag1259
aa(lp3474
g1721
ag879
ag878
aa(lp3475
(F0.0
F3.6652837644888145
tp3476
ag3422
ag2186
ag2191
aa(lp3477
g1881
ag2029
ag1882
aa(lp3478
g1267
ag3419
ag3466
ag1269
aa(lp3479
g1267
ag1266
ag1998
ag3419
aa(lp3480
g1973
ag2520
ag1974
aa(lp3481
g1408
ag1407
ag742
aa(lp3482
g2411
ag1868
ag1867
aa(lp3483
g313
ag311
ag3231
aa(lp3484
g886
ag3173
ag2893
ag3397
ag887
aa(lp3485
g380
ag44
ag52
aa(lp3486
g2484
ag2165
ag2170
aa(lp3487
g2418
ag1613
ag3227
aa(lp3488
g1918
ag1917
ag2172
aa(lp3489
g1918
ag2172
ag2486
ag1845
ag1022
aa(lp3490
g1918
ag1022
ag1021
aa(lp3491
g3114
ag297
ag294
ag2199
aa(lp3492
g832
ag1614
ag833
aa(lp3493
g2064
ag2005
ag2003
ag2991
aa(lp3494
g3414
ag2608
ag3415
aa(lp3495
g3414
ag2609
ag2608
aa(lp3496
g112
ag301
ag706
ag704
ag113
aa(lp3497
g294
ag293
ag2199
aa(lp3498
g3397
ag2893
ag2892
aa(lp3499
g3397
ag2892
ag1347
ag1346
aa(lp3500
g2007
ag1148
ag1147
ag298
aa(lp3501
g2007
ag298
ag297
aa(lp3502
g3098
ag3097
a(F0.7199316140350154
F5.949194289222921
tp3503
a(F0.6905989232414979
F6.000000000000001
tp3504
aa(lp3505
g2229
ag489
ag488
aa(lp3506
g1443
ag1948
ag2372
aa(lp3507
g3218
ag2583
ag2581
ag3379
aa(lp3508
g3218
ag3379
a(F0.14530653614817146
F3.9292977592416953
tp3509
a(F0.0
F3.964988467718607
tp3510
ag3410
aa(lp3511
g2931
ag2968
ag2456
aa(lp3512
g2931
ag2596
ag2752
aa(lp3513
g1155
ag1154
ag2608
aa(lp3514
g1155
ag3384
ag582
ag580
aa(lp3515
g919
ag2359
ag1875
ag920
aa(lp3516
g2973
ag2972
ag3466
aa(lp3517
g839
ag1089
ag840
aa(lp3518
g64
ag1389
ag66
aa(lp3519
g706
ag301
ag270
ag18
ag707
aa(lp3520
g1543
ag1542
a(F7.748525491755266
F8.0
tp3521
a(F7.749389053973709
F7.979396029653955
tp3522
aa(lp3523
g1543
ag3522
ag3316
ag3100
aa(lp3524
g1367
ag1362
ag1439
aa(lp3525
g786
ag3182
ag787
aa(lp3526
g786
ag2637
ag1795
ag1794
ag3182
aa(lp3527
g786
ag780
ag2637
aa(lp3528
g3066
ag3065
ag2439
ag2438
ag3139
aa(lp3529
g3071
ag232
ag231
aa(lp3530
g2216
ag940
ag641
aa(lp3531
g2856
ag1943
ag1941
ag2857
aa(lp3532
g2934
ag3187
ag641
aa(lp3533
g2641
ag3279
ag3170
ag105
ag1225
aa(lp3534
g2641
ag1225
ag1224
aa(lp3535
g1098
ag1097
ag2337
ag1937
aa(lp3536
g1909
ag1468
ag1472
aa(lp3537
g2676
ag2674
ag2846
aa(lp3538
g616
ag615
ag2889
aa(lp3539
g3240
ag3239
ag1970
ag1969
aa(lp3540
g1523
ag2325
ag2328
ag1524
aa(lp3541
g2400
ag2338
ag2557
aa(lp3542
g2400
ag2399
ag2339
ag2338
aa(lp3543
g402
ag315
ag314
ag2269
aa(lp3544
g1946
ag214
ag226
aa(lp3545
g1774
ag1773
ag2210
aa(lp3546
g2604
ag1073
ag2615
ag2614
ag2605
aa(lp3547
g2604
ag1074
ag1073
aa(lp3548
g1246
ag2281
ag1250
aa(lp3549
g809
ag812
ag3233
ag3106
aa(lp3550
g1770
ag2600
ag1765
aa(lp3551
g803
ag802
ag1244
ag1248
aa(lp3552
g803
ag1248
ag2962
ag1744
aa(lp3553
g248
ag246
ag3097
ag3096
ag2983
aa(lp3554
g2114
ag2948
ag2433
aa(lp3555
g2328
a(F1.1689844023219627
F1.2190056634457282
tp3556
ag1524
aa(lp3557
g2328
ag1044
ag2817
ag3008
ag3556
aa(lp3558
g2702
ag2872
ag2704
aa(lp3559
g953
ag2776
a(F8.0
F5.0020328270285255
tp3560
ag955
aa(lp3561
g1762
ag2796
ag980
ag979
aa(lp3562
g3335
ag2801
ag1197
ag1199
ag2682
aa(lp3563
g2002
ag2991
ag2003
aa(lp3564
g2501
ag2157
ag2156
aa(lp3565
g172
ag787
ag3182
ag192
aa(lp3566
g1364
ag2979
ag2845
ag1365
aa(lp3567
g2204
ag1731
ag1730
aa(lp3568
g1439
ag1438
ag3149
aa(lp3569
g2399
ag2082
ag2081
ag2182
ag2339
aa(lp3570
(F2.8323503278368434
F6.0
tp3571
ag1865
ag1179
ag1181
aa(lp3572
g91
ag2382
ag87
aa(lp3573
g3510
ag3509
a(F0.027582630365582395
F3.879084258160741
tp3574
a(F0.0
F3.896521273247557
tp3575
aa(lp3576
g2487
ag2486
ag2105
aa(lp3577
g2801
ag641
ag1197
aa(lp3578
g3227
ag3226
ag3324
aa(lp3579
g2235
ag3170
ag2236
aa(lp3580
g1809
ag293
ag292
aa(lp3581
g610
ag608
ag1081
ag2923
aa(lp3582
g3432
ag667
ag666
ag2512
aa(lp3583
g735
ag734
ag1842
aa(lp3584
g2274
ag2273
ag2942
ag2510
aa(lp3585
g1776
ag1955
ag2867
ag1769
aa(lp3586
g3058
ag1898
ag1897
aa(lp3587
g2129
ag1585
ag2864
ag2920
aa(lp3588
g2129
ag2920
ag2761
ag2119
aa(lp3589
g1142
ag641
ag2798
aa(lp3590
g3161
ag3173
ag3111
ag3109
aa(lp3591
g2491
ag2490
ag2812
aa(lp3592
g2728
ag2726
ag3462
ag2312
ag1459
aa(lp3593
g2260
ag2822
ag2252
aa(lp3594
g1935
ag1937
ag2337
aa(lp3595
g2313
ag2312
ag3462
aa(lp3596
g2313
ag2976
ag2314
aa(lp3597
g1190
ag951
ag956
ag3036
aa(lp3598
g2066
ag433
ag428
ag2509
aa(lp3599
g1865
ag3571
ag1866
aa(lp3600
g687
ag217
ag215
aa(lp3601
g1991
ag1390
ag1389
aa(lp3602
g1991
ag1988
ag2277
aa(lp3603
g1904
ag3153
ag1906
aa(lp3604
g3504
ag3503
ag253
ag277
aa(lp3605
g2761
ag2736
ag2243
ag2120
ag2119
aa(lp3606
g3574
ag3509
ag3377
ag3376
aa(lp3607
g3574
a(F0.0
F3.8673192693042244
tp3608
ag3575
aa(lp3609
g3574
ag3376
ag3422
ag3476
ag3608
aa(lp3610
g612
ag3251
ag3242
ag528
aa(lp3611
g157
ag2684
ag2044
ag181
aa(lp3612
g940
ag938
ag641
aa(lp3613
g1272
ag1271
ag1590
aa(lp3614
g3509
ag3379
ag3377
aa(lp3615
g2857
ag1941
ag1940
ag345
aa(lp3616
g195
ag152
ag2368
aa(lp3617
g905
ag898
ag1479
ag2651
aa(lp3618
g1163
ag1168
ag3175
aa(lp3619
g1833
ag927
ag925
aa(lp3620
g36
ag1830
ag37
aa(lp3621
g36
ag1926
ag1831
ag1830
aa(lp3622
g2553
ag1643
ag1600
ag894
aa(lp3623
g2553
ag894
ag888
aa(lp3624
g2969
ag2945
ag1822
aa(lp3625
g2817
ag1653
ag1652
ag3008
aa(lp3626
g2929
ag2442
ag2441
aa(lp3627
g975
ag3462
ag2726
aa(lp3628
g332
ag696
ag334
aa(lp3629
g1545
ag1544
ag3102
ag3358
aa(lp3630
g2442
ag3139
ag2438
aa(lp3631
g2735
ag2086
ag2243
ag2736
aa(lp3632
g2735
ag2087
ag2086
aa(lp3633
g3466
ag2972
a(F5.064921533099803
F6.137342565098843
tp3634
ag1269
aa(lp3635
g246
ag245
ag3503
ag3097
aa(lp3636
g1568
ag1567
ag2990
aa(lp3637
g1568
ag2990
ag1076
ag1075
aa(lp3638
g3395
ag3226
ag3225
ag1529
aa(lp3639
g3395
ag2030
ag3324
ag3226
aa(lp3640
g2095
ag1683
ag3426
aa(lp3641
g2000
ag2005
ag2055
aa(lp3642
g2152
ag1970
ag3239
ag3245
aa(lp3643
g2679
ag2678
ag1374
aa(lp3644
g541
ag1931
ag2016
ag542
aa(lp3645
g2101
ag2956
ag2102
aa(lp3646
g2101
ag265
ag264
ag2956
aa(lp3647
g1898
ag307
ag304
aa(lp3648
g682
ag3426
ag683
aa(lp3649
g460
ag459
ag494
aa(lp3650
g460
ag500
ag98
aa(lp3651
g2470
ag2469
ag423
ag420
aa(lp3652
g2470
ag420
ag73
aa(lp3653
g768
ag2557
ag2338
ag2337
ag1097
aa(lp3654
g768
ag1097
ag769
aa(lp3655
g356
ag1183
ag3224
ag348
aa(lp3656
g530
ag529
ag2035
aa(lp3657
g2029
ag3324
ag2030
aa(lp3658
g1013
ag1018
ag2492
aa(lp3659
g587
ag1484
ag589
aa(lp3660
g3007
ag1915
ag1521
ag1524
ag3556
aa(lp3661
g3007
ag3556
ag3008
aa(lp3662
g3522
ag3521
ag73
aa(lp3663
g3522
ag73
ag3316
aa(lp3664
g3243
ag652
ag651
ag3245
aa(lp3665
g3243
ag3242
ag3251
ag652
aa(lp3666
g1749
ag3153
ag2170
ag1752
aa(lp3667
g73
ag81
ag2620
aa(lp3668
g73
ag418
ag3316
aa(lp3669
g2533
ag1896
ag1900
aa(lp3670
g1377
ag1375
ag3255
ag2979
aa(lp3671
g1292
ag1291
ag565
ag564
aa(lp3672
g714
ag2383
ag2382
aa(lp3673
g3634
ag641
ag3187
aa(lp3674
g3634
ag3187
ag1078
ag1269
aa(lp3675
g3634
ag2972
ag641
aa(lp3676
g2651
ag1479
ag343
aa(lp3677
g1278
ag1288
ag3199
aa(lp3678
g528
ag3242
ag529
aa(lp3679
g1007
ag2832
ag1008
aa(lp3680
g1887
ag2178
ag948
ag947
aa(lp3681
g2293
ag116
ag2295
aa(lp3682
g2439
ag1306
ag1305
aa(lp3683
g2123
ag2898
ag2124
aa(lp3684
g1374
ag2678
ag3255
ag1375
aa(lp3685
g2021
ag3024
ag1600
aa(lp3686
g1479
ag1478
ag343
aa(lp3687
g1291
ag1296
ag2867
ag1955
ag565
aa(lp3688
g3225
ag1183
ag1177
ag1529
aa(lp3689
g3225
ag3224
ag1183
aa(lp3690
g2612
ag1075
ag1074
aa(lp3691
g449
ag2832
ag450
aa(lp3692
g2666
ag2665
ag3276
aa(lp3693
g245
ag253
ag3503
aa(lp3694
g1592
ag1591
ag3560
ag2776
aa(lp3695
g1863
ag1861
ag1919
aa(lp3696
g2408
ag1551
ag1550
aa(lp3697
g1518
ag1913
ag676
ag2387
aa(lp3698
g2901
ag1550
ag1549
aa(lp3699
g3441
ag2608
ag1160
aa(lp3700
g3441
ag3440
ag2608
aa(lp3701
g141
ag140
ag862
aa(lp3702
g177
ag176
ag1323
aa(lp3703
g691
ag690
ag747
aa(lp3704
g1160
ag2608
ag1154
aa(lp3705
g641
ag996
ag643
aa(lp3706
g298
ag1147
ag285
aa(lp3707
g2608
ag3440
ag1573
ag3415
aa(lp3708
g343
ag1478
ag1481
aa(lp3709
g3415
ag1573
ag1570
aa.