(lp0
(lp1
(F0.43780919406407875
F3.5
tp2
a(F0.38913317118923374
F3.110866828810766
tp3
a(F0.0
F3.5
tp4
aa(lp5
(F2.062190805935921
F3.5
tp6
a(F2.1425686527963856
F2.8574313472036144
tp7
a(F1.5000000000000002
F3.5
tp8
aa(lp9
(F0.3891331711892342
F0.3891331711892343
tp10
a(F1.25
F1.25
tp11
a(F2.222047734864832
F0.27795226513516796
tp12
a(F2.1872791470970854
F0.0
tp13
a(F0.43780919406407937
F0.0
tp14
aa(lp15
g10
ag14
a(F0.0
F0.0
tp16
aa(lp17
g10
ag16
a(F0.21890459703203952
F1.7500000000000016
tp18
aa(lp19
g10
ag18
a(F0.277952265135167
F2.2220477348648338
tp20
ag11
aa(lp21
(F2.5
F0.9999999999999989
tp22
a(F2.3570274611185544
F1.1429725388814445
tp23
a(F2.3436395735485434
F1.2500000000000022
tp24
a(F2.5
F2.5
tp25
aa(lp26
g12
ag11
a(F1.75
F1.7499999999999996
tp27
a(F2.3332286409188994
F1.1667713590810997
tp28
aa(lp29
g12
a(F2.5
F0.0
tp30
ag13
aa(lp31
g12
ag28
ag23
ag30
aa(lp32
(F3.0
F2.5000000000000004
tp33
a(F4.0
F3.5
tp34
a(F3.8749116588388337
F2.5
tp35
aa(lp36
g35
ag34
a(F4.125088341161166
F2.5
tp37
aa(lp38
(F5.214054922237109
F4.78594507776289
tp39
a(F5.25
F4.749999999999999
tp40
a(F5.222047734864833
F4.722047734864832
tp41
aa(lp42
g39
a(F4.75
F5.25
tp43
a(F5.1108668288107655
F5.610866828810766
tp44
aa(lp45
g39
ag44
a(F5.5
F6.0
tp46
a(F5.3570274611185535
F4.857027461118553
tp47
ag40
aa(lp48
g39
ag41
a(F4.277952265135167
F3.777952265135167
tp49
a(F4.1667713590811
F4.666771359081101
tp50
ag43
aa(lp51
(F5.5
F2.5
tp52
a(F5.28109540296796
F4.2500000000000036
tp53
a(F5.3332286409188985
F4.6667713590811
tp54
a(F5.5
F4.499999999999999
tp55
aa(lp56
g52
a(F5.1108668288107655
F2.889133171189236
tp57
ag53
aa(lp58
g47
a(F5.5
F4.999999999999999
tp59
ag55
ag54
aa(lp60
g47
ag54
ag40
aa(lp61
g47
ag46
ag59
aa(lp62
(F4.285945077762891
F3.714054922237109
tp63
a(F4.25
F3.75
tp64
ag49
aa(lp65
g63
ag57
a(F5.062190805935919
F2.5
tp66
a(F4.999999999999999
F2.5
tp67
a(F4.357431347203614
F3.1425686527963856
tp68
aa(lp69
g63
ag68
ag34
ag64
aa(lp70
g63
ag49
ag41
ag53
ag57
aa(lp71
(F2.3749116588388346
F3.5
tp72
ag25
ag7
ag6
aa(lp73
g20
ag3
ag27
ag11
aa(lp74
g20
ag18
a(F0.1429725388814458
F2.3570274611185544
tp75
aa(lp76
g20
ag75
ag4
ag3
aa(lp77
g28
ag27
a(F2.222047734864833
F2.2220477348648324
tp78
ag24
aa(lp79
g28
ag24
ag23
aa(lp80
(F5.062190805935921
F6.0
tp81
ag44
ag43
a(F4.277952265135167
F5.722047734864834
tp82
a(F4.312720852902913
F6.0
tp83
aa(lp84
g34
ag68
a(F4.437809194064079
F2.5
tp85
ag37
aa(lp86
g34
a(F4.055590453027033
F3.9444095469729663
tp87
ag64
aa(lp88
g34
ag33
ag25
a(F3.5000000000000004
F3.5
tp89
aa(lp90
g54
ag53
ag41
ag40
aa(lp91
(F4.0
F4.0
tp92
ag87
ag34
aa(lp93
g24
ag78
ag25
aa(lp94
g57
ag52
ag66
aa(lp95
g27
ag3
ag2
ag8
ag7
ag78
aa(lp96
g43
ag50
a(F4.156360426451457
F4.75
tp97
ag82
aa(lp98
(F4.0
F4.5
tp99
a(F4.142972538881446
F4.6429725388814465
tp100
ag87
ag92
aa(lp101
g50
ag100
ag97
aa(lp102
g50
ag49
ag64
ag87
ag100
aa(lp103
g25
a(F2.6250883411611654
F3.5
tp104
ag89
aa(lp105
g25
ag72
ag104
aa(lp106
g25
ag78
ag7
aa(lp107
g75
a(F0.0
F2.5000000000000004
tp108
ag4
aa(lp109
g75
ag18
ag16
ag108
aa(lp110
g23
ag22
ag30
aa(lp111
g82
a(F4.0
F6.0
tp112
ag83
aa(lp113
g82
ag97
ag112
aa(lp114
g97
ag100
ag99
ag112
aa(lp115
g68
ag67
ag85
aa(lp116
g46
ag44
ag81
aa.