(lp0
(dp1
S'A'
p2
(lp3
(lp4
F-7.994350158593775
aF1.0
aa(lp5
F5.529914960636051e-15
aF-1.0
aa(lp6
F7.994350158593691
aF-1.0
aa(lp7
F1.0
aF0.9999999999999878
aasS'b'
p8
(lp9
F-16.48587539648444
aF1.1059829921272103e-14
aF17.485875396484257
aF2.499999999999998
asa(dp10
g2
(lp11
(lp12
F-1.0
aF1.0000000000000007
aa(lp13
F-1.0
aF-0.9999999999999991
aa(lp14
F7.994350158593786
aF-1.0
aa(lp15
F1.0
aF0.999999999999999
aasg8
(lp16
F4.440892098500629e-16
aF-2.4999999999999996
aF16.485875396484463
aF3.4999999999999982
asa(dp17
g2
(lp18
(lp19
F-1.0
aF-0.9999999999999991
aa(lp20
F-1.0
aF1.0000000000000004
aa(lp21
F7.994350158593775
aF1.0
aa(lp22
F7.994350158593734
aF-1.0
aasg8
(lp23
F-3.4999999999999982
aF0.0
aF19.985875396484445
aF16.485875396484346
asa(dp24
g2
(lp25
(lp26
F-1.0
aF-0.9999999999999984
aa(lp27
F-7.994350158593797
aF1.0
aa(lp28
F1.0
aF0.9999999999999717
aa(lp29
F7.994350158593753
aF-1.0
aasg8
(lp30
F-2.4999999999999996
aF-16.48587539648448
aF3.4999999999999662
aF17.48587539648439
asa(dp31
g2
(lp32
(lp33
F-7.9943501585937495
aF1.0
aa(lp34
F-1.0
aF-1.0000000000000482
aa(lp35
F7.994350158593272
aF-1.0
aa(lp36
F7.994350158593775
aF1.0
aasg8
(lp37
F-16.48587539648438
aF-3.500000000000059
aF17.48587539648326
aF19.98587539648445
asa(dp38
g2
(lp39
(lp40
F-0.0
aF1.0
aa(lp41
F-1.0
aF1.0
aa(lp42
F-1.0
aF-1.0
aa(lp43
F1.9999999999999143
aF-1.9999999999999218
aa(lp44
F7.994350158593827
aF1.0
aasg8
(lp45
F6.0
aF1.0
aF-10.0
aF-1.0
aF46.46892587226604
asa(dp46
g2
(lp47
(lp48
F2.0000000000001554
aF-2.000000000000143
aa(lp49
F-6.912393700795044e-15
aF1.0
aa(lp50
F-7.994350158593884
aF-1.0
aasg8
(lp51
F-1.0
aF5.99999999999996
aF-46.468925872266325
asa(dp52
g2
(lp53
(lp54
F-1.0
aF-1.0
aa(lp55
F-1.9999999999998959
aF1.9999999999999052
aa(lp56
F7.994350158593802
aF1.0
aa(lp57
F1.0
aF-1.000000000000004
aasg8
(lp58
F-10.0
aF1.0
aF46.46892587226592
aF-1.885167399199528e-14
asa(dp59
g2
(lp60
(lp61
F-7.99435015859373
aF-1.0
aa(lp62
F1.0
aF-0.9999999999999989
aa(lp63
F7.994350158593874
aF-1.0
aa(lp64
F-2.000000000000291
aF2.0000000000002665
aasg8
(lp65
F-46.468925872265544
aF7.105427357601021e-15
aF37.96892587226631
aF1.0
asa(dp66
g2
(lp67
(lp68
F1.0
aF0.9999999999999837
aa(lp69
F-7.994350158593874
aF-1.0
aa(lp70
F-1.0
aF1.0000000000000118
aa(lp71
F-1.0
aF-0.9999999999999978
aa(lp72
F7.994350158593707
aF-1.0
aa(lp73
F7.994350158593876
aF1.0
aasg8
(lp74
F9.999999999999922
aF-37.977400634375506
aF5.68893353926188e-14
aF-7.999999999999993
aF37.9689258722654
aF46.4689258722663
asa(dp75
g2
(lp76
(lp77
F7.99435015859377
aF1.0
aa(lp78
F-1.0
aF-1.0000000000000016
aa(lp79
F-1.0
aF1.0
aasg8
(lp80
F46.46892587226576
aF-10.000000000000005
aF-8.881784197001252e-16
asa(dp81
g2
(lp82
(lp83
F-7.994350158593747
aF-1.0
aa(lp84
F-1.9999999999999893
aF1.9999999999999891
aa(lp85
F1.0
aF1.0000000000000042
aa(lp86
F1.0
aF-1.0000000000000038
aasg8
(lp87
F-37.97740063437497
aF1.0
aF10.000000000000021
aF-1.7461993060461673e-14
asa(dp88
g2
(lp89
(lp90
F-1.0
aF-0.9999999999999964
aa(lp91
F-1.000000000000002
aF1.0000000000000016
aa(lp92
F7.994350158593698
aF1.0
aa(lp93
F2.000000000000027
aF-2.0000000000000235
aasg8
(lp94
F-7.999999999999984
aF1.0
aF37.97740063437478
aF-1.0
asa(dp95
g2
(lp96
(lp97
F-1.0
aF-1.0000000000000036
aa(lp98
F-2.0000000000000457
aF2.00000000000004
aa(lp99
F7.994350158593868
aF1.0
aa(lp100
F1.0
aF-0.9999999999999986
aasg8
(lp101
F-8.000000000000014
aF1.0
aF37.977400634375485
aF5.594118455868091e-15
asa(dp102
g2
(lp103
(lp104
F-1.0000000000000089
aF1.0000000000000067
aa(lp105
F-1.0
aF-0.999999999999997
aa(lp106
F-7.994350158593901
aF1.0
aa(lp107
F1.9999999999999793
aF-1.9999999999999813
aa(lp108
F1.0
aF0.9999999999999793
aasg8
(lp109
F1.0
aF-5.99999999999999
aF-17.48587539648477
aF-1.0
aF7.999999999999914
asa(dp110
g2
(lp111
(lp112
F-1.0
aF-1.0
aa(lp113
F-1.9999999999999964
aF1.9999999999999964
aa(lp114
F1.0
aF0.999999999999994
aa(lp115
F1.0
aF-0.9999999999999996
aasg8
(lp116
F-6.0
aF1.0
aF7.999999999999976
aF1.9984014443252798e-15
asa(dp117
g2
(lp118
(lp119
F7.994350158593866
aF1.0
aa(lp120
F-1.0
aF-0.9999999999999969
aa(lp121
F-1.0
aF1.000000000000004
aasg8
(lp122
F37.97740063437547
aF-7.999999999999988
aF1.5987211554602317e-14
asa(dp123
g2
(lp124
(lp125
F-7.994350158593722
aF-1.0
aa(lp126
F-2.000000000000661
aF2.0000000000005507
aa(lp127
F7.994350158594197
aF1.0
aa(lp128
F7.994350158593822
aF-1.0
aasg8
(lp129
F-22.485875396484303
aF1.0
aF23.48587539648552
aF17.48587539648456
asa(dp130
g2
(lp131
(lp132
F7.994350158593901
aF1.0
aa(lp133
F2.764957480318012e-15
aF-1.0
aa(lp134
F-1.0
aF1.000000000000004
aasg8
(lp135
F23.48587539648477
aF-2.499999999999993
aF9.769962616701415e-15
asa(dp136
g2
(lp137
(lp138
F-7.994350158593889
aF1.0
aa(lp139
F-1.999999999999065
aF1.9999999999992237
aa(lp140
F7.9943501585936785
aF1.0
aa(lp141
F-1.0
aF-0.999999999999936
aasg8
(lp142
F-16.485875396484715
aF1.0
aF22.485875396484193
aF-4.99999999999984
asa(dp143
g2
(lp144
(lp145
F1.0
aF1.0000000000000244
aa(lp146
F1.0
aF-0.9999999999999526
aa(lp147
F-7.994350158593706
aF1.0
aasg8
(lp148
F5.000000000000061
aF1.1691820202487035e-13
aF-16.48587539648428
asa(dp149
g2
(lp150
(lp151
F7.994350158593777
aF1.0
aa(lp152
F1.0
aF-1.0000000000000024
aa(lp153
F-7.994350158593788
aF1.0
aasg8
(lp154
F23.485875396484445
aF-6.216621236197545e-15
aF-17.485875396484474
asa(dp155
g2
(lp156
(lp157
F-7.994350158593751
aF-1.0
aa(lp158
F-7.9943501585938215
aF1.0
aa(lp159
F-1.0
aF1.00000000000001
aa(lp160
F7.994350158593826
aF-1.0
aasg8
(lp161
F-19.985875396484392
aF-16.485875396484545
aF2.661396750583424e-14
aF17.48587539648457
asa(dp162
g2
(lp163
(lp164
F1.0
aF1.000000000000001
aa(lp165
F-0.9999999999999996
aF0.9999999999999996
aa(lp166
F-1.0
aF-0.9999999999999982
aa(lp167
F1.9999999999999911
aF-1.9999999999999918
aa(lp168
F7.994350158594062
aF1.0
aasg8
(lp169
F5.000000000000004
aF1.0
aF-3.499999999999996
aF-1.0
aF19.985875396485074
asa(dp170
g2
(lp171
(lp172
F-1.0
aF-0.999999999999996
aa(lp173
F-0.9999999999999982
aF0.9999999999999987
aa(lp174
F1.0
aF0.9999999999999996
aa(lp175
F1.9999999999999898
aF-1.9999999999999907
aasg8
(lp176
F-2.499999999999994
aF1.0
aF3.4999999999999982
aF-1.0
asa(dp177
g2
(lp178
(lp179
F-1.0
aF-1.0000000000000018
aa(lp180
F-1.999999999999991
aF1.9999999999999913
aa(lp181
F7.994350158593712
aF1.0
aa(lp182
F1.0
aF-1.000000000000001
aasg8
(lp183
F-3.500000000000003
aF1.0
aF19.98587539648431
aF-2.3514862151381624e-15
asa(dp184
g2
(lp185
(lp186
F-1.0
aF-1.0000000000000009
aa(lp187
F-1.999999999999992
aF1.999999999999992
aa(lp188
F1.0
aF1.0000000000000009
aa(lp189
F1.0
aF-1.0000000000000004
aasg8
(lp190
F-2.5000000000000013
aF1.0
aF3.5000000000000013
aF0.0
asa(dp191
g2
(lp192
(lp193
F7.9943501585937895
aF-1.0
aa(lp194
F-1.0
aF1.0000000000000249
aa(lp195
F-7.99435015859381
aF-1.0
aasg8
(lp196
F16.485875396484474
aF5.660489708617088e-14
aF-19.985875396484523
asa(dp197
g2
(lp198
(lp199
F1.0
aF-0.9999999999999706
aa(lp200
F-2.0000000000000764
aF2.0000000000000604
aa(lp201
F-7.99435015859381
aF-1.0
aa(lp202
F1.0
aF0.9999999999999981
aa(lp203
F7.9943501585936
aF-1.0
aasg8
(lp204
F6.85375095913247e-14
aF1.0
aF-19.985875396484523
aF4.999999999999996
aF16.485875396484023
asa(dp205
g2
(lp206
(lp207
F-7.994350158593897
aF-1.0
aa(lp208
F-1.0
aF0.9999999999999907
aa(lp209
F1.0
aF0.9999999999999494
aa(lp210
F3.917870572199232e-15
aF-1.0
aasg8
(lp211
F-23.485875396484754
aF-2.4886571399297015e-14
aF5.999999999999872
aF-2.4999999999999867
asa(dp212
g2
(lp213
(lp214
F-7.99435015859444
aF-1.0
aa(lp215
F-7.994350158593821
aF1.0
aa(lp216
F7.994350158594121
aF1.0
aa(lp217
F2.0000000000003375
aF-2.0000000000002807
aasg8
(lp218
F-22.48587539648606
aF-16.485875396484552
aF23.485875396485305
aF-1.0
asa(dp219
g2
(lp220
(lp221
F0.9999999999999867
aF-0.9999999999999893
aa(lp222
F-2.3699635545583092e-14
aF1.0
aa(lp223
F-7.994350158593897
aF-1.0
aasg8
(lp224
F-1.0
aF3.4999999999999427
aF-22.485875396484733
asa(dp225
g2
(lp226
(lp227
F-7.99435015859381
aF-1.0
aa(lp228
F1.9999999999996927
aF-1.9999999999997424
aa(lp229
F7.994350158593819
aF-1.0
aa(lp230
F1.0
aF1.000000000000048
aasg8
(lp231
F-23.485875396484523
aF-1.0
aF17.485875396484552
aF6.000000000000168
asa(dp232
g2
(lp233
(lp234
F7.9943501585937
aF-1.0
aa(lp235
F-1.0000000000000078
aF1.0000000000000062
aa(lp236
F-7.994350158593811
aF-1.0
aasg8
(lp237
F16.48587539648425
aF1.0
aF-22.485875396484527
asa(dp238
g2
(lp239
(lp240
F7.9943501585938535
aF-1.0
aa(lp241
F-0.9999999999999919
aF0.9999999999999942
aa(lp242
F-1.0
aF-1.0
aasg8
(lp243
F17.485875396484644
aF1.0
aF-6.0
asa(dp244
g2
(lp245
(lp246
F-7.994350158593799
aF-1.0
aa(lp247
F-1.0
aF-0.9999999999999685
aa(lp248
F7.994350158593696
aF-1.0
aa(lp249
F-1.0
aF1.000000000000031
aasg8
(lp250
F-46.4689258722659
aF-9.99999999999985
aF37.96892587226534
aF1.681708241104393e-13
asa(dp251
g2
(lp252
(lp253
F1.9999999999999987
aF-1.9999999999999907
aa(lp254
F-1.0
aF-0.0
aa(lp255
F-0.9999999999999974
aF0.999999999999999
aa(lp256
F7.9943501585938215
aF-1.0
aasg8
(lp257
F-1.0
aF0.0
aF1.0
aF1.110223024625176e-16
asa(dp258
g2
(lp259
(lp260
F3.5084070439313766e-16
aF1.0
aa(lp261
F-1.0
aF-0.9999999999999988
aa(lp262
F-7.9943501585938295
aF1.0
aa(lp263
F1.0000000000000342
aF-1.0000000000000226
aa(lp264
F1.0
aF0.9999999999999994
aasg8
(lp265
F3.5000000000000004
aF-3.4999999999999956
aF-4.440892098500627e-15
aF-1.0
aF5.0
asa(dp266
g2
(lp267
(lp268
F-7.994350158593814
aF1.0
aa(lp269
F-1.0
aF-1.0000000000000022
aa(lp270
F0.9999999999999907
aF-0.9999999999999946
aa(lp271
F1.0
aF0.9999999999999997
aasg8
(lp272
F1.7763568394002505e-15
aF-2.5000000000000058
aF-1.0
aF3.4999999999999987
asa(dp273
g2
(lp274
(lp275
F-7.994350158593808
aF-1.0
aa(lp276
F-1.0
aF-1.0000000000000033
aa(lp277
F7.9943501585938055
aF-1.0
aa(lp278
F1.0
aF0.9999999999999993
aasg8
(lp279
F-3.5
aF-2.500000000000008
aF-3.3306690738754574e-15
aF3.499999999999998
asa(dp280
g2
(lp281
(lp282
F7.994350158593836
aF-1.0
aa(lp283
F-0.0
aF1.0
aa(lp284
F-1.0
aF-0.9999999999999992
aasg8
(lp285
F7.771561172376113e-15
aF3.5000000000000004
aF-3.499999999999997
asa(dp286
g2
(lp287
(lp288
F-1.9999999999999984
aF1.9999999999999907
aa(lp289
F-1.0
aF-0.0
aa(lp290
F7.99435015859382
aF-1.0
aasg8
(lp291
F1.0
aF0.0
aF0.0
asa(dp292
g2
(lp293
(lp294
F-7.994350158593818
aF1.0
aa(lp295
F-1.0000000000000009
aF0.9999999999999996
aa(lp296
F7.99435015859371
aF1.0
aa(lp297
F1.9999999999999847
aF-1.9999999999999891
aasg8
(lp298
F-0.0
aF1.0
aF3.499999999999973
aF-1.0
asa(dp299
g2
(lp300
(lp301
F-7.994350158593819
aF1.0
aa(lp302
F-1.999999999999984
aF1.9999999999999887
aa(lp303
F7.994350158593926
aF1.0
aa(lp304
F1.0
aF-1.0
aasg8
(lp305
F-0.0
aF1.0
aF3.500000000000046
aF0.0
asa(dp306
g2
(lp307
(lp308
F-7.99435015859381
aF-1.0
aa(lp309
F-0.9999999999999618
aF0.9999999999999687
aa(lp310
F1.0
aF0.999999999999952
aa(lp311
F2.0000000000000977
aF-2.0000000000000884
aasg8
(lp312
F-37.977400634375236
aF1.0
aF9.999999999999748
aF-1.0
asa(dp313
g2
(lp314
(lp315
F1.0000000000000107
aF-1.0000000000000089
aa(lp316
F-0.0
aF1.0
aa(lp317
F-1.0
aF-0.9999999999999982
aasg8
(lp318
F-1.0
aF6.0
aF-9.99999999999999
asa(dp319
g2
(lp320
(lp321
F0.999999999999889
aF-0.9999999999999098
aa(lp322
F1.0
aF0.9999999999999836
aa(lp323
F-7.994350158593843
aF-1.0
aasg8
(lp324
F-1.0
aF9.999999999999906
aF-37.97740063437537
asa(dp325
g2
(lp326
(lp327
F-7.994350158593702
aF-1.0
aa(lp328
F-1.0000000000000018
aF0.9999999999999998
aa(lp329
F1.0
aF0.9999999999999897
aa(lp330
F1.999999999999995
aF-1.9999999999999938
aasg8
(lp331
F-3.4999999999999702
aF1.0
aF2.499999999999984
aF-1.0
asa(dp332
g2
(lp333
(lp334
F-7.994350158593907
aF-1.0
aa(lp335
F-1.9999999999999893
aF1.9999999999999913
aa(lp336
F1.0
aF0.999999999999999
aa(lp337
F1.0
aF-1.0000000000000004
aasg8
(lp338
F-3.5000000000000386
aF1.0
aF2.499999999999999
aF0.0
asa(dp339
g2
(lp340
(lp341
F7.994350158593827
aF1.0
aa(lp342
F-1.0
aF-0.9999999999999956
aa(lp343
F-7.9943501585937815
aF1.0
aasg8
(lp344
F46.46892587226605
aF-7.999999999999984
aF-37.96892587226579
asa(dp345
g2
(lp346
(lp347
F-7.994350158593853
aF1.0
aa(lp348
F-7.994350158593893
aF-1.0
aa(lp349
F1.0
aF-7.108104668539616e-16
aa(lp350
F1.0
aF1.0000000000000087
aasg8
(lp351
F-37.96892587226617
aF-46.468925872266404
aF5.499999999999995
aF10.000000000000034
asa(dp352
g2
(lp353
(lp354
F-7.99435015859381
aF-1.0
aa(lp355
F-2.7649574803180154e-15
aF1.0
aa(lp356
F7.9943501585945675
aF1.0
aa(lp357
F0.9999999999999676
aF-0.9999999999999772
aasg8
(lp358
F-19.985875396484527
aF3.4999999999999947
aF22.485875396486335
aF-1.0
asa(dp359
g2
(lp360
(lp361
F-7.994350158593775
aF1.0
aa(lp362
F-2.500000000000006
aF1.500000000000005
aa(lp363
F1.0
aF1.0000000000000377
aa(lp364
F1.0000000000000262
aF-1.0000000000000204
aasg8
(lp365
F-17.485875396484435
aF-1.0
aF8.000000000000192
aF-1.0
asa(dp366
g2
(lp367
(lp368
F1.0
aF1.0000000000000056
aa(lp369
F3.949939257597176e-15
aF-1.0
aa(lp370
F-7.994350158593811
aF1.0
aasg8
(lp371
F2.5000000000000013
aF9.87484814399294e-15
aF-17.48587539648452
asa(dp372
g2
(lp373
(lp374
F-7.994350158593763
aF1.0
aa(lp375
F1.0
aF1.0000000000001608
aa(lp376
F7.994350158593817
aF1.0
aa(lp377
F-1.0
aF-0.9999999999999476
aasg8
(lp378
F-17.485875396484413
aF3.5000000000001847
aF19.98587539648454
aF-2.499999999999984
asa(dp379
g2
(lp380
(lp381
F2.0000000000001026
aF-2.0000000000000844
aa(lp382
F-7.99435015859381
aF-1.0
aa(lp383
F-1.0
aF-0.9999999999999811
aa(lp384
F-0.9999999999999662
aF0.9999999999999764
aa(lp385
F7.994350158593802
aF1.0
aa(lp386
F7.994350158594052
aF-1.0
aasg8
(lp387
F-1.0
aF-19.985875396484527
aF-4.999999999999948
aF1.0
aF22.485875396484502
aF16.485875396485113
asa(dp388
g2
(lp389
(lp390
F1.0
aF0.9999999999999997
aa(lp391
F-1.0
aF1.0
aa(lp392
F-1.0
aF-0.9999999999999991
aa(lp393
F-3.721756310115892e-16
aF-1.0
aa(lp394
F7.994350158593785
aF1.0
aasg8
(lp395
F7.999999999999998
aF0.0
aF-5.999999999999997
aF-2.500000000000002
aF37.97740063437513
asa(dp396
g2
(lp397
(lp398
F7.994350158593961
aF-1.0
aa(lp399
F-2.0000000000000733
aF2.000000000000059
aa(lp400
F-1.0
aF-1.0000000000000064
aasg8
(lp401
F16.485875396484886
aF1.0
aF-5.000000000000018
asa(dp402
g2
(lp403
(lp404
F1.0
aF0.9999999999999984
aa(lp405
F-1.0
aF-0.0
aa(lp406
F0.9999999999999983
aF-0.9999999999999992
aa(lp407
F7.994350158593827
aF-1.0
aa(lp408
F7.994350158593798
aF1.0
aasg8
(lp409
F2.4999999999999964
aF0.0
aF-1.0
aF1.254263944015498e-15
aF3.4999999999999987
asa(dp410
g2
(lp411
(lp412
F7.994350158593808
aF1.0
aa(lp413
F1.0000000000000016
aF-0.9999999999999996
aa(lp414
F-7.994350158593825
aF1.0
aasg8
(lp415
F3.5
aF-1.0
aF-6.66133814775094e-16
asa(dp416
g2
(lp417
(lp418
F-7.994350158593814
aF-1.0
aa(lp419
F-7.99435015859381
aF1.0
aa(lp420
F1.0
aF1.0000000000000009
aa(lp421
F0.9999999999999979
aF-0.9999999999999991
aasg8
(lp422
F-3.500000000000002
aF2.9348382782269e-15
aF2.5000000000000036
aF-1.0
asa(dp423
g2
(lp424
(lp425
F7.994350158594546
aF1.0
aa(lp426
F1.9999999999990543
aF-1.9999999999992157
aa(lp427
F-7.994350158593607
aF1.0
aasg8
(lp428
F22.485875396486318
aF-1.0
aF-16.48587539648403
asa(dp429
g2
(lp430
(lp431
F7.994350158593917
aF-1.0
aa(lp432
F-2.500000000000019
aF1.5000000000000138
aa(lp433
F1.0
aF-1.0
aasg8
(lp434
F17.48587539648481
aF-1.0
aF-1.0
asa(dp435
g2
(lp436
(lp437
F7.994350158593784
aF1.0
aa(lp438
F-1.0
aF-0.999999999999998
aa(lp439
F-0.9999999999999994
aF0.9999999999999994
aasg8
(lp440
F19.985875396484474
aF-4.999999999999995
aF1.0
asa(dp441
g2
(lp442
(lp443
F-1.0
aF-1.0000000000000004
aa(lp444
F6.661338147750929e-16
aF1.0
aa(lp445
F7.994350158593846
aF1.0
aa(lp446
F0.9999999999999831
aF-0.9999999999999885
aasg8
(lp447
F-5.000000000000003
aF3.5000000000000018
aF19.985875396484605
aF-1.0
asa(dp448
g2
(lp449
(lp450
F1.0
aF1.0000000000000036
aa(lp451
F1.9999999999999802
aF-1.9999999999999818
aa(lp452
F-7.9943501585938
aF1.0
aasg8
(lp453
F6.000000000000012
aF-1.0
aF-17.485875396484506
asa(dp454
g2
(lp455
(lp456
F-1.9999999999998264
aF1.9999999999998517
aa(lp457
F-7.994350158593653
aF-1.0
aa(lp458
F-7.994350158593509
aF1.0
aa(lp459
F1.0
aF-0.9999999999999543
aa(lp460
F1.0
aF0.9999999999999837
aasg8
(lp461
F1.0
aF-23.485875396484115
aF-17.485875396483756
aF1.3782501593535843e-13
aF5.99999999999995
asa(dp462
g2
(lp463
(lp464
F1.0
aF-0.0
aa(lp465
F1.0
aF0.9999999999999949
aa(lp466
F-7.994350158593818
aF-1.0
aasg8
(lp467
F2.5
aF3.4999999999999925
aF-19.985875396484545
asa(dp468
g2
(lp469
(lp470
F-7.9943501585937895
aF-1.0
aa(lp471
F-4.31318952904685e-15
aF-1.0
aa(lp472
F7.994350158594315
aF-1.0
aa(lp473
F1.0
aF1.000000000000002
aasg8
(lp474
F-37.977400634375144
aF-2.500000000000015
aF37.96892587226852
aF8.000000000000005
asa(dp475
g2
(lp476
(lp477
F1.0
aF0.9999999999999941
aa(lp478
F-4.1474362204770424e-15
aF-1.0
aa(lp479
F-7.9943501585937735
aF1.0
aasg8
(lp480
F7.999999999999981
aF-2.5000000000000173
aF-37.968925872265764
asa(dp481
g2
(lp482
(lp483
F7.994350158594169
aF-1.0
aa(lp484
F1.0
aF1.0000000000000173
aa(lp485
F-7.9943501585938375
aF-1.0
aasg8
(lp486
F37.96892587226785
aF10.000000000000087
aF-46.4689258722661
asa(dp487
g2
(lp488
(lp489
F1.9999999999996518
aF-1.999999999999715
aa(lp490
F1.0
aF0.9999999999999961
aa(lp491
F-7.994350158593828
aF-1.0
aasg8
(lp492
F-1.0
aF4.999999999999989
aF-19.985875396484566
asa(dp493
g2
(lp494
(lp495
F7.9943501585941785
aF1.0
aa(lp496
F-1.0
aF-0.9999999999999593
aa(lp497
F-7.994350158593675
aF1.0
aasg8
(lp498
F19.985875396485397
aF-3.499999999999956
aF-17.485875396484207
asa(dp499
g2
(lp500
(lp501
F1.0
aF-0.0
aa(lp502
F-7.994350158593889
aF1.0
aa(lp503
F1.0
aF-1.0
aasg8
(lp504
F5.5
aF-37.96892587226638
aF8.881784197001252e-16
asa(dp505
g2
(lp506
(lp507
F7.994350158593814
aF1.0
aa(lp508
F-1.7280984251987618e-16
aF-1.0
aa(lp509
F-1.0
aF1.0000000000000002
aasg8
(lp510
F3.500000000000003
aF0.0
aF-0.0
asa(dp511
g2
(lp512
(lp513
F1.5458283551120984e-16
aF-1.0
aa(lp514
F-1.0
aF1.0
aa(lp515
F-7.994350158593812
aF-1.0
aa(lp516
F1.0
aF0.9999999999999994
aa(lp517
F7.9943501585937655
aF-1.0
aasg8
(lp518
F7.729141775560492e-17
aF3.888526781140194e-16
aF-3.500000000000002
aF2.4999999999999996
aF16.485875396484417
asa(dp519
g2
(lp520
(lp521
F-1.0
aF-1.0
aa(lp522
F-2.5
aF1.5
aa(lp523
F7.994350158593842
aF1.0
aa(lp524
F1.0
aF-1.0
aasg8
(lp525
F-8.0
aF-1.0
aF37.977400634375364
aF-1.0
asa(dp526
g2
(lp527
(lp528
F-7.994350158593732
aF1.0
aa(lp529
F-1.0
aF-1.0000000000000746
aa(lp530
F1.0
aF-1.4816925875221548e-16
aa(lp531
F-1.0
aF0.999999999999868
aasg8
(lp532
F-37.96892587226554
aF-10.000000000000338
aF5.499999999999999
aF-7.200166389034799e-13
asa(dp533
g2
(lp534
(lp535
F7.994350158593973
aF-1.0
aa(lp536
F-2.000000000002638
aF2.0000000000022053
aa(lp537
F-7.99435015859361
aF-1.0
aasg8
(lp538
F17.48587539648495
aF1.0
aF-23.485875396484012
asa(dp539
g2
(lp540
(lp541
F-7.9943501585940275
aF-1.0
aa(lp542
F-1.0
aF-0.9999999999999983
aa(lp543
F1.0
aF-7.415452207142682e-16
aa(lp544
F-7.994350158593764
aF1.0
aasg8
(lp545
F-19.98587539648504
aF-3.5
aF2.4999999999999987
aF-17.485875396484417
asa(dp546
g2
(lp547
(lp548
F7.9943501585938215
aF-1.0
aa(lp549
F1.0
aF1.0000000000000056
aa(lp550
F-7.994350158593805
aF-1.0
aasg8
(lp551
F5.391486911308562e-16
aF2.5000000000000133
aF-3.4999999999999996
asa(dp552
g2
(lp553
(lp554
F7.994350158593811
aF1.0
aa(lp555
F-1.0
aF-0.0
aa(lp556
F-1.0
aF-0.9999999999999958
aasg8
(lp557
F3.5
aF0.0
aF-2.4999999999999902
asa(dp558
g2
(lp559
(lp560
F2.220446049250313e-16
aF-1.0
aa(lp561
F-1.0
aF-0.0
aa(lp562
F2.2204460492503136e-16
aF1.0
aa(lp563
F2.499999999999996
aF-1.4999999999999973
aasg8
(lp564
F-3.4999999999999996
aF0.0
aF6.000000000000001
aF1.0
asa(dp565
g2
(lp566
(lp567
F-1.0573552615477681e-16
aF-1.0
aa(lp568
F-1.0
aF-0.0
aa(lp569
F-2.799999999999994
aF2.3999999999999946
aa(lp570
F3.372829441899217e-15
aF1.0
aa(lp571
F1.0
aF-0.0
aasg8
(lp572
F-8.458842092382145e-16
aF-2.5000000000000004
aF-1.0
aF6.0000000000000195
aF6.0
asa.