(lp0
(lp1
I2
aI2
aI2
aI2
aI4
aI4
aI0
aI5
aa(lp2
I2
aI2
aI2
aI2
aI4
aI0
aI0
aI1
aa(lp3
I5
aI2
aI2
aI4
aI0
aI0
aI0
aI0
aa(lp4
I5
aI2
aI4
aI4
aI0
aI0
aI0
aI0
aa(lp5
I2
aI2
aI4
aI4
aI4
aI0
aI0
aI0
aa(lp6
I2
aI2
aI2
aI4
aI4
aI0
aI0
aI0
aa(lp7
I5
aI5
aI2
aI2
aI0
aI0
aI5
aI5
aa(lp8
I5
aI2
aI2
aI4
aI0
aI0
aI0
aI5
aa(lp9
I5
aI5
aI2
aI4
aI0
aI0
aI0
aI0
aa(lp10
I5
aI5
aI2
aI4
aI0
aI0
aI0
aI5
aa(lp11
I7
aI2
aI2
aI2
aI1
aI1
aI1
aI1
aa(lp12
I7
aI3
aI2
aI2
aI1
aI1
aI1
aI1
aa(lp13
I7
aI3
aI3
aI6
aI6
aI1
aI7
aI7
aa(lp14
I7
aI3
aI3
aI3
aI6
aI1
aI1
aI7
aa(lp15
I7
aI3
aI3
aI3
aI6
aI1
aI7
aI7
aa(lp16
I7
aI3
aI3
aI6
aI6
aI1
aI1
aI7
aa(lp17
I7
aI7
aI3
aI6
aI1
aI1
aI7
aI7
aa(lp18
I7
aI7
aI3
aI6
aI1
aI1
aI1
aI7
aa(lp19
I7
aI7
aI3
aI3
aI1
aI1
aI7
aI7
aa(lp20
I7
aI3
aI3
aI3
aI1
aI1
aI7
aI7
aa(lp21
I7
aI7
aI3
aI3
aI6
aI1
aI7
aI7
aa(lp22
I7
aI3
aI6
aI6
aI1
aI1
aI1
aI7
aa(lp23
I7
aI3
aI3
aI6
aI1
aI1
aI1
aI1
aa(lp24
I7
aI3
aI6
aI6
aI1
aI1
aI1
aI1
aa(lp25
I7
aI3
aI3
aI6
aI1
aI1
aI1
aI7
aa(lp26
I2
aI2
aI2
aI2
aI4
aI0
aI5
aI1
aa(lp27
I2
aI2
aI2
aI4
aI4
aI0
aI0
aI5
aa(lp28
I2
aI2
aI2
aI4
aI4
aI4
aI0
aI0
aa(lp29
I2
aI2
aI2
aI4
aI4
aI4
aI0
aI5
aa(lp30
I5
aI2
aI2
aI2
aI0
aI0
aI0
aI5
aa(lp31
I5
aI5
aI2
aI2
aI0
aI0
aI0
aI5
aa(lp32
I3
aI3
aI3
aI3
aI6
aI1
aI1
aI7
aa(lp33
I7
aI3
aI6
aI2
aI1
aI1
aI1
aI1
aa(lp34
I7
aI3
aI6
aI6
aI6
aI1
aI1
aI1
aa(lp35
I2
aI2
aI2
aI2
aI1
aI1
aI1
aI1
aa(lp36
I7
aI3
aI3
aI6
aI1
aI1
aI7
aI7
aa(lp37
I7
aI3
aI6
aI6
aI6
aI6
aI1
aI1
aa(lp38
I5
aI2
aI2
aI2
aI0
aI0
aI5
aI5
aa(lp39
I7
aI7
aI3
aI6
aI1
aI1
aI1
aI1
aa(lp40
I2
aI2
aI2
aI2
aI4
aI0
aI0
aI5
aa(lp41
I3
aI3
aI3
aI6
aI6
aI1
aI1
aI7
aa(lp42
I7
aI3
aI6
aI6
aI6
aI6
aI1
aI7
aa(lp43
I3
aI3
aI6
aI6
aI6
aI1
aI1
aI7
aa(lp44
I7
aI3
aI6
aI6
aI6
aI1
aI1
aI7
aa(lp45
I2
aI2
aI2
aI2
aI4
aI1
aI1
aI1
aa(lp46
I2
aI2
aI2
aI2
aI4
aI0
aI1
aI1
aa(lp47
I2
aI2
aI2
aI2
aI4
aI0
aI5
aI5
aa(lp48
I2
aI2
aI4
aI4
aI4
aI4
aI0
aI5
aa(lp49
I2
aI2
aI4
aI4
aI4
aI4
aI0
aI0
aa(lp50
I5
aI5
aI2
aI4
aI0
aI0
aI5
aI5
aa(lp51
I3
aI3
aI3
aI3
aI6
aI6
aI1
aI7
aa(lp52
I3
aI3
aI3
aI6
aI6
aI6
aI1
aI7
aa(lp53
I3
aI3
aI6
aI6
aI6
aI6
aI1
aI7
aa(lp54
I7
aI3
aI3
aI2
aI1
aI1
aI1
aI1
aa(lp55
I3
aI3
aI3
aI3
aI6
aI1
aI7
aI7
aa.