(lp0
(dp1
S'A'
p2
(lp3
(lp4
F-7.9943501585938215
aF1.0
aa(lp5
F-0.9999999999999982
aF0.9999999999999984
aa(lp6
F7.994350158593824
aF1.0
aa(lp7
F1.0
aF-0.9999999999999998
aasS'b'
p8
(lp9
F-0.0
aF1.0
aF6.0000000000000115
aF0.0
asa(dp10
g2
(lp11
(lp12
F-1.0
aF1.0000000000000007
aa(lp13
F-2.3699635545583015e-15
aF-1.0
aa(lp14
F-7.994350158593802
aF-1.0
aa(lp15
F1.0000000000000009
aF-1.0000000000000013
aa(lp16
F1.0
aF0.999999999999998
aasg8
(lp17
F1.068027397325058e-15
aF-2.3699635545583015e-15
aF-5.9999999999999964
aF1.0
aF2.9999999999999987
asa(dp18
g2
(lp19
(lp20
F7.9943501585938055
aF1.0
aa(lp21
F-2.9624544431978784e-16
aF-1.0
aa(lp22
F-1.0
aF0.9999999999999998
aasg8
(lp23
F5.999999999999998
aF0.0
aF-0.0
asa(dp24
g2
(lp25
(lp26
F-7.99435015859381
aF-1.0
aa(lp27
F-1.0
aF0.9999999999999993
aa(lp28
F1.0
aF0.9999999999999988
aa(lp29
F1.0
aF-1.0000000000000004
aasg8
(lp30
F-6.000000000000002
aF1.0
aF2.9999999999999987
aF-1.7775278619936333e-16
asa(dp31
g2
(lp32
(lp33
F7.994350158593836
aF1.0
aa(lp34
F-1.0
aF-1.0000000000000036
aa(lp35
F-7.994350158593732
aF1.0
aasg8
(lp36
F65.95480126875069
aF-11.000000000000007
aF-55.95480126874988
asa(dp37
g2
(lp38
(lp39
F-1.0
aF1.0
aa(lp40
F-1.0
aF-1.0000000000000004
aa(lp41
F7.994350158593925
aF-1.0
aa(lp42
F1.0
aF0.9999999999999984
aasg8
(lp43
F-1.0
aF-10.000000000000002
aF55.9548012687513
aF10.999999999999993
asa(dp44
g2
(lp45
(lp46
F1.0
aF1.0000000000000024
aa(lp47
F-1.0
aF-0.9999999999999983
aa(lp48
F-1.0000000000000044
aF1.0000000000000056
aa(lp49
F7.994350158593739
aF-1.0
aa(lp50
F7.994350158593788
aF1.0
aasg8
(lp51
F13.000000000000012
aF-10.999999999999991
aF-1.0
aF55.95480126874992
aF65.9548012687503
asa(dp52
g2
(lp53
(lp54
F-7.994350158593822
aF1.0
aa(lp55
F1.0
aF1.0000000000000144
aa(lp56
F7.994350158593611
aF1.0
aa(lp57
F-1.0
aF-0.9999999999999908
aasg8
(lp58
F-55.95480126875054
aF11.000000000000046
aF65.9548012687489
aF-9.99999999999998
asa(dp59
g2
(lp60
(lp61
F7.9943501585939405
aF-1.0
aa(lp62
F1.0
aF1.0000000000000062
aa(lp63
F-7.9943501585937815
aF-1.0
aasg8
(lp64
F33.97175079296972
aF13.000000000000055
aF-47.971750792968905
asa(dp65
g2
(lp66
(lp67
F7.994350158593781
aF1.0
aa(lp68
F-1.0
aF-0.0
aa(lp69
F7.994350158593795
aF-1.0
aasg8
(lp70
F47.971750792968905
aF-5.0
aF33.971750792968976
asa(dp71
g2
(lp72
(lp73
F1.0
aF0.9999999999999717
aa(lp74
F1.0
aF-1.000000000000025
aa(lp75
F-7.994350158593581
aF1.0
aasg8
(lp76
F9.999999999999858
aF-1.2007815343095742e-13
aF-33.97175079296793
asa(dp77
g2
(lp78
(lp79
F1.0000000000000273
aF-1.0000000000000346
aa(lp80
F-1.0
aF-0.9999999999999919
aa(lp81
F-7.99435015859386
aF1.0
aa(lp82
F-1.0
aF0.9999999999999992
aa(lp83
F7.994350158593755
aF-1.0
aasg8
(lp84
F1.0
aF-5.999999999999978
aF-21.98305047578158
aF-1.9746590924361664e-15
aF33.971750792968784
asa(dp85
g2
(lp86
(lp87
F1.0
aF1.0000000000000244
aa(lp88
F-1.0
aF0.9999999999999565
aa(lp89
F-7.994350158593777
aF1.0
aa(lp90
F0.9999999999999646
aF-0.9999999999999567
aa(lp91
F7.994350158593897
aF1.0
aasg8
(lp92
F10.000000000000119
aF-2.202682480856201e-13
aF-33.97175079296889
aF1.0
aF45.9717507929695
asa(dp93
g2
(lp94
(lp95
F1.0
aF-0.9999999999999966
aa(lp96
F-0.9999999999999885
aF0.9999999999999908
aa(lp97
F-7.994350158593812
aF1.0
aa(lp98
F1.0
aF0.9999999999999941
aa(lp99
F7.994350158593759
aF-1.0
aasg8
(lp100
F1.689307001884556e-14
aF1.0
aF-21.983050475781432
aF9.99999999999997
aF33.971750792968805
asa(dp101
g2
(lp102
(lp103
F-0.9999999999999762
aF0.9999999999999797
aa(lp104
F-1.0
aF-0.9999999999999911
aa(lp105
F-7.994350158593775
aF-1.0
aa(lp106
F1.0
aF-0.99999999999999
aa(lp107
F1.0
aF0.9999999999999976
aasg8
(lp108
F1.0
aF-10.999999999999948
aF-47.97175079296888
aF6.661338147750877e-14
aF12.99999999999998
asa(dp109
g2
(lp110
(lp111
F1.7801310516593813e-15
aF1.0
aa(lp112
F-1.0
aF1.0
aa(lp113
F-1.0
aF-0.9999999999999964
aa(lp114
F1.0
aF-0.9999999999999964
aa(lp115
F7.994350158593893
aF1.0
aasg8
(lp116
F8.000000000000012
aF1.0
aF-12.999999999999975
aF2.629090345665848e-14
aF65.95480126875108
asa(dp117
g2
(lp118
(lp119
F-7.994350158593611
aF1.0
aa(lp120
F-1.0
aF-1.0000000000000087
aa(lp121
F1.0000000000001597
aF-1.000000000000141
aa(lp122
F-1.7412758098663807e-15
aF1.0
aasg8
(lp123
F-33.97175079296801
aF-13.000000000000062
aF-1.0
aF7.999999999999989
asa(dp124
g2
(lp125
(lp126
F-7.994350158593838
aF-1.0
aa(lp127
F-7.994350158593993
aF1.0
aa(lp128
F1.0
aF0.9999999999999977
aa(lp129
F1.0000000000000047
aF-1.0000000000000047
aasg8
(lp130
F-47.971750792969196
aF-33.97175079297
aF12.99999999999998
aF-1.0
asa(dp131
g2
(lp132
(lp133
F-7.994350158593819
aF-1.0
aa(lp134
F1.0000000000000178
aF-1.0000000000000129
aa(lp135
F7.994350158593815
aF-1.0
aa(lp136
F1.8317502965621294e-15
aF1.0
aasg8
(lp137
F-25.983050475781454
aF-1.0
aF21.983050475781443
aF6.000000000000008
asa(dp138
g2
(lp139
(lp140
F0.0
aF1.0
aa(lp141
F-7.994350158593815
aF-1.0
aa(lp142
F1.0000000000000728
aF-1.0000000000000528
aa(lp143
F7.994350158593824
aF1.0
aasg8
(lp144
F6.0
aF-23.98305047578144
aF-1.0
aF25.983050475781468
asa(dp145
g2
(lp146
(lp147
F-7.9943501585935355
aF-1.0
aa(lp148
F-0.9999999999999727
aF0.9999999999999795
aa(lp149
F7.994350158593724
aF1.0
aa(lp150
F-1.0
aF-0.999999999999992
aasg8
(lp151
F-23.98305047578073
aF1.0
aF25.983050475781184
aF-5.999999999999974
asa(dp152
g2
(lp153
(lp154
F1.0
aF-1.0000000000000184
aa(lp155
F-1.0
aF-1.0000000000000104
aa(lp156
F-7.994350158593812
aF-1.0
aa(lp157
F-0.9999999999999825
aF0.9999999999999869
aa(lp158
F7.994350158593839
aF-1.0
aasg8
(lp159
F-5.597332591908652e-14
aF-6.000000000000032
aF-25.983050475781436
aF1.0
aF21.983050475781518
asa(dp160
g2
(lp161
(lp162
F-1.0
aF-1.0000000000000036
aa(lp163
F-7.994350158593851
aF-1.0
aa(lp164
F-7.99435015859378
aF1.0
aa(lp165
F1.0
aF0.9999999999999918
aa(lp166
F1.0
aF5.924908886395682e-16
aasg8
(lp167
F-10.999999999999996
aF-65.9548012687508
aF-55.95480126875024
aF12.999999999999961
aF8.000000000000002
asa(dp168
g2
(lp169
(lp170
F1.0
aF-0.0
aa(lp171
F1.0
aF0.9999999999999969
aa(lp172
F-7.994350158593814
aF-1.0
aasg8
(lp173
F8.0
aF10.999999999999988
aF-65.95480126875051
asa(dp174
g2
(lp175
(lp176
F1.0
aF1.0000000000000056
aa(lp177
F-0.9999999999999996
aF0.9999999999999996
aa(lp178
F-1.0
aF-0.9999999999999991
aa(lp179
F1.0
aF-0.9999999999999992
aa(lp180
F7.994350158593849
aF1.0
aasg8
(lp181
F6.000000000000018
aF1.0
aF-4.999999999999998
aF2.2756771546541516e-15
aF23.98305047578153
asa(dp182
g2
(lp183
(lp184
F1.0
aF1.000000000000008
aa(lp185
F-1.0
aF1.0000000000000009
aa(lp186
F-1.0
aF-0.9999999999999991
aa(lp187
F1.0000000000000022
aF-1.0000000000000036
aa(lp188
F7.994350158593842
aF1.0
aasg8
(lp189
F5.0000000000000195
aF8.881784197001248e-16
aF-2.9999999999999996
aF1.0
aF23.983050475781514
asa(dp190
g2
(lp191
(lp192
F7.994350158593778
aF1.0
aa(lp193
F-1.0
aF-1.0000000000000018
aa(lp194
F-1.0
aF0.9999999999999973
aasg8
(lp195
F23.983050475781347
aF-5.000000000000004
aF-7.549516567451044e-15
asa(dp196
g2
(lp197
(lp198
F-1.0
aF-0.9999999999999987
aa(lp199
F-0.9999999999999973
aF0.9999999999999978
aa(lp200
F1.0
aF0.9999999999999987
aa(lp201
F1.0
aF-1.0
aasg8
(lp202
F-2.9999999999999987
aF1.0
aF4.999999999999997
aF1.3322676295501867e-15
asa(dp203
g2
(lp204
(lp205
F7.994350158593777
aF1.0
aa(lp206
F-1.0
aF-1.0
aa(lp207
F-1.0
aF1.0
aasg8
(lp208
F47.97175079296888
aF-11.0
aF1.0
asa(dp209
g2
(lp210
(lp211
F7.994350158593845
aF1.0
aa(lp212
F1.0000000000000528
aF-1.000000000000045
aa(lp213
F-7.994350158593795
aF1.0
aasg8
(lp214
F47.97175079296923
aF-1.0
aF-33.971750792968976
asa(dp215
g2
(lp216
(lp217
F-1.0
aF-1.0
aa(lp218
F-0.0
aF-1.0
aa(lp219
F7.994350158593784
aF-1.0
aa(lp220
F-0.9999999999999956
aF0.9999999999999949
aasg8
(lp221
F-5.999999999999998
aF-2.0
aF33.97175079296892
aF-1.0
asa(dp222
g2
(lp223
(lp224
F1.0
aF1.0000000000000044
aa(lp225
F0.9999999999999917
aF-0.9999999999999866
aa(lp226
F-7.99435015859383
aF1.0
aasg8
(lp227
F6.000000000000012
aF1.0
aF-21.98305047578149
asa(dp228
g2
(lp229
(lp230
F1.0
aF1.0
aa(lp231
F-0.0
aF-1.0
aa(lp232
F-1.0
aF1.0
aasg8
(lp233
F5.999999999999998
aF-2.0
aF-1.0
asa(dp234
g2
(lp235
(lp236
F-7.994350158593822
aF1.0
aa(lp237
F-3.04477318422355e-15
aF1.0
aa(lp238
F1.0
aF1.0000000000000058
aa(lp239
F1.0000000000000027
aF-1.0000000000000018
aasg8
(lp240
F-21.983050475781464
aF5.999999999999987
aF10.000000000000032
aF-1.0
asa(dp241
g2
(lp242
(lp243
F-7.994350158593692
aF-1.0
aa(lp244
F-1.0
aF0.9999999999999949
aa(lp245
F7.994350158593797
aF1.0
aa(lp246
F-1.0
aF-0.9999999999999964
aasg8
(lp247
F-45.97175079296844
aF-3.2508191652924333e-14
aF47.971750792968976
aF-9.999999999999982
asa(dp248
g2
(lp249
(lp250
F-7.99435015859389
aF-1.0
aa(lp251
F1.0
aF1.0000000000000207
aa(lp252
F7.994350158595019
aF1.0
aa(lp253
F1.0000000000000295
aF-1.000000000000036
aasg8
(lp254
F-45.97175079296946
aF10.0000000000001
aF47.97175079297563
aF1.0
asa(dp255
g2
(lp256
(lp257
F1.000000000000094
aF-1.0000000000001161
aa(lp258
F1.0
aF0.9999999999999648
aa(lp259
F-7.994350158593844
aF-1.0
aasg8
(lp260
F1.0
aF9.999999999999837
aF-47.97175079296924
asa(dp261
g2
(lp262
(lp263
F-1.0
aF0.9999999999999554
aa(lp264
F-1.0
aF-1.000000000000066
aa(lp265
F-7.994350158593749
aF-1.0
aa(lp266
F1.0000000000001243
aF-1.000000000000149
aa(lp267
F1.0
aF1.0000000000000002
aasg8
(lp268
F-2.429571998058197e-13
aF-10.000000000000304
aF-47.97175079296872
aF1.0
aF11.000000000000002
asa(dp269
g2
(lp270
(lp271
F4.7773432435579945e-15
aF-1.0
aa(lp272
F-7.994350158593777
aF-1.0
aa(lp273
F-1.0
aF1.0
aa(lp274
F1.0
aF1.0000000000000018
aa(lp275
F7.994350158592322
aF-1.0
aasg8
(lp276
F-1.999999999999981
aF-47.97175079296886
aF-1.0
aF10.000000000000005
aF55.95480126873956
asa(dp277
g2
(lp278
(lp279
F7.994350158593881
aF1.0
aa(lp280
F-1.0
aF-0.9999999999999964
aa(lp281
F-0.9999999999999991
aF0.9999999999999991
aasg8
(lp282
F65.954801268751
aF-12.999999999999977
aF-1.0
asa(dp283
g2
(lp284
(lp285
F-7.994350158593841
aF-1.0
aa(lp286
F-1.0
aF-1.0000000000000508
aa(lp287
F7.994350158593769
aF-1.0
aa(lp288
F-0.9999999999993404
aF0.9999999999992428
aasg8
(lp289
F-65.95480126875071
aF-13.00000000000027
aF55.95480126875015
aF-1.0
asa(dp290
g2
(lp291
(lp292
F-1.0
aF-1.0000000000000016
aa(lp293
F-1.0
aF0.9999999999999982
aa(lp294
F7.994350158593874
aF1.0
aa(lp295
F0.9999999999999623
aF-0.9999999999999565
aasg8
(lp296
F-13.000000000000007
aF-1.4210854715201978e-14
aF65.95480126875096
aF1.0
asa(dp297
g2
(lp298
(lp299
F-7.99435015859377
aF-1.0
aa(lp300
F1.0000000000000249
aF-1.0000000000000289
aa(lp301
F7.994350158593715
aF-1.0
aa(lp302
F-1.0
aF0.9999999999999913
aasg8
(lp303
F-65.95480126875019
aF1.0
aF55.95480126874972
aF-6.823926837332837e-14
asa(dp304
g2
(lp305
(lp306
F0.9999999999999919
aF-0.999999999999986
aa(lp307
F1.0
aF1.0000000000000022
aa(lp308
F-7.994350158593825
aF-1.0
aasg8
(lp309
F1.0
aF5.0000000000000036
aF-23.98305047578147
asa(dp310
g2
(lp311
(lp312
F-7.994350158593761
aF-1.0
aa(lp313
F-1.0
aF0.9999999999999994
aa(lp314
F7.994350158593794
aF1.0
aa(lp315
F-1.0
aF-0.9999999999999994
aasg8
(lp316
F-23.983050475781297
aF-3.0419034009854026e-15
aF25.983050475781386
aF-4.999999999999998
asa(dp317
g2
(lp318
(lp319
F1.0
aF-1.0000000000000122
aa(lp320
F1.1849817772791508e-14
aF1.0
aa(lp321
F-7.994350158593822
aF-1.0
aasg8
(lp322
F-9.599106111157624e-14
aF8.00000000000009
aF-65.95480126875057
asa(dp323
g2
(lp324
(lp325
F-7.99435015859385
aF-1.0
aa(lp326
F1.0
aF1.0000000000000224
aa(lp327
F7.994350158593539
aF1.0
aa(lp328
F1.0
aF-1.0000000000000084
aasg8
(lp329
F-45.971750792969246
aF11.000000000000123
aF47.9717507929676
aF-4.467580525686649e-14
asa(dp330
g2
(lp331
(lp332
F1.0
aF-1.0000000000000417
aa(lp333
F1.0
aF0.999999999999993
aa(lp334
F-7.9943501585939485
aF-1.0
aasg8
(lp335
F-2.3118465847489976e-13
aF10.99999999999996
aF-47.97175079296979
asa(dp336
g2
(lp337
(lp338
F7.994350158593789
aF-1.0
aa(lp339
F-0.9999999999999705
aF0.9999999999999549
aa(lp340
F-7.994350158593811
aF-1.0
aasg8
(lp341
F21.98305047578136
aF-1.0
aF-23.983050475781432
asa(dp342
g2
(lp343
(lp344
F7.994350158593817
aF1.0
aa(lp345
F-1.0
aF-0.9999999999999953
aa(lp346
F-7.99435015859377
aF1.0
aasg8
(lp347
F23.98305047578145
aF-2.999999999999994
aF-21.98305047578131
asa(dp348
g2
(lp349
(lp350
F-1.0
aF-0.9999999999999993
aa(lp351
F-1.0
aF0.9999999999999997
aa(lp352
F7.994350158593804
aF1.0
aa(lp353
F7.994350158593778
aF-1.0
aasg8
(lp354
F-3.0
aF-1.0
aF23.98305047578141
aF21.983050475781333
asa(dp355
g2
(lp356
(lp357
F1.0
aF-0.0
aa(lp358
F-7.99435015859377
aF1.0
aa(lp359
F-7.9943501585938055
aF-1.0
aasg8
(lp360
F2.9999999999999996
aF-21.983050475781305
aF-23.98305047578142
asa(dp361
g2
(lp362
(lp363
F-7.994350158593869
aF-1.0
aa(lp364
F1.0
aF0.9999999999999831
aa(lp365
F7.994350158593557
aF1.0
aa(lp366
F1.0
aF-1.0000000000000069
aasg8
(lp367
F-23.98305047578159
aF5.999999999999943
aF25.983050475780697
aF-1.8268639105341317e-14
asa(dp368
g2
(lp369
(lp370
F7.994350158593318
aF1.0
aa(lp371
F-1.0
aF-1.000000000000012
aa(lp372
F-1.000000000000027
aF1.000000000000019
aasg8
(lp373
F23.983050475780168
aF-6.000000000000041
aF1.0
asa(dp374
g2
(lp375
(lp376
F1.0
aF-0.9999999999999902
aa(lp377
F1.0
aF1.0000000000000044
aa(lp378
F-7.994350158593748
aF-1.0
aasg8
(lp379
F2.844466769630885e-14
aF6.000000000000011
aF-25.98305047578125
asa(dp380
g2
(lp381
(lp382
F-7.9943501585938295
aF-1.0
aa(lp383
F-1.0
aF0.9999999999999645
aa(lp384
F1.0
aF0.999999999999967
aa(lp385
F7.994350158593838
aF-1.0
aasg8
(lp386
F-25.98305047578149
aF-1.0302869668521114e-13
aF5.999999999999904
aF21.983050475781518
asa(dp387
g2
(lp388
(lp389
F-7.994350158593811
aF-1.0
aa(lp390
F-1.0
aF-1.0000000000000016
aa(lp391
F7.99435015859377
aF-1.0
aa(lp392
F1.0
aF1.0000000000000027
aasg8
(lp393
F-6.0
aF-5.000000000000008
aF-3.552713678800482e-14
aF6.000000000000014
asa(dp394
g2
(lp395
(lp396
F7.99435015859381
aF1.0
aa(lp397
F-1.0
aF-0.0
aa(lp398
F-1.0
aF-0.999999999999996
aasg8
(lp399
F6.0
aF0.0
aF-4.999999999999982
asa(dp400
g2
(lp401
(lp402
F-1.0000000000000007
aF1.000000000000001
aa(lp403
F2.2204460492503136e-16
aF-1.0
aa(lp404
F7.994350158593816
aF-1.0
aa(lp405
F1.0
aF0.9999999999999997
aasg8
(lp406
F-1.0
aF2.2204460492503136e-16
aF21.98305047578144
aF3.0
asa(dp407
g2
(lp408
(lp409
F-1.0
aF1.0
aa(lp410
F-7.994350158593802
aF-1.0
aa(lp411
F-0.0
aF-1.0
aa(lp412
F7.994350158593802
aF1.0
aasg8
(lp413
F-1.0
aF-45.971750792969
aF-2.0000000000000018
aF47.971750792969004
asa(dp414
g2
(lp415
(lp416
F-0.9999999999999938
aF0.9999999999999978
aa(lp417
F-1.0
aF-0.0
aa(lp418
F7.9943501585938215
aF-1.0
aasg8
(lp419
F1.0
aF0.0
aF0.0
asa(dp420
g2
(lp421
(lp422
F-7.994350158593815
aF1.0
aa(lp423
F1.0
aF1.0000000000000067
aa(lp424
F7.9943501585938135
aF1.0
aa(lp425
F1.0000000000000016
aF-0.9999999999999992
aasg8
(lp426
F8.881784197001252e-16
aF3.000000000000019
aF6.000000000000004
aF-1.0
asa(dp427
g2
(lp428
(lp429
F0.9999999999999925
aF-0.9999999999999978
aa(lp430
F-1.0
aF-0.0
aa(lp431
F1.0
aF1.0000000000000016
aa(lp432
F7.994350158593817
aF-1.0
aasg8
(lp433
F-1.0
aF0.0
aF3.0000000000000053
aF-6.663430979784023e-16
asa(dp434
g2
(lp435
(lp436
F-1.0
aF-1.0000000000000009
aa(lp437
F-0.0
aF1.0
aa(lp438
F-7.994350158593812
aF1.0
aa(lp439
F7.994350158593741
aF1.0
aa(lp440
F0.9999999999996072
aF-0.9999999999997174
aasg8
(lp441
F-6.0000000000000036
aF5.999999999999998
aF6.217248937900877e-15
aF23.983050475781255
aF-1.0
asa(dp442
g2
(lp443
(lp444
F7.994350158593813
aF-1.0
aa(lp445
F1.0
aF1.000000000000001
aa(lp446
F-7.994350158593805
aF-1.0
aasg8
(lp447
F-3.2987434315120253e-15
aF5.000000000000006
aF-5.999999999999998
asa(dp448
g2
(lp449
(lp450
F7.994350158593793
aF1.0
aa(lp451
F-1.0
aF-1.0000000000000082
aa(lp452
F-7.994350158593855
aF1.0
aasg8
(lp453
F5.999999999999995
aF-3.000000000000022
aF-1.2434497875801753e-14
asa(dp454
g2
(lp455
(lp456
F-1.0
aF-1.000000000000001
aa(lp457
F-7.994350158593809
aF1.0
aa(lp458
F-7.994350158593797
aF-1.0
aa(lp459
F1.0
aF0.9999999999999998
aa(lp460
F0.9999999999999927
aF-0.9999999999999947
aasg8
(lp461
F-3.000000000000004
aF4.571464451192555e-15
aF-5.999999999999996
aF5.000000000000001
aF-1.0
asa(dp462
g2
(lp463
(lp464
F-1.0
aF-1.0000000000000002
aa(lp465
F1.0
aF0.9999999999999938
aa(lp466
F-1.0
aF-0.0
aa(lp467
F7.994350158593812
aF1.0
aa(lp468
F7.994350158593859
aF-1.0
aasg8
(lp469
F-3.0000000000000018
aF4.999999999999972
aF0.0
aF6.000000000000002
aF1.4198906743104852e-14
asa(dp470
g2
(lp471
(lp472
F7.994350158593268
aF-1.0
aa(lp473
F1.0
aF0.999999999999915
aa(lp474
F-7.994350158593674
aF-1.0
aasg8
(lp475
F55.95480126874633
aF12.999999999999543
aF-65.95480126874945
asa(dp476
g2
(lp477
(lp478
F7.994350158593861
aF-1.0
aa(lp479
F-1.0
aF0.9999999999999952
aa(lp480
F-1.0
aF-1.0
aasg8
(lp481
F21.983050475781585
aF-1.5799757030388644e-14
aF-5.999999999999999
asa(dp482
g2
(lp483
(lp484
F7.994350158593806
aF-1.0
aa(lp485
F-1.481227221598937e-16
aF1.0
aa(lp486
F-1.0
aF-0.9999999999999994
aasg8
(lp487
F-1.0658141036401484e-14
aF6.000000000000001
aF-5.999999999999997
asa(dp488
g2
(lp489
(lp490
F-7.994350158593805
aF1.0
aa(lp491
F-1.0
aF-1.0000000000000229
aa(lp492
F1.0
aF9.260578672013935e-17
aa(lp493
F-0.9999999999994417
aF0.9999999999993628
aasg8
(lp494
F-55.954801268750444
aF-13.000000000000112
aF8.000000000000002
aF-1.0
asa(dp495
g2
(lp496
(lp497
F1.0
aF1.0000000000000009
aa(lp498
F1.2639805624310974e-14
aF-1.0
aa(lp499
F-7.9943501585938
aF1.0
aasg8
(lp500
F3.000000000000001
aF3.791941687293292e-14
aF-21.983050475781393
asa(dp501
g2
(lp502
(lp503
F1.000000000000001
aF-0.9999999999999992
aa(lp504
F1.0
aF1.0000000000000004
aa(lp505
F-7.994350158593808
aF-1.0
aasg8
(lp506
F-1.0
aF3.0000000000000018
aF-6.0
asa(dp507
g2
(lp508
(lp509
F1.0
aF-1.0
aa(lp510
F-8.881784197001244e-16
aF1.0
aa(lp511
F-1.0
aF-1.0
aasg8
(lp512
F-1.0
aF5.999999999999996
aF-10.0
asa(dp513
g2
(lp514
(lp515
F7.994350158593814
aF-1.0
aa(lp516
F-1.0000000000000082
aF1.0000000000000069
aa(lp517
F-1.0
aF-1.0
aasg8
(lp518
F33.971750792969075
aF1.0
aF-10.0
asa(dp519
g2
(lp520
(lp521
F1.0
aF-0.0
aa(lp522
F-7.994350158593777
aF1.0
aa(lp523
F1.0000000000000426
aF-1.0000000000000488
aasg8
(lp524
F8.0
aF-55.95480126875022
aF1.0
asa(dp525
g2
(lp526
(lp527
F1.0
aF1.0000000000000013
aa(lp528
F2.3699635545583094e-15
aF-1.0
aa(lp529
F-7.994350158593753
aF1.0
aasg8
(lp530
F10.000000000000004
aF-1.9999999999999867
aF-55.95480126875004
asa(dp531
g2
(lp532
(lp533
F-7.994350158593833
aF1.0
aa(lp534
F-1.0
aF-0.999999999999998
aa(lp535
F1.0000000000000207
aF-1.0000000000000142
aa(lp536
F1.0
aF0.9999999999999992
aasg8
(lp537
F-7.993605777301127e-15
aF-4.999999999999993
aF-1.0
aF5.999999999999996
asa(dp538
g2
(lp539
(lp540
F7.994350158593489
aF-1.0
aa(lp541
F-1.5799757030388644e-15
aF1.0
aa(lp542
F-1.0
aF-1.0
aasg8
(lp543
F33.97175079296736
aF7.999999999999992
aF-13.0
asa(dp544
g2
(lp545
(lp546
F-7.994350158593802
aF1.0
aa(lp547
F-1.0000000000000133
aF1.0000000000000182
aa(lp548
F7.994350158593646
aF1.0
aa(lp549
F-1.4433683947256199e-15
aF-1.0
aasg8
(lp550
F-33.971750792969
aF-1.0
aF45.971750792968145
aF-2.0000000000000067
asa(dp551
g2
(lp552
(lp553
F-1.0
aF-0.999999999999992
aa(lp554
F-7.994350158593834
aF1.0
aa(lp555
F7.994350158593814
aF1.0
aa(lp556
F1.0
aF-0.9999999999999911
aasg8
(lp557
F-9.99999999999996
aF-33.97175079296917
aF45.97175079296907
aF4.593437933301453e-14
asa(dp558
g2
(lp559
(lp560
F-1.0
aF-0.9999999999999982
aa(lp561
F-1.0
aF1.0000000000000009
aa(lp562
F1.0
aF1.0000000000000036
aa(lp563
F1.0000000000000049
aF-1.0000000000000058
aasg8
(lp564
F-10.999999999999991
aF3.5527136788004994e-15
aF13.000000000000021
aF1.0
asa(dp565
g2
(lp566
(lp567
F7.994350158593682
aF1.0
aa(lp568
F-1.0
aF-1.0000000000000189
aa(lp569
F-1.0
aF0.999999999999992
aasg8
(lp570
F45.97175079296839
aF-10.000000000000094
aF-4.174438572590555e-14
asa.