(lp0
(lp1
(F0.6670854363244015
F0.6670854363244016
tp2
a(F0.0
F0.0
tp3
a(F0.1429725388814458
F1.1429725388814473
tp4
a(F0.5559045302703345
F1.555904530270336
tp5
aa(lp6
g2
a(F1.5000000000000007
F1.5000000000000002
tp7
a(F2.0
F1.0000000000000004
tp8
a(F0.9999999999999991
F0.0
tp9
a(F0.7505300469669933
F0.0
tp10
aa(lp11
g2
ag10
ag3
aa(lp12
g2
ag5
a(F0.9999999999999998
F2.0000000000000018
tp13
ag7
aa(lp14
(F7.444095469729663
F3.555904530270335
tp15
a(F7.624734976516503
F5.000000000000005
tp16
a(F7.857027461118554
F3.1429725388814447
tp17
aa(lp18
g15
a(F7.332914563675597
F2.667085436324404
tp19
a(F5.5
F4.5
tp20
a(F6.0
F5.0
tp21
aa(lp22
g15
ag21
a(F7.0
F5.999999999999999
tp23
a(F7.571082383355662
F5.428917616644336
tp24
ag16
aa(lp25
g15
ag17
a(F8.0
F2.0
tp26
ag19
aa(lp27
(F5.0
F8.0
tp28
a(F5.222361812108133
F7.777638187891867
tp29
a(F5.125088341161166
F7.000000000000001
tp30
aa(lp31
g28
ag30
a(F5.0
F6.0
tp32
aa(lp33
(F4.8570274611185535
F4.8570274611185535
tp34
a(F4.8888190939459335
F5.111180906054067
tp35
a(F5.000000000000001
F4.999999999999999
tp36
aa(lp37
g34
a(F4.714054922237107
F3.714054922237107
tp38
a(F3.499999999999999
F2.499999999999999
tp39
a(F3.1111809060540665
F2.888819093945932
tp40
a(F3.142972538881445
F3.1429725388814442
tp41
aa(lp42
g34
ag36
a(F5.142972538881446
F4.857027461118555
tp43
a(F5.222361812108133
F4.222361812108133
tp44
ag38
aa(lp45
g34
ag41
a(F3.285945077762891
F4.285945077762892
tp46
a(F4.5
F5.500000000000001
tp47
ag35
aa(lp48
(F6.0
F7.0
tp49
a(F6.5
F6.499999999999998
tp50
a(F5.500000000000001
F5.5
tp51
a(F5.285945077762892
F5.714054922237108
tp52
a(F5.222361812108134
F6.222361812108134
tp53
aa(lp54
g49
a(F7.0
F8.0
tp55
a(F7.249469953033007
F8.0
tp56
a(F7.332914563675598
F7.3329145636755975
tp57
ag50
aa(lp58
g49
ag29
a(F5.250176682322331
F8.0
tp59
ag55
aa(lp60
g49
ag53
ag30
ag29
aa(lp61
(F2.777638187891866
F3.7776381878918674
tp62
a(F2.4996466353553384
F6.0
tp63
a(F3.500353364644661
F6.0
tp64
ag46
aa(lp65
g62
a(F2.5552763757837322
F3.5552763757837336
tp66
a(F2.249469953033007
F6.0
tp67
ag63
aa(lp68
g62
a(F2.8570274611185544
F3.1429725388814442
tp69
a(F2.5710823833556633
F3.428917616644336
tp70
ag66
aa(lp71
g62
ag46
ag41
a(F2.9999999999999996
F2.999999999999999
tp72
ag69
aa(lp73
g17
ag16
a(F7.666457281837799
F5.333542718162201
tp74
a(F8.0
F4.999999999999998
tp75
a(F8.0
F2.9999999999999987
tp76
aa(lp77
g17
ag76
ag26
aa(lp78
(F2.5000000000000004
F2.4999999999999996
tp79
a(F1.9999999999999996
F3.000000000000001
tp80
a(F2.499999999999999
F3.5
tp81
ag70
a(F2.666457281837799
F2.6664572818377987
tp82
aa(lp83
g79
a(F2.7140549222371084
F2.285945077762892
tp84
a(F2.777638187891866
F1.7776381878918666
tp85
ag8
ag7
aa(lp86
g79
ag82
ag84
aa(lp87
g79
ag7
ag13
ag80
aa(lp88
g53
ag52
ag32
aa(lp89
g53
ag32
ag30
aa(lp90
g39
ag38
a(F4.499646635355337
F2.0
tp91
a(F3.9999999999999982
F2.0
tp92
aa(lp93
g39
a(F3.0
F2.0
tp94
ag40
aa(lp95
g39
ag92
ag94
aa(lp96
g46
ag64
a(F4.000000000000001
F6.0
tp97
ag47
aa(lp98
(F5.428917616644338
F4.571082383355663
tp99
ag43
a(F5.1111809060540665
F5.111180906054066
tp100
a(F5.3335427181622
F5.3335427181621995
tp101
aa(lp102
g99
a(F5.444723624216268
F4.444723624216268
tp103
ag44
ag43
aa(lp104
g99
ag20
ag103
aa(lp105
g99
ag101
ag51
ag21
ag20
aa(lp106
(F5.750530046966993
F2.0
tp107
ag103
ag20
ag19
a(F7.249469953033004
F2.0
tp108
aa(lp109
(F7.444095469729666
F6.444095469729665
tp110
ag24
ag23
aa(lp111
g110
a(F7.8570274611185535
F6.8570274611185535
tp112
ag74
ag24
aa(lp113
g110
ag23
ag50
ag57
aa(lp114
g110
ag57
a(F8.0
F8.0
tp115
ag112
aa(lp116
g84
ag94
ag85
aa(lp117
g84
ag82
a(F2.8888190939459335
F2.888819093945932
tp118
ag94
aa(lp119
g57
ag56
ag115
aa(lp120
g52
ag101
ag100
ag32
aa(lp121
g52
ag51
ag101
aa(lp122
(F2.874911658838834
F1.0000000000000022
tp123
ag85
ag94
aa(lp124
g123
a(F3.0
F0.0
tp125
a(F2.7776381878918652
F0.22236181210813474
tp126
aa(lp127
g123
ag126
ag8
ag85
aa(lp128
g123
ag94
ag125
aa(lp129
g70
ag69
ag118
ag82
aa(lp130
g70
ag81
ag66
aa(lp131
g118
ag69
ag72
aa(lp132
g118
ag72
ag40
ag94
aa(lp133
(F0.0
F6.0
tp134
a(F0.6670854363244004
F5.332914563675599
tp135
a(F0.555904530270334
F4.4440954697296675
tp136
a(F0.14297253888144562
F4.857027461118555
tp137
aa(lp138
g134
ag137
a(F0.0
F5.000000000000002
tp139
aa(lp140
g9
ag8
ag126
a(F2.749823317677668
F0.0
tp141
aa(lp142
g103
ag107
a(F5.500353364644662
F2.0
tp143
ag44
aa(lp144
g4
ag3
a(F0.0
F1.0000000000000022
tp145
aa(lp146
g4
a(F0.3335427181622005
F2.6664572818378005
tp147
a(F0.42891761664433736
F2.571082383355664
tp148
ag5
aa(lp149
g4
ag145
a(F0.0
F3.000000000000001
tp150
ag147
aa(lp151
g67
ag66
ag81
ag135
a(F0.750530046966992
F6.0
tp152
aa(lp153
(F0.3752650234834963
F3.0000000000000027
tp154
ag137
ag136
aa(lp155
g154
ag148
ag147
aa(lp156
g154
ag136
ag80
ag13
ag148
aa(lp157
g154
ag147
ag150
ag139
ag137
aa(lp158
g24
ag74
ag16
aa(lp159
g40
ag72
ag41
aa(lp160
g152
ag135
ag134
aa(lp161
g74
ag112
a(F8.0
F6.999999999999999
tp162
ag75
aa(lp163
g126
ag125
ag141
aa(lp164
g13
ag5
ag148
aa(lp165
g47
ag97
ag32
aa(lp166
g47
ag32
ag35
aa(lp167
g112
ag115
ag162
aa(lp168
g108
ag19
ag26
aa(lp169
g81
ag80
ag136
ag135
aa(lp170
g29
ag28
ag59
aa(lp171
g91
ag38
ag44
ag143
aa(lp172
g35
ag32
ag100
ag36
aa(lp173
g21
ag51
ag50
ag23
aa(lp174
g36
ag100
ag43
aa.