(lp0
(lp1
I3
aI2
aI4
aI4
aI4
aI0
aI0
aI0
aa(lp2
I7
aI2
aI2
aI4
aI0
aI0
aI0
aI0
aa(lp3
I7
aI2
aI4
aI4
aI0
aI0
aI0
aI0
aa(lp4
I3
aI2
aI2
aI4
aI4
aI0
aI0
aI0
aa(lp5
I7
aI7
aI3
aI6
aI1
aI1
aI1
aI7
aa(lp6
I7
aI3
aI3
aI2
aI1
aI1
aI1
aI7
aa(lp7
I7
aI3
aI3
aI6
aI1
aI1
aI1
aI7
aa(lp8
I7
aI7
aI3
aI2
aI1
aI1
aI1
aI7
aa(lp9
I3
aI3
aI3
aI6
aI6
aI6
aI1
aI7
aa(lp10
I3
aI3
aI6
aI6
aI6
aI6
aI1
aI7
aa(lp11
I3
aI3
aI2
aI2
aI4
aI1
aI1
aI1
aa(lp12
I7
aI2
aI2
aI2
aI0
aI1
aI1
aI1
aa(lp13
I7
aI3
aI2
aI2
aI0
aI1
aI1
aI1
aa(lp14
I3
aI2
aI2
aI2
aI4
aI1
aI1
aI1
aa(lp15
I3
aI3
aI3
aI6
aI4
aI1
aI1
aI7
aa(lp16
I3
aI3
aI3
aI3
aI4
aI1
aI1
aI7
aa(lp17
I3
aI3
aI3
aI3
aI6
aI1
aI1
aI7
aa(lp18
I3
aI3
aI3
aI6
aI6
aI1
aI1
aI7
aa(lp19
I2
aI2
aI2
aI2
aI4
aI0
aI1
aI1
aa(lp20
I2
aI2
aI2
aI2
aI4
aI0
aI5
aI1
aa(lp21
I3
aI2
aI2
aI2
aI4
aI0
aI5
aI1
aa(lp22
I3
aI2
aI2
aI2
aI4
aI0
aI1
aI1
aa(lp23
I7
aI7
aI3
aI6
aI1
aI1
aI7
aI7
aa(lp24
I7
aI7
aI3
aI2
aI1
aI1
aI7
aI7
aa(lp25
I3
aI2
aI2
aI4
aI4
aI0
aI0
aI1
aa(lp26
I7
aI2
aI2
aI4
aI0
aI0
aI0
aI5
aa(lp27
I7
aI2
aI2
aI4
aI0
aI0
aI0
aI1
aa(lp28
I3
aI2
aI2
aI4
aI4
aI0
aI0
aI5
aa(lp29
I3
aI3
aI6
aI6
aI4
aI1
aI1
aI7
aa(lp30
I3
aI3
aI6
aI6
aI6
aI1
aI1
aI7
aa(lp31
I7
aI2
aI2
aI2
aI1
aI1
aI1
aI1
aa(lp32
I7
aI2
aI2
aI4
aI0
aI1
aI1
aI1
aa(lp33
I7
aI2
aI2
aI4
aI1
aI1
aI1
aI1
aa(lp34
I2
aI2
aI2
aI2
aI4
aI1
aI1
aI1
aa(lp35
I7
aI3
aI6
aI2
aI0
aI1
aI1
aI7
aa(lp36
I7
aI3
aI6
aI2
aI0
aI1
aI1
aI1
aa(lp37
I7
aI3
aI3
aI2
aI0
aI1
aI1
aI1
aa(lp38
I7
aI3
aI3
aI2
aI0
aI1
aI1
aI7
aa(lp39
I7
aI3
aI3
aI2
aI1
aI1
aI1
aI1
aa(lp40
I7
aI3
aI3
aI3
aI1
aI1
aI1
aI7
aa(lp41
I7
aI3
aI3
aI3
aI1
aI1
aI7
aI7
aa(lp42
I7
aI3
aI3
aI3
aI0
aI1
aI1
aI7
aa(lp43
I7
aI3
aI3
aI3
aI0
aI1
aI7
aI7
aa(lp44
I7
aI2
aI2
aI4
aI0
aI0
aI5
aI5
aa(lp45
I7
aI2
aI2
aI4
aI0
aI0
aI5
aI1
aa(lp46
I3
aI3
aI3
aI3
aI4
aI1
aI7
aI7
aa(lp47
I3
aI3
aI6
aI2
aI4
aI1
aI1
aI7
aa(lp48
I3
aI3
aI3
aI2
aI4
aI1
aI1
aI7
aa(lp49
I5
aI2
aI2
aI4
aI0
aI0
aI5
aI5
aa(lp50
I5
aI5
aI2
aI4
aI0
aI0
aI0
aI5
aa(lp51
I5
aI2
aI2
aI4
aI0
aI0
aI0
aI5
aa(lp52
I5
aI5
aI2
aI4
aI0
aI0
aI5
aI5
aa(lp53
I3
aI2
aI2
aI4
aI4
aI0
aI5
aI1
aa(lp54
I3
aI2
aI2
aI2
aI4
aI0
aI0
aI1
aa(lp55
I3
aI2
aI2
aI4
aI4
aI0
aI1
aI1
aa(lp56
I7
aI2
aI2
aI4
aI0
aI0
aI1
aI1
aa(lp57
I2
aI2
aI2
aI4
aI4
aI4
aI0
aI1
aa(lp58
I2
aI2
aI4
aI4
aI4
aI4
aI0
aI1
aa(lp59
I5
aI2
aI2
aI4
aI0
aI0
aI0
aI0
aa(lp60
I7
aI3
aI6
aI2
aI1
aI1
aI1
aI1
aa(lp61
I3
aI2
aI4
aI4
aI4
aI4
aI0
aI0
aa(lp62
I2
aI2
aI4
aI4
aI4
aI0
aI0
aI0
aa(lp63
I2
aI2
aI4
aI4
aI4
aI4
aI0
aI0
aa(lp64
I2
aI2
aI2
aI2
aI4
aI0
aI0
aI1
aa(lp65
I2
aI2
aI2
aI4
aI4
aI4
aI0
aI5
aa(lp66
I2
aI2
aI4
aI4
aI4
aI0
aI0
aI5
aa(lp67
I2
aI2
aI2
aI4
aI4
aI0
aI0
aI5
aa(lp68
I2
aI2
aI4
aI4
aI4
aI4
aI0
aI5
aa(lp69
I7
aI3
aI3
aI6
aI1
aI1
aI7
aI7
aa(lp70
I7
aI2
aI2
aI2
aI0
aI0
aI1
aI1
aa(lp71
I2
aI2
aI2
aI2
aI4
aI4
aI0
aI1
aa(lp72
I7
aI7
aI3
aI3
aI1
aI1
aI7
aI7
aa(lp73
I5
aI5
aI2
aI4
aI0
aI0
aI0
aI0
aa(lp74
I2
aI2
aI2
aI4
aI4
aI0
aI0
aI0
aa(lp75
I2
aI2
aI2
aI2
aI4
aI1
aI1
aI7
aa(lp76
I3
aI2
aI2
aI2
aI4
aI1
aI1
aI7
aa(lp77
I7
aI7
aI3
aI3
aI0
aI1
aI7
aI7
aa(lp78
I7
aI7
aI3
aI2
aI1
aI1
aI1
aI1
aa(lp79
I2
aI2
aI2
aI4
aI4
aI0
aI0
aI1
aa(lp80
I3
aI3
aI3
aI3
aI6
aI6
aI1
aI7
aa(lp81
I7
aI3
aI2
aI2
aI1
aI1
aI1
aI1
aa(lp82
I3
aI3
aI2
aI2
aI4
aI1
aI1
aI7
aa(lp83
I7
aI3
aI3
aI6
aI0
aI1
aI1
aI7
aa(lp84
I7
aI3
aI2
aI2
aI0
aI1
aI1
aI7
aa.