(lp0
(lp1
(F5.414213562373095
F7.0
tp2
a(F5.671572875253809
F7.621320343559642
tp3
a(F6.757359312880715
F4.999999999999998
tp4
a(F6.500000000000001
F4.378679656440356
tp5
aa(lp6
g2
ag5
a(F6.085786437626906
F3.3786796564403563
tp7
a(F5.0
F6.0
tp8
aa(lp9
g2
ag8
a(F5.0
F8.0
tp10
aa(lp11
g2
ag10
a(F5.514718625761429
F8.0
tp12
ag3
aa(lp13
(F3.0
F0.0
tp14
a(F2.585786437626905
F0.9999999999999993
tp15
a(F3.0
F2.0
tp16
aa(lp17
(F2.4852813742385704
F6.0
tp18
a(F1.914213562373095
F4.621320343559643
tp19
a(F1.3431457505076196
F6.0
tp20
aa(lp21
g5
a(F7.485281374238571
F2.0
tp22
a(F6.6568542494923815
F2.0
tp23
ag7
aa(lp24
g5
ag4
a(F8.0
F2.0
tp25
ag22
aa(lp26
g15
a(F2.3284271247461916
F0.3786796564403585
tp27
a(F1.2426406871192857
F3.0000000000000013
tp28
a(F1.5
F3.6213203435596424
tp29
aa(lp30
g15
ag29
ag19
ag16
aa(lp31
g15
ag14
a(F2.485281374238572
F0.0
tp32
ag27
aa(lp33
(F2.171572875253811
F0.0
tp34
ag27
ag32
aa(lp35
g8
a(F3.3431457505076216
F2.0
tp36
ag16
a(F4.656854249492381
F6.0
tp37
aa(lp38
g8
ag7
a(F5.514718625761432
F2.0
tp39
ag36
aa(lp40
g4
ag3
a(F5.82842712474619
F8.0
tp41
a(F8.0
F8.0
tp42
aa(lp43
g4
ag42
ag25
aa(lp44
g41
ag3
ag12
aa(lp45
g16
ag19
ag18
ag37
aa(lp46
(F0.0
F0.0
tp47
ag28
ag27
ag34
aa(lp48
g20
ag19
ag29
a(F0.5147186257614296
F6.0
tp49
aa(lp50
g29
ag28
a(F0.0
F6.0
tp51
ag49
aa(lp52
g7
ag23
ag39
aa(lp53
g51
ag28
ag47
aa.