(dp0
I0
(lp1
(lp2
I7
aI3
aI3
aI6
aI6
aI1
aI1
aI7
aa(lp3
I7
aI3
aI3
aI2
aI4
aI1
aI1
aI7
aa(lp4
I7
aI3
aI3
aI6
aI4
aI1
aI1
aI7
aa(lp5
I3
aI3
aI3
aI6
aI6
aI1
aI1
aI7
aasI1
(lp6
(lp7
I7
aI3
aI6
aI4
aI4
aI1
aI1
aI7
aa(lp8
I3
aI3
aI6
aI6
aI6
aI1
aI1
aI7
aa(lp9
I7
aI3
aI6
aI6
aI6
aI1
aI1
aI7
aa(lp10
I7
aI3
aI6
aI6
aI4
aI1
aI1
aI7
aa(lp11
I7
aI3
aI6
aI2
aI4
aI1
aI1
aI7
aasI2
(lp12
(lp13
I7
aI3
aI6
aI6
aI6
aI6
aI1
aI7
aa(lp14
I3
aI3
aI6
aI6
aI6
aI6
aI1
aI7
aasI3
(lp15
(lp16
I3
aI3
aI3
aI3
aI6
aI6
aI1
aI7
aa(lp17
I3
aI3
aI3
aI6
aI6
aI6
aI1
aI7
aasI4
(lp18
(lp19
I5
aI5
aI2
aI4
aI0
aI0
aI5
aI5
aa(lp20
I5
aI5
aI2
aI4
aI4
aI0
aI5
aI5
aasI5
(lp21
(lp22
I7
aI2
aI2
aI4
aI4
aI4
aI1
aI7
aa(lp23
I2
aI2
aI2
aI2
aI4
aI4
aI1
aI7
aa(lp24
I2
aI2
aI2
aI4
aI4
aI4
aI1
aI7
aasI6
(lp25
(lp26
I7
aI7
aI6
aI2
aI4
aI1
aI1
aI7
aa(lp27
I7
aI7
aI6
aI2
aI1
aI1
aI1
aI7
aa(lp28
I7
aI7
aI6
aI4
aI1
aI1
aI1
aI7
aa(lp29
I7
aI7
aI6
aI4
aI4
aI1
aI1
aI7
aa(lp30
I7
aI7
aI6
aI4
aI1
aI1
aI1
aI1
aasI7
(lp31
(lp32
I7
aI7
aI3
aI2
aI4
aI1
aI1
aI7
aa(lp33
I7
aI7
aI3
aI4
aI1
aI1
aI1
aI7
aa(lp34
I7
aI7
aI3
aI2
aI1
aI1
aI1
aI7
aa(lp35
I7
aI7
aI3
aI4
aI1
aI1
aI1
aI1
aasI8
(lp36
(lp37
I5
aI2
aI2
aI4
aI0
aI0
aI0
aI5
aa(lp38
I5
aI2
aI2
aI4
aI4
aI0
aI0
aI5
aa(lp39
I7
aI2
aI2
aI4
aI4
aI0
aI0
aI5
aa(lp40
I7
aI2
aI2
aI4
aI4
aI0
aI0
aI1
aasI9
(lp41
(lp42
I7
aI2
aI2
aI4
aI4
aI0
aI5
aI1
aa(lp43
I7
aI2
aI2
aI4
aI4
aI0
aI5
aI5
aa(lp44
I5
aI2
aI2
aI4
aI4
aI0
aI5
aI5
aa(lp45
I5
aI2
aI2
aI4
aI0
aI0
aI5
aI5
aa(lp46
I7
aI2
aI2
aI4
aI4
aI0
aI5
aI7
aasI10
(lp47
(lp48
I5
aI5
aI2
aI4
aI0
aI0
aI0
aI5
aa(lp49
I5
aI5
aI2
aI4
aI0
aI0
aI0
aI0
aasI11
(lp50
(lp51
I5
aI5
aI4
aI4
aI0
aI0
aI0
aI0
aa(lp52
I5
aI5
aI4
aI4
aI0
aI0
aI0
aI5
aasI12
(lp53
(lp54
I7
aI2
aI2
aI4
aI1
aI1
aI1
aI1
aa(lp55
I2
aI2
aI2
aI2
aI4
aI1
aI1
aI7
aa(lp56
I7
aI2
aI2
aI4
aI4
aI1
aI1
aI7
aa(lp57
I7
aI2
aI2
aI4
aI4
aI1
aI1
aI1
aa(lp58
I7
aI2
aI2
aI2
aI4
aI1
aI1
aI7
aasI13
(lp59
(lp60
I7
aI3
aI2
aI2
aI4
aI1
aI1
aI7
aa(lp61
I7
aI3
aI2
aI4
aI4
aI1
aI1
aI1
aa(lp62
I7
aI3
aI2
aI4
aI1
aI1
aI1
aI1
aa(lp63
I7
aI3
aI2
aI4
aI4
aI1
aI1
aI7
aa(lp64
I7
aI3
aI2
aI4
aI1
aI1
aI1
aI7
aasI14
(lp65
(lp66
I7
aI3
aI3
aI6
aI4
aI1
aI7
aI7
aa(lp67
I7
aI3
aI3
aI3
aI4
aI1
aI7
aI7
aa(lp68
I7
aI3
aI3
aI6
aI6
aI1
aI7
aI7
aa(lp69
I7
aI3
aI3
aI3
aI6
aI1
aI7
aI7
aa(lp70
I3
aI3
aI3
aI6
aI6
aI1
aI7
aI7
aa(lp71
I3
aI3
aI3
aI3
aI6
aI1
aI7
aI7
aa(lp72
I7
aI3
aI3
aI2
aI4
aI1
aI7
aI7
aasI15
(lp73
(lp74
I7
aI7
aI3
aI2
aI1
aI1
aI7
aI7
aa(lp75
I7
aI7
aI3
aI6
aI4
aI1
aI7
aI7
aa(lp76
I7
aI7
aI3
aI2
aI4
aI1
aI7
aI7
aa(lp77
I7
aI7
aI3
aI3
aI4
aI1
aI7
aI7
aa(lp78
I7
aI7
aI3
aI4
aI1
aI1
aI7
aI7
aa(lp79
I7
aI7
aI3
aI3
aI6
aI1
aI7
aI7
aasI16
(lp80
(lp81
I3
aI3
aI3
aI6
aI6
aI6
aI7
aI7
aa(lp82
I3
aI3
aI3
aI3
aI6
aI6
aI7
aI7
aasI17
(lp83
(lp84
I7
aI2
aI2
aI4
aI4
aI0
aI1
aI7
aa(lp85
I2
aI2
aI2
aI2
aI4
aI0
aI1
aI7
aa(lp86
I7
aI2
aI2
aI2
aI4
aI0
aI1
aI7
aa(lp87
I2
aI2
aI2
aI4
aI4
aI0
aI1
aI7
aa(lp88
I7
aI2
aI2
aI4
aI4
aI0
aI1
aI1
aasI18
(lp89
(lp90
I5
aI2
aI4
aI4
aI4
aI0
aI0
aI5
aa(lp91
I7
aI2
aI4
aI4
aI4
aI0
aI0
aI5
aa(lp92
I5
aI2
aI4
aI4
aI4
aI0
aI0
aI0
aa(lp93
I7
aI2
aI4
aI4
aI4
aI0
aI0
aI0
aa(lp94
I5
aI2
aI4
aI4
aI0
aI0
aI0
aI0
aa(lp95
I5
aI2
aI4
aI4
aI0
aI0
aI0
aI5
aa(lp96
I7
aI2
aI4
aI4
aI4
aI0
aI0
aI1
aasI19
(lp97
(lp98
I2
aI2
aI2
aI4
aI4
aI4
aI5
aI7
aa(lp99
I2
aI2
aI2
aI4
aI4
aI4
aI5
aI1
aa(lp100
I7
aI2
aI2
aI4
aI4
aI4
aI5
aI1
aa(lp101
I7
aI2
aI2
aI4
aI4
aI4
aI5
aI7
aa(lp102
I2
aI2
aI2
aI2
aI4
aI4
aI5
aI7
aasI20
(lp103
(lp104
I2
aI2
aI2
aI4
aI4
aI4
aI0
aI1
aa(lp105
I2
aI2
aI2
aI4
aI4
aI4
aI0
aI7
aa(lp106
I2
aI2
aI2
aI2
aI4
aI4
aI0
aI7
aa(lp107
I7
aI2
aI2
aI4
aI4
aI4
aI0
aI1
aasI21
(lp108
(lp109
I7
aI7
aI2
aI4
aI1
aI1
aI1
aI7
aa(lp110
I7
aI7
aI2
aI4
aI4
aI1
aI1
aI7
aa(lp111
I7
aI7
aI2
aI4
aI1
aI1
aI1
aI1
aasI22
(lp112
(lp113
I7
aI2
aI4
aI4
aI4
aI4
aI0
aI0
aa(lp114
I7
aI2
aI4
aI4
aI4
aI4
aI0
aI5
aa(lp115
I2
aI2
aI4
aI4
aI4
aI4
aI0
aI1
aa(lp116
I7
aI2
aI4
aI4
aI4
aI4
aI0
aI1
aa(lp117
I5
aI2
aI4
aI4
aI4
aI4
aI0
aI0
aa(lp118
I2
aI2
aI4
aI4
aI4
aI4
aI0
aI7
aas.