(dp0
I0
(lp1
(lp2
(F6.146446609406725
F6.474873734152917
tp3
a(F5.707106781186548
F6.292893218813452
tp4
a(F5.439339828220179
F6.939339828220179
tp5
a(F5.878679656440356
F7.121320343559642
tp6
aa(lp7
(F6.0
F5.585786437626906
tp8
a(F6.621320343559642
F5.328427124746191
tp9
a(F6.757359312880715
F4.999999999999998
tp10
a(F6.500000000000001
F4.378679656440356
tp11
aa(lp12
g9
ag8
ag4
ag3
aa(lp13
g6
ag5
a(F5.414213562373095
F7.0
tp14
a(F5.671572875253809
F7.621320343559642
tp15
aasI1
(lp16
(lp17
(F6.035533905932738
F3.500000000000001
tp18
a(F6.121320343559645
F3.4644660940672622
tp19
a(F6.085786437626906
F3.3786796564403563
tp20
aa(lp21
(F5.439339828220179
F6.939339828220179
tp22
a(F5.378679656440358
F6.914213562373096
tp23
a(F5.414213562373095
F7.0
tp24
aa(lp25
g23
ag22
a(F5.707106781186548
F6.292893218813452
tp26
a(F5.0
F6.0
tp27
aa(lp28
g27
ag26
a(F6.0
F5.585786437626906
tp29
aa(lp30
g27
ag29
a(F6.500000000000001
F4.378679656440356
tp31
ag19
ag18
aasI2
(lp32
(lp33
(F5.0
F6.757359312880715
tp34
a(F5.378679656440358
F6.914213562373096
tp35
a(F5.0
F6.0
tp36
aa(lp37
g35
ag34
a(F5.0
F8.0
tp38
a(F5.414213562373095
F7.0
tp39
aasI3
(lp40
(lp41
(F5.621320343559642
F7.742640687119286
tp42
a(F5.0
F8.0
tp43
a(F5.514718625761429
F8.0
tp44
aa(lp45
g43
ag42
a(F5.671572875253809
F7.621320343559642
tp46
a(F5.414213562373095
F7.0
tp47
aasI4
(lp48
(lp49
(F2.6213203435596433
F1.0857864376269053
tp50
a(F3.0
F1.2426406871192852
tp51
a(F3.0
F0.0
tp52
a(F2.585786437626905
F0.9999999999999993
tp53
aa(lp54
g51
ag50
a(F3.0
F2.0
tp55
aasI5
(lp56
(lp57
(F1.8786796564403572
F4.707106781186548
tp58
a(F1.9644660940672625
F4.742640687119285
tp59
a(F1.914213562373095
F4.621320343559643
tp60
aa(lp61
(F2.121320343559643
F5.121320343559643
tp62
a(F1.6213203435596422
F5.32842712474619
tp63
a(F1.3431457505076196
F6.0
tp64
a(F2.4852813742385704
F6.0
tp65
aa(lp66
g59
ag58
ag63
ag62
aasI6
(lp67
(lp68
(F6.328427124746192
F3.378679656440358
tp69
a(F6.121320343559645
F3.4644660940672622
tp70
a(F6.500000000000001
F4.378679656440356
tp71
a(F6.828427124746192
F3.585786437626905
tp72
aa(lp73
g69
ag72
a(F7.035533905932737
F3.085786437626907
tp74
aa(lp75
g69
ag74
a(F7.378679656440359
F2.2573593128807143
tp76
a(F6.378679656440359
F2.6715728752538093
tp77
a(F6.121320343559644
F3.292893218813453
tp78
aa(lp79
g69
ag78
a(F6.085786437626906
F3.3786796564403563
tp80
ag70
aa(lp81
g77
ag76
a(F7.485281374238571
F2.0
tp82
a(F6.6568542494923815
F2.0
tp83
aasI7
(lp84
(lp85
(F7.267766952966369
F3.767766952966369
tp86
a(F6.828427124746192
F3.585786437626905
tp87
a(F6.500000000000001
F4.378679656440356
tp88
a(F6.757359312880715
F4.999999999999998
tp89
aa(lp90
(F8.0
F2.0
tp91
a(F7.378679656440359
F2.2573593128807143
tp92
a(F7.035533905932737
F3.085786437626907
tp93
a(F7.656854249492379
F2.8284271247461925
tp94
aa(lp95
g94
ag93
ag87
ag86
aa(lp96
g92
ag91
a(F7.485281374238571
F2.0
tp97
aasI8
(lp98
(lp99
(F2.121320343559644
F0.8786796564403576
tp100
a(F2.5606601717798214
F1.0606601717798214
tp101
a(F2.585786437626905
F0.9999999999999993
tp102
a(F2.3284271247461916
F0.3786796564403585
tp103
aa(lp104
(F1.853553390593275
F1.5251262658470839
tp105
a(F2.292893218813452
F1.7071067811865475
tp106
ag101
ag100
aa(lp107
(F1.3786796564403585
F2.6715728752538097
tp108
a(F2.0
F2.414213562373095
tp109
ag106
ag105
aa(lp110
g109
ag108
a(F1.2426406871192857
F3.0000000000000013
tp111
a(F1.5
F3.6213203435596424
tp112
aasI9
(lp113
(lp114
(F3.0
F2.0
tp115
a(F2.0
F2.414213562373095
tp116
a(F1.5
F3.6213203435596424
tp117
a(F1.878679656440358
F4.535533905932738
tp118
a(F1.964466094067262
F4.500000000000001
tp119
aa(lp120
g115
a(F2.292893218813452
F1.7071067811865475
tp121
ag116
aa(lp122
(F2.6213203435596433
F1.0857864376269053
tp123
a(F2.5606601717798214
F1.0606601717798214
tp124
ag121
ag115
aa(lp125
g124
ag123
a(F2.585786437626905
F0.9999999999999993
tp126
aa(lp127
g119
ag118
a(F1.914213562373095
F4.621320343559643
tp128
aasI10
(lp129
(lp130
(F3.0
F0.0
tp131
a(F2.37867965644036
F0.2573593128807139
tp132
a(F2.3284271247461916
F0.3786796564403585
tp133
a(F2.585786437626905
F0.9999999999999993
tp134
aa(lp135
g132
ag131
a(F2.485281374238572
F0.0
tp136
aasI11
(lp137
(lp138
(F2.2928932188134534
F0.2928932188134522
tp139
a(F2.37867965644036
F0.2573593128807139
tp140
a(F2.485281374238572
F0.0
tp141
a(F2.171572875253811
F0.0
tp142
aa(lp143
g140
ag139
a(F2.3284271247461916
F0.3786796564403585
tp144
aasI12
(lp145
(lp146
(F3.0
F2.0
tp147
a(F3.414213562373097
F2.1715728752538106
tp148
a(F3.3431457505076216
F2.0
tp149
aa(lp150
(F5.0
F6.0
tp151
a(F4.585786437626906
F5.82842712474619
tp152
a(F4.656854249492381
F6.0
tp153
aa(lp154
(F4.025126265847085
F3.646446609406726
tp155
a(F3.732233047033631
F3.7677669529663693
tp156
a(F3.974873734152917
F4.353553390593274
tp157
a(F4.26776695296637
F4.232233047033632
tp158
aa(lp159
g148
ag147
ag156
ag155
aa(lp160
g152
ag151
ag158
ag157
aasI13
(lp161
(lp162
(F6.035533905932738
F3.500000000000001
tp163
a(F4.26776695296637
F4.232233047033632
tp164
a(F5.0
F6.0
tp165
aa(lp166
(F4.025126265847085
F3.646446609406726
tp167
a(F5.5
F3.0355339059327378
tp168
a(F3.414213562373097
F2.1715728752538106
tp169
aa(lp170
g169
ag168
a(F5.87867965644036
F2.878679656440357
tp171
a(F5.514718625761432
F2.0
tp172
a(F3.3431457505076216
F2.0
tp173
aa(lp174
(F6.0355339059327395
F3.2573593128807157
tp175
ag168
ag167
ag164
ag163
a(F6.085786437626906
F3.3786796564403563
tp176
aa(lp177
g168
ag175
ag171
aasI14
(lp178
(lp179
(F6.146446609406725
F6.474873734152917
tp180
a(F7.414213562373095
F7.0
tp181
a(F7.560660171779822
F6.939339828220179
tp182
a(F6.853553390593275
F5.232233047033631
tp183
a(F6.621320343559642
F5.328427124746191
tp184
aa(lp185
g181
a(F7.621320343559643
F7.085786437626905
tp186
ag182
aa(lp187
g181
ag180
a(F5.878679656440356
F7.121320343559642
tp188
a(F6.5
F7.378679656440358
tp189
aa(lp190
g181
ag189
a(F8.0
F8.0
tp191
ag186
aa(lp192
(F5.707106781186548
F7.707106781186548
tp193
ag189
ag188
a(F5.671572875253809
F7.621320343559642
tp194
aa(lp195
g191
ag189
ag193
a(F5.82842712474619
F8.0
tp196
aa(lp197
g184
ag183
a(F6.757359312880715
F4.999999999999998
tp198
aasI15
(lp199
(lp200
(F8.0
F2.6862915010152415
tp201
a(F7.656854249492379
F2.8284271247461925
tp202
a(F7.267766952966369
F3.767766952966369
tp203
a(F8.0
F4.0710678118654755
tp204
aa(lp205
(F8.0
F4.757359312880716
tp206
a(F6.853553390593275
F5.232233047033631
tp207
a(F7.560660171779822
F6.939339828220179
tp208
a(F8.0
F6.757359312880715
tp209
aa(lp210
g204
ag203
a(F6.757359312880715
F4.999999999999998
tp211
ag207
ag206
aa(lp212
(F7.621320343559643
F7.085786437626905
tp213
a(F8.0
F7.242640687119286
tp214
ag209
ag208
aa(lp215
g202
ag201
a(F8.0
F2.0
tp216
aa(lp217
g214
ag213
a(F8.0
F8.0
tp218
aasI16
(lp219
(lp220
(F5.621320343559642
F7.742640687119286
tp221
a(F5.707106781186548
F7.707106781186548
tp222
a(F5.671572875253809
F7.621320343559642
tp223
aa(lp224
g222
ag221
a(F5.514718625761429
F8.0
tp225
a(F5.82842712474619
F8.0
tp226
aasI17
(lp227
(lp228
(F3.732233047033631
F3.7677669529663693
tp229
a(F1.964466094067262
F4.500000000000001
tp230
a(F1.914213562373095
F4.621320343559643
tp231
a(F1.9644660940672625
F4.742640687119285
tp232
a(F2.5000000000000004
F4.964466094067263
tp233
a(F3.974873734152917
F4.353553390593274
tp234
aa(lp235
(F4.585786437626906
F5.82842712474619
tp236
ag233
a(F2.121320343559643
F5.121320343559643
tp237
a(F2.4852813742385704
F6.0
tp238
a(F4.656854249492381
F6.0
tp239
aa(lp240
g234
ag233
ag236
aa(lp241
g237
ag233
ag232
aa(lp242
g230
ag229
a(F3.0
F2.0
tp243
aasI18
(lp244
(lp245
(F2.121320343559644
F0.8786796564403576
tp246
a(F1.5
F0.6213203435596426
tp247
a(F0.5857864376269049
F1.0000000000000002
tp248
a(F1.853553390593275
F1.5251262658470839
tp249
aa(lp250
g249
ag248
a(F0.43933982822017875
F1.0606601717798214
tp251
a(F1.1464466094067265
F2.767766952966369
tp252
a(F1.3786796564403585
F2.6715728752538097
tp253
aa(lp254
(F0.3786796564403576
F0.9142135623730955
tp255
ag248
ag247
a(F0.0
F0.0
tp256
aa(lp257
g248
ag255
ag251
aa(lp258
g247
a(F2.2928932188134534
F0.2928932188134522
tp259
a(F2.171572875253811
F0.0
tp260
ag256
aa(lp261
g247
ag246
a(F2.3284271247461916
F0.3786796564403585
tp262
ag259
aa(lp263
g253
ag252
a(F1.2426406871192857
F3.0000000000000013
tp264
aasI19
(lp265
(lp266
(F1.8786796564403572
F4.707106781186548
tp267
a(F1.6715728752538102
F4.621320343559644
tp268
a(F0.9644660940672618
F4.914213562373096
tp269
a(F0.6213203435596424
F5.742640687119286
tp270
a(F1.6213203435596422
F5.32842712474619
tp271
aa(lp272
g268
a(F1.1715728752538097
F4.414213562373096
tp273
ag269
aa(lp274
g268
a(F1.878679656440358
F4.535533905932738
tp275
a(F1.5
F3.6213203435596424
tp276
ag273
aa(lp277
g268
ag267
a(F1.914213562373095
F4.621320343559643
tp278
ag275
aa(lp279
g271
ag270
a(F0.5147186257614296
F6.0
tp280
a(F1.3431457505076196
F6.0
tp281
aasI20
(lp282
(lp283
(F0.34314575050761975
F5.171572875253811
tp284
a(F0.9644660940672618
F4.914213562373096
tp285
a(F1.1715728752538097
F4.414213562373096
tp286
a(F0.7322330470336315
F4.232233047033632
tp287
aa(lp288
(F0.0
F6.0
tp289
a(F0.6213203435596424
F5.742640687119286
tp290
ag285
ag284
aa(lp291
g290
ag289
a(F0.5147186257614296
F6.0
tp292
aa(lp293
g287
ag286
a(F1.5
F3.6213203435596424
tp294
a(F1.2426406871192857
F3.0000000000000013
tp295
aasI21
(lp296
(lp297
(F6.378679656440359
F2.6715728752538093
tp298
a(F5.87867965644036
F2.878679656440357
tp299
a(F6.0355339059327395
F3.2573593128807157
tp300
a(F6.121320343559644
F3.292893218813453
tp301
aa(lp302
g301
ag300
a(F6.085786437626906
F3.3786796564403563
tp303
aa(lp304
g299
ag298
a(F6.6568542494923815
F2.0
tp305
a(F5.514718625761432
F2.0
tp306
aasI22
(lp307
(lp308
(F0.3786796564403576
F0.9142135623730955
tp309
a(F0.0
F0.7573593128807152
tp310
a(F0.0
F1.2426406871192854
tp311
a(F0.43933982822017875
F1.0606601717798214
tp312
aa(lp313
(F0.0
F3.2426406871192857
tp314
a(F1.1464466094067265
F2.767766952966369
tp315
ag312
ag311
aa(lp316
(F0.0
F5.313708498984761
tp317
a(F0.34314575050761975
F5.171572875253811
tp318
a(F0.7322330470336315
F4.232233047033632
tp319
a(F0.0
F3.9289321881345254
tp320
aa(lp321
g315
ag314
ag320
ag319
a(F1.2426406871192857
F3.0000000000000013
tp322
aa(lp323
g310
ag309
a(F0.0
F0.0
tp324
aa(lp325
g318
ag317
a(F0.0
F6.0
tp326
aas.