(lp0
(dp1
S'A'
p2
(lp3
(lp4
F-2.4142135623730976
aF1.0
aa(lp5
F-2.414213562373096
aF-1.0
aa(lp6
F2.4142135623731016
aF-1.0
aa(lp7
F2.4142135623730936
aF1.0
aasS'b'
p8
(lp9
F-6.071067811865488
aF-20.07106781186548
aF11.313708498984806
aF21.31370849898475
asa(dp10
g2
(lp11
(lp12
F-2.414213562373096
aF1.0
aa(lp13
F-2.414213562373094
aF-1.0
aa(lp14
F2.41421356237309
aF-1.0
aa(lp15
F2.414213562373091
aF1.0
aasg8
(lp16
F-6.071067811865479
aF-18.07106781186547
aF11.313708498984743
aF20.07106781186545
asa(dp17
g2
(lp18
(lp19
F2.414213562373096
aF1.0
aa(lp20
F-1.0
aF-0.0
aa(lp21
F2.414213562373096
aF-1.0
aasg8
(lp22
F20.07106781186548
aF-5.0
aF6.071067811865479
asa(dp23
g2
(lp24
(lp25
F-2.414213562373096
aF-1.0
aa(lp26
F-0.0
aF1.0
aa(lp27
F2.414213562373099
aF1.0
aa(lp28
F2.414213562373099
aF-1.0
aasg8
(lp29
F-20.07106781186548
aF8.0
aF21.31370849898478
aF6.071067811865494
asa(dp30
g2
(lp31
(lp32
F1.0
aF-0.0
aa(lp33
F-2.4142135623730976
aF1.0
aa(lp34
F-2.414213562373094
aF-1.0
aasg8
(lp35
F3.0
aF-5.242640687119293
aF-7.242640687119282
asa(dp36
g2
(lp37
(lp38
F2.4142135623730945
aF-1.0
aa(lp39
F-0.0
aF1.0
aa(lp40
F-2.4142135623730945
aF-1.0
aasg8
(lp41
F-1.224513518529908e-15
aF6.0
aF-9.242640687119284
asa(dp42
g2
(lp43
(lp44
F-2.414213562373096
aF1.0
aa(lp45
F-2.4142135623730923
aF-1.0
aa(lp46
F-1.0426388063723273e-14
aF-1.0
aa(lp47
F2.414213562373088
aF1.0
aasg8
(lp48
F-11.313708498984768
aF-18.071067811865465
aF-2.0000000000000795
aF20.071067811865426
asa(dp49
g2
(lp50
(lp51
F-2.4142135623730976
aF1.0
aa(lp52
F-2.414213562373097
aF-1.0
aa(lp53
F8.086482150259481e-15
aF-1.0
aa(lp54
F2.4142135623730945
aF1.0
aasg8
(lp55
F-11.31370849898478
aF-20.071067811865493
aF-1.9999999999999354
aF21.313708498984756
asa(dp56
g2
(lp57
(lp58
F-2.414213562373094
aF1.0
aa(lp59
F-2.414213562373093
aF-1.0
aa(lp60
F2.4142135623730967
aF-1.0
aa(lp61
F2.4142135623730954
aF1.0
aasg8
(lp62
F1.3322676295501878e-15
aF-6.0
aF5.242640687119292
aF7.242640687119284
asa(dp63
g2
(lp64
(lp65
F-2.4142135623730967
aF1.0
aa(lp66
F-2.414213562373096
aF-1.0
aa(lp67
F2.4142135623730976
aF-1.0
aa(lp68
F2.4142135623730945
aF1.0
aasg8
(lp69
F-2.6645352591003757e-15
aF-7.2426406871192865
aF5.2426406871192945
aF9.242640687119284
asa(dp70
g2
(lp71
(lp72
F-2.414213562373096
aF-1.0
aa(lp73
F-2.414213562373093
aF1.0
aa(lp74
F2.4142135623730963
aF1.0
aa(lp75
F-0.0
aF-1.0
aasg8
(lp76
F-6.000000000000007
aF-5.242640687119282
aF7.242640687119288
aF0.0
asa(dp77
g2
(lp78
(lp79
F2.4142135623730967
aF1.0
aa(lp80
F2.018010592978702e-15
aF-1.0
aa(lp81
F-2.414213562373096
aF1.0
aasg8
(lp82
F6.000000000000009
aF4.708691383616971e-15
aF-5.242640687119289
asa(dp83
g2
(lp84
(lp85
F-0.0
aF-1.0
aa(lp86
F-2.4142135623730945
aF1.0
aa(lp87
F-1.641822799868319e-14
aF1.0
aa(lp88
F2.4142135623730976
aF-1.0
aasg8
(lp89
F-2.0
aF-5.242640687119284
aF5.999999999999922
aF6.071067811865489
asa(dp90
g2
(lp91
(lp92
F-2.4142135623730976
aF1.0
aa(lp93
F-0.0
aF-1.0
aa(lp94
F2.414213562373099
aF-1.0
aa(lp95
F2.4142135623730927
aF1.0
aasg8
(lp96
F-6.071067811865488
aF-2.0
aF11.313708498984784
aF18.07106781186546
asa(dp97
g2
(lp98
(lp99
F-2.414213562373093
aF1.0
aa(lp100
F-2.4142135623730936
aF-1.0
aa(lp101
F2.414213562373075
aF-1.0
aa(lp102
F-0.0
aF1.0
aasg8
(lp103
F-6.071067811865463
aF-21.313708498984752
aF11.3137084989846
aF7.999999999999997
asa(dp104
g2
(lp105
(lp106
F1.0
aF-0.0
aa(lp107
F-2.4142135623731
aF1.0
aa(lp108
F-2.4142135623730945
aF-1.0
aasg8
(lp109
F8.0
aF-11.313708498984798
aF-21.313708498984752
asa(dp110
g2
(lp111
(lp112
F2.414213562373105
aF-1.0
aa(lp113
F-6.0540317789361185e-15
aF1.0
aa(lp114
F-2.414213562373093
aF-1.0
aasg8
(lp115
F6.071067811865533
aF7.999999999999965
aF-21.313708498984745
asa(dp116
g2
(lp117
(lp118
F-2.4142135623730936
aF1.0
aa(lp119
F-2.414213562373095
aF-1.0
aa(lp120
F2.4142135623730936
aF-1.0
aa(lp121
F-3.2124441491805807e-16
aF1.0
aasg8
(lp122
F3.552713678800501e-15
aF-9.242640687119284
aF5.242640687119284
aF5.999999999999999
asa(dp123
g2
(lp124
(lp125
F-2.414213562373095
aF1.0
aa(lp126
F3.3306690738754706e-16
aF-1.0
aa(lp127
F2.4142135623730887
aF-1.0
aa(lp128
F2.414213562373093
aF1.0
aasg8
(lp129
F-0.0
aF0.0
aF5.242640687119272
aF6.0
asa(dp130
g2
(lp131
(lp132
F0.0
aF1.0
aa(lp133
F-2.414213562373095
aF-1.0
aa(lp134
F2.414213562373098
aF-1.0
aa(lp135
F2.4142135623730954
aF1.0
aasg8
(lp136
F6.0
aF-7.242640687119285
aF4.036021185957401e-15
aF9.242640687119286
asa(dp137
g2
(lp138
(lp139
F0.0
aF1.0
aa(lp140
F-2.4142135623730927
aF-1.0
aa(lp141
F2.4142135623731034
aF-1.0
aa(lp142
F2.4142135623730945
aF1.0
aasg8
(lp143
F6.0
aF-5.999999999999999
aF8.086482150259432e-15
aF7.242640687119284
asa(dp144
g2
(lp145
(lp146
F2.414213562373092
aF1.0
aa(lp147
F-3.0612837963247686e-16
aF-1.0
aa(lp148
F-2.4142135623730994
aF1.0
aasg8
(lp149
F18.071067811865458
aF-2.0000000000000027
aF-11.31370849898479
asa(dp150
g2
(lp151
(lp152
F2.414213562373093
aF1.0
aa(lp153
F-1.0
aF-0.0
aa(lp154
F2.4142135623730954
aF-1.0
aasg8
(lp155
F6.0
aF0.0
aF0.0
asa(dp156
S'A'
p157
(lp158
(lp159
F-1.0
aF0.0
aa(lp160
F1.0
aF0.0
aa(lp161
F0.0
aF-1.0
aa(lp162
F0.0
aF1.0
aasS'b'
p163
(lp164
F-0.0
aF5.0
aF-6.0
aF8.0
asa(dp165
g157
g158
sg163
(lp166
F-3.0
aF8.0
aF-0.0
aF2.0
asa(dp167
g157
g158
sg163
(lp168
I1000
aF0.0
aI1000
aI1000
asa(dp169
g157
g158
sg163
(lp170
F-8.0
aI1000
aI1000
aI1000
asa(dp171
g157
g158
sg163
(lp172
F-0.0
aF8.0
aF-8.0
aI1000
asa(dp173
g157
g158
sg163
(lp174
F-0.0
aF8.0
aI1000
aF0.0
asa.