(dp0
I0
(lp1
(dp2
S'A'
p3
(lp4
(lp5
F-2.414213562373097
aF-1.0
aa(lp6
F-1.0
aF2.414213562373122
aa(lp7
F2.4142135623730834
aF1.0
aa(lp8
F1.0
aF-2.4142135623730985
aasS'b'
p9
(lp10
F-20.07106781186549
aF11.313708498984951
aF21.31370849898469
aF-9.48528137423859
asa(dp11
g3
(lp12
(lp13
F-2.414213562373095
aF-1.0
aa(lp14
F1.0
aF2.414213562373084
aa(lp15
F2.4142135623730896
aF1.0
aa(lp16
F2.4142135623730914
aF-1.0
aasg9
(lp17
F-20.071067811865476
aF19.48528137423851
aF21.31370849898472
aF11.313708498984738
asa(dp18
g3
(lp19
(lp20
F-2.4142135623730936
aF-1.0
aa(lp21
F-1.0
aF2.41421356237309
aa(lp22
F2.4142135623730847
aF1.0
aa(lp23
F-1.0
aF-2.4142135623731016
aasg9
(lp24
F-20.071067811865465
aF9.485281374238534
aF21.31370849898469
aF-19.48528137423861
asa(dp25
g3
(lp26
(lp27
F-2.41421356237304
aF-1.0
aa(lp28
F-2.414213562373089
aF1.0
aa(lp29
F2.414213562372997
aF1.0
aa(lp30
F1.0
aF-2.4142135623731287
aasg9
(lp31
F-20.071067811865177
aF-6.071067811865443
aF21.313708498984155
aF-11.313708498985001
asasI1
(lp32
(dp33
g3
(lp34
(lp35
F2.4142135623729826
aF-1.0
aa(lp36
F1.0
aF2.4142135623731207
aa(lp37
F-2.414213562373093
aF-1.0
aasg9
(lp38
F11.313708498984077
aF14.485281374238662
aF-18.071067811865465
asa(dp39
g3
(lp40
(lp41
F2.4142135623732455
aF1.0
aa(lp42
F1.0
aF-2.4142135623732157
aa(lp43
F-2.414213562373125
aF1.0
aasg9
(lp44
F20.071067811866293
aF-11.313708498985594
aF-6.071067811865637
asa(dp45
g3
(lp46
(lp47
F-2.414213562373093
aF1.0
aa(lp48
F-1.0
aF2.414213562373165
aa(lp49
F2.414213562373113
aF1.0
aa(lp50
F1.0
aF-2.4142135623730248
aasg9
(lp51
F-6.071067811865465
aF11.313708498985246
aF20.07106781186558
aF-9.485281374238138
asa(dp52
g3
(lp53
(lp54
F2.414213562373094
aF1.0
aa(lp55
F-1.0
aF-2.4142135623731047
aa(lp56
F-1.0
aF2.4142135623730994
aasg9
(lp57
F20.071067811865472
aF-19.485281374238625
aF9.485281374238596
asa(dp58
g3
(lp59
(lp60
F-1.0
aF-2.414213562373244
aa(lp61
F-2.414213562373094
aF-1.0
aa(lp62
F1.0
aF2.414213562373101
aa(lp63
F2.4142135623731034
aF1.0
aa(lp64
F2.414213562373114
aF-1.0
aasg9
(lp65
F-14.485281374239088
aF-18.07106781186547
aF19.485281374238607
aF20.07106781186553
aF11.313708498984886
asasI2
(lp66
(dp67
g3
(lp68
(lp69
F-1.0
aF2.4142135623730936
aa(lp70
F-1.0
aF-0.0
aa(lp71
F2.414213562373093
aF-1.0
aasg9
(lp72
F11.313708498984752
aF-5.0
aF6.071067811865466
asa(dp73
g3
(lp74
(lp75
F1.0
aF-2.414213562373096
aa(lp76
F-1.0
aF-0.0
aa(lp77
F2.4142135623731016
aF1.0
aa(lp78
F2.4142135623731553
aF-1.0
aasg9
(lp79
F-11.313708498984768
aF-5.0
aF20.071067811865507
aF6.071067811865799
asasI3
(lp80
(dp81
g3
(lp82
(lp83
F2.4142135623730696
aF1.0
aa(lp84
F-1.0
aF-2.414213562373096
aa(lp85
F0.0
aF1.0
aasg9
(lp86
F21.313708498984617
aF-24.313708498984766
aF8.0
asa(dp87
g3
(lp88
(lp89
F-2.414213562373096
aF-1.0
aa(lp90
F1.0
aF2.4142135623730967
aa(lp91
F2.4142135623730945
aF1.0
aa(lp92
F2.4142135623730967
aF-1.0
aasg9
(lp93
F-20.07106781186548
aF24.313708498984774
aF21.313708498984752
aF6.071067811865481
asasI4
(lp94
(dp95
g3
(lp96
(lp97
F-2.4142135623730847
aF1.0
aa(lp98
F-2.414213562373094
aF-1.0
aa(lp99
F1.0
aF3.1550626554295016e-15
aa(lp100
F-1.0
aF2.414213562373094
aasg9
(lp101
F-5.24264068711926
aF-7.242640687119282
aF3.000000000000003
aF-2.1442523866471527e-15
asa(dp102
g3
(lp103
(lp104
F1.0
aF4.4408920985006193e-16
aa(lp105
F-2.4142135623731003
aF1.0
aa(lp106
F1.0
aF-2.414213562373095
aasg9
(lp107
F3.000000000000001
aF-5.242640687119301
aF0.0
asasI5
(lp108
(dp109
g3
(lp110
(lp111
F2.414213562373061
aF-1.0
aa(lp112
F-1.0
aF2.4142135623731784
aa(lp113
F-2.4142135623730896
aF-1.0
aasg9
(lp114
F-6.583132448913668e-14
aF9.485281374238964
aF-9.242640687119275
asa(dp115
g3
(lp116
(lp117
F-2.414213562373098
aF-1.0
aa(lp118
F-1.0
aF-2.4142135623731025
aa(lp119
F2.4142135623730807
aF-1.0
aa(lp120
F2.1180081689203202e-15
aF1.0
aasg9
(lp121
F-9.24264068711929
aF-14.485281374238612
aF-3.393207960219972e-14
aF6.000000000000004
asa(dp122
g3
(lp123
(lp124
F-2.414213562373091
aF-1.0
aa(lp125
F1.0
aF-2.4142135623730754
aa(lp126
F2.414213562373091
aF-1.0
aa(lp127
F1.0
aF2.414213562373102
aasg9
(lp128
F-9.242640687119277
aF-9.485281374238479
aF-9.950948873945085e-15
aF14.485281374238605
asasI6
(lp129
(dp130
g3
(lp131
(lp132
F-1.0
aF-2.4142135623731105
aa(lp133
F-2.4142135623730963
aF1.0
aa(lp134
F2.4142135623730896
aF1.0
aa(lp135
F1.0
aF-2.4142135623731082
aasg9
(lp136
F-14.485281374238626
aF-11.31370849898477
aF20.07106781186545
aF-1.8284271247462385
asa(dp137
g3
(lp138
(lp139
F2.414213562373115
aF1.0
aa(lp140
F-1.0
aF-2.4142135623730945
aa(lp141
F-1.0
aF2.414213562373101
aasg9
(lp142
F20.071067811865618
aF-14.485281374238571
aF1.8284271247462105
asa(dp143
g3
(lp144
(lp145
F1.0
aF2.4142135623730967
aa(lp146
F-2.4142135623730985
aF-1.0
aa(lp147
F-1.0
aF2.4142135623730963
aa(lp148
F-1.0
aF-2.41421356237308
aa(lp149
F2.414213562373096
aF1.0
aasg9
(lp150
F14.48528137423858
aF-18.071067811865504
aF1.828427124746194
aF-12.828427124746154
aF20.071067811865486
asa(dp151
g3
(lp152
(lp153
F-2.41421356237304
aF-1.0
aa(lp154
F-2.4142135623730026
aF1.0
aa(lp155
F1.0
aF2.4142135623730874
aa(lp156
F1.0
aF-2.4142135623730545
aasg9
(lp157
F-18.07106781186514
aF-11.313708498984198
aF14.485281374238548
aF-1.8284271247460544
asa(dp158
g3
(lp159
(lp160
F-2.414213562373095
aF-1.0
aa(lp161
F1.0
aF2.4142135623730794
aa(lp162
F2.4142135623729772
aF1.0
aa(lp163
F-2.414314528807742e-15
aF-1.0
aasg9
(lp164
F-18.07106781186548
aF12.828427124746149
aF20.071067811864598
aF-2.0000000000000178
asasI7
(lp165
(dp166
g3
(lp167
(lp168
F-2.4142135623730976
aF1.0
aa(lp169
F-2.414213562373101
aF-1.0
aa(lp170
F1.0
aF-2.4142135623729875
aa(lp171
F2.4142135623731042
aF1.0
aasg9
(lp172
F-11.31370849898478
aF-20.071067811865518
aF-1.8284271247457937
aF21.313708498984827
asa(dp173
g3
(lp174
(lp175
F-2.414213562373086
aF-1.0
aa(lp176
F1.0
aF2.414213562373081
aa(lp177
F2.414213562373084
aF1.0
aa(lp178
F-1.0
aF-2.4142135623730954
aasg9
(lp179
F-20.07106781186541
aF14.485281374238529
aF21.313708498984667
aF-12.828427124746188
asa(dp180
g3
(lp181
(lp182
F-2.414213562373113
aF-1.0
aa(lp183
F-1.0
aF2.4142135623731207
aa(lp184
F2.4142135623731025
aF1.0
aa(lp185
F-1.0
aF-2.414213562373107
aasg9
(lp186
F-20.071067811865603
aF1.8284271247462807
aF21.313708498984816
aF-14.485281374238612
asa(dp187
g3
(lp188
(lp189
F4.5716197561900684e-15
aF-1.0
aa(lp190
F1.0
aF2.414213562373117
aa(lp191
F-2.414213562373102
aF-1.0
aasg9
(lp192
F-1.9999999999999627
aF12.828427124746238
aF-20.071067811865525
asasI8
(lp193
(dp194
g3
(lp195
(lp196
F-2.4142135623730914
aF-1.0
aa(lp197
F-1.0
aF2.414213562373091
aa(lp198
F2.4142135623731567
aF1.0
aa(lp199
F2.414213562373103
aF-1.0
aasg9
(lp200
F-5.9999999999999964
aF-5.024295867788065e-15
aF7.242640687119444
aF5.242640687119307
asa(dp201
g3
(lp202
(lp203
F-2.414213562373093
aF-1.0
aa(lp204
F-1.0
aF2.414213562373088
aa(lp205
F2.41421356237309
aF1.0
aa(lp206
F1.0
aF-2.414213562373083
aasg9
(lp207
F-5.999999999999999
aF1.8284271247461792
aF7.242640687119272
aF1.0781976200345748e-14
asa(dp208
g3
(lp209
(lp210
F-2.414213562373093
aF-1.0
aa(lp211
F1.0
aF2.4142135623730905
aa(lp212
F2.4142135623730967
aF1.0
aa(lp213
F1.0
aF-2.4142135623730727
aasg9
(lp214
F-5.999999999999999
aF7.828427124746177
aF7.242640687119289
aF-1.828427124746152
asa(dp215
g3
(lp216
(lp217
F-2.414213562373096
aF-1.0
aa(lp218
F-2.4142135623730976
aF1.0
aa(lp219
F2.414213562373099
aF1.0
aa(lp220
F-1.0
aF-2.4142135623730914
aasg9
(lp221
F-6.0000000000000036
aF-2.3336150771498273e-15
aF7.2426406871192945
aF-7.828427124746179
asasI9
(lp222
(dp223
g3
(lp224
(lp225
F-2.4142135623731007
aF-1.0
aa(lp226
F1.0
aF2.414213562373113
aa(lp227
F-2.414213562373092
aF1.0
aa(lp228
F2.414213562373096
aF1.0
aa(lp229
F-1.0
aF-2.41421356237311
aasg9
(lp230
F-7.2426406871192945
aF12.828427124746273
aF4.884981308350689e-15
aF9.24264068711929
aF-7.828427124746218
asa(dp231
g3
(lp232
(lp233
F1.0
aF-2.4142135623730905
aa(lp234
F1.0
aF2.4142135623730985
aa(lp235
F-2.414213562373098
aF-1.0
aasg9
(lp236
F-1.8284271247461812
aF7.828427124746198
aF-7.242640687119291
asa(dp237
g3
(lp238
(lp239
F-2.4142135623730896
aF-1.0
aa(lp240
F1.0
aF-2.414213562373031
aa(lp241
F2.414213562373095
aF-1.0
aa(lp242
F-1.0
aF2.414213562373031
aasg9
(lp243
F-7.242640687119272
aF6.820671959614288e-14
aF5.242640687119285
aF1.8284271247460562
asa(dp244
g3
(lp245
(lp246
F2.4142135623730643
aF-1.0
aa(lp247
F-1.0
aF2.414213562373152
aa(lp248
F-2.4142135623731273
aF-1.0
aasg9
(lp249
F5.242640687119207
aF6.095493008253616e-14
aF-7.242640687119368
asa(dp250
g3
(lp251
(lp252
F2.414213562373084
aF1.0
aa(lp253
F-1.0
aF-2.4142135623731447
aa(lp254
F-2.41421356237315
aF1.0
aasg9
(lp255
F9.242640687119264
aF-12.828427124746415
aF-1.0480505352461478e-13
asasI10
(lp256
(dp257
g3
(lp258
(lp259
F-2.414213562373093
aF-1.0
aa(lp260
F-2.4142135623731025
aF1.0
aa(lp261
F2.414213562373082
aF1.0
aa(lp262
F-1.0
aF-2.4142135623731007
aasg9
(lp263
F-5.999999999999999
aF-5.242640687119305
aF7.242640687119249
aF-3.0000000000000004
asa(dp264
g3
(lp265
(lp266
F-2.7429718537140275e-15
aF-1.0
aa(lp267
F1.0
aF2.414213562373083
aa(lp268
F-2.414213562373097
aF-1.0
aasg9
(lp269
F-7.314591609904072e-15
aF2.999999999999999
aF-6.000000000000011
asasI11
(lp270
(dp271
g3
(lp272
(lp273
F-2.414213562373097
aF1.0
aa(lp274
F1.0
aF2.4142135623731305
aa(lp275
F2.414213562373091
aF1.0
aa(lp276
F9.062246927166095e-16
aF-1.0
aasg9
(lp277
F-5.242640687119293
aF3.000000000000009
aF5.999999999999994
aF2.4165991805776253e-15
asa(dp278
g3
(lp279
(lp280
F2.4142135623731003
aF1.0
aa(lp281
F-1.0
aF-2.4142135623730896
aa(lp282
F-2.4142135623730945
aF1.0
aasg9
(lp283
F6.000000000000016
aF-2.999999999999999
aF-5.2426406871192865
asasI12
(lp284
(dp285
g3
(lp286
(lp287
F2.4142135623730874
aF-1.0
aa(lp288
F-1.0
aF2.414213562373099
aa(lp289
F-0.0
aF-1.0
aasg9
(lp290
F6.071067811865454
aF1.828427124746198
aF-2.0
asa(dp291
g3
(lp292
(lp293
F3.3525211545393925e-15
aF1.0
aa(lp294
F1.0
aF-2.4142135623731025
aa(lp295
F-2.41421356237312
aF1.0
aasg9
(lp296
F6.000000000000016
aF-9.48528137423861
aF-5.242640687119401
asa(dp297
g3
(lp298
(lp299
F-2.414213562373089
aF1.0
aa(lp300
F-1.0
aF-2.414213562373099
aa(lp301
F2.414213562373109
aF-1.0
aa(lp302
F1.0
aF2.4142135623730825
aasg9
(lp303
F-5.242640687119261
aF-12.828427124746206
aF6.071067811865535
aF14.485281374238522
asa(dp304
g3
(lp305
(lp306
F1.0
aF-2.4142135623730976
aa(lp307
F-2.414213562373096
aF1.0
aa(lp308
F1.0
aF2.4142135623730585
aa(lp309
F2.4142135623730967
aF-1.0
aasg9
(lp310
F-1.8284271247461952
aF-5.2426406871192865
aF12.828427124746066
aF6.071067811865485
asa(dp311
g3
(lp312
(lp313
F-1.0
aF-2.414213562373112
aa(lp314
F-2.4142135623730905
aF1.0
aa(lp315
F-1.0
aF2.4142135623730883
aa(lp316
F2.414213562373098
aF-1.0
aasg9
(lp317
F-14.485281374238644
aF-5.242640687119267
aF9.485281374238534
aF6.071067811865492
asasI13
(lp318
(dp319
g3
(lp320
(lp321
F2.414213562373094
aF1.0
aa(lp322
F-1.0
aF-2.414213562373094
aa(lp323
F-2.414213562373097
aF1.0
aasg9
(lp324
F18.07106781186547
aF-14.485281374238571
aF-6.071067811865484
asa(dp325
g3
(lp326
(lp327
F1.0
aF2.4142135623730914
aa(lp328
F1.0
aF-2.414213562373096
aa(lp329
F-2.414213562373097
aF1.0
aasg9
(lp330
F12.82842712474618
aF-1.8284271247461914
aF-6.071067811865486
asa(dp331
g3
(lp332
(lp333
F-0.0
aF-1.0
aa(lp334
F-1.0
aF2.4142135623730923
aa(lp335
F-2.414213562373096
aF1.0
aa(lp336
F1.0
aF2.4142135623730203
aa(lp337
F2.4142135623730945
aF-1.0
aasg9
(lp338
F-2.0
aF1.8284271247461836
aF-6.071067811865483
aF12.828427124745977
aF11.313708498984763
asa(dp339
g3
(lp340
(lp341
F1.0
aF2.41421356237309
aa(lp342
F-2.414213562373103
aF1.0
aa(lp343
F-1.0
aF-2.414213562373097
aa(lp344
F1.0
aF-2.414213562373114
aa(lp345
F2.414213562373162
aF-1.0
aa(lp346
F2.4142135623731162
aF1.0
aasg9
(lp347
F14.485281374238555
aF-6.07106781186551
aF-12.8284271247462
aF-1.8284271247462511
aF11.313708498985172
aF18.071067811865603
asa(dp348
g3
(lp349
(lp350
F2.4142135623731034
aF-1.0
aa(lp351
F-1.0
aF2.414213562373091
aa(lp352
F-1.0
aF-2.4142135623731047
aasg9
(lp353
F11.313708498984816
aF1.828427124746177
aF-12.828427124746218
asasI14
(lp354
(dp355
g3
(lp356
(lp357
F-1.0
aF2.4142135623731664
aa(lp358
F-1.0
aF-2.4142135623731296
aa(lp359
F-2.4142135623730923
aF-1.0
aa(lp360
F2.4142135623730994
aF-1.0
aa(lp361
F1.0
aF2.4142135623740484
aasg9
(lp362
F9.485281374239031
aF-19.485281374238753
aF-21.31370849898474
aF11.313708498984797
aF24.313708498991375
asa(dp363
g3
(lp364
(lp365
F2.4142135623731726
aF-1.0
aa(lp366
F-1.0
aF2.4142135623730523
aa(lp367
F-1.0
aF-2.4142135623731193
aasg9
(lp368
F11.31370849898535
aF9.48528137423827
aF-24.313708498984926
asa(dp369
g3
(lp370
(lp371
F-2.4142135623730905
aF-1.0
aa(lp372
F-1.0
aF2.4142135623730923
aa(lp373
F1.0
aF2.4142135623731003
aa(lp374
F1.0
aF-2.414213562373096
aasg9
(lp375
F-21.313708498984727
aF11.31370849898474
aF24.313708498984795
aF-9.48528137423858
asa(dp376
g3
(lp377
(lp378
F-1.0
aF-2.414213562373091
aa(lp379
F1.0
aF-2.414213562373111
aa(lp380
F2.414213562373104
aF-1.0
aa(lp381
F-1.0
aF2.4142135623731122
aasg9
(lp382
F-24.31370849898473
aF-9.485281374238681
aF11.313708498984832
aF11.313708498984896
asa(dp383
g3
(lp384
(lp385
F-2.4142135623730545
aF1.0
aa(lp386
F-2.414213562373092
aF-1.0
aa(lp387
F1.0
aF-2.414213562373155
aa(lp388
F1.0
aF2.4142135623730883
aasg9
(lp389
F-6.071067811865245
aF-21.313708498984738
aF-11.313708498985237
aF24.31370849898471
asa(dp390
g3
(lp391
(lp392
F-2.4142135623731047
aF1.0
aa(lp393
F-1.0
aF-2.4142135623730825
aa(lp394
F1.0
aF-2.4142135623731003
aa(lp395
F-0.0
aF1.0
aasg9
(lp396
F-6.071067811865531
aF-24.313708498984667
aF-11.313708498984813
aF8.000000000000002
asa(dp397
g3
(lp398
(lp399
F2.4142135623731047
aF-1.0
aa(lp400
F1.0
aF2.4142135623730554
aa(lp401
F-2.4142135623730945
aF-1.0
aasg9
(lp402
F11.313708498984829
aF19.48528137423836
aF-21.31370849898476
asasI15
(lp403
(dp404
g3
(lp405
(lp406
F-2.414213562373098
aF-1.0
aa(lp407
F-1.0
aF-2.414213562373106
aa(lp408
F1.0
aF-1.6249145999167446e-15
aa(lp409
F-1.0
aF2.414213562373072
aasg9
(lp410
F-21.31370849898478
aF-14.485281374238609
aF7.999999999999993
aF1.8284271247460941
asa(dp411
g3
(lp412
(lp413
F-2.4142135623730967
aF1.0
aa(lp414
F-1.0
aF-2.414213562373096
aa(lp415
F1.0
aF-8.48563624284701e-16
aa(lp416
F1.0
aF2.414213562373134
aasg9
(lp417
F-11.313708498984775
aF-19.48528137423858
aF7.999999999999994
aF24.31370849898503
asa(dp418
g3
(lp419
(lp420
F1.0
aF-2.4142135623730936
aa(lp421
F-2.4142135623730976
aF-1.0
aa(lp422
F-2.4142135623730954
aF1.0
aa(lp423
F1.0
aF2.4142135623731096
aa(lp424
F1.0
aF-1.3898816624452168e-14
aasg9
(lp425
F-1.8284271247462132
aF-21.313708498984777
aF-11.313708498984766
aF19.48528137423864
aF7.999999999999934
asa(dp426
g3
(lp427
(lp428
F-2.4142135623731047
aF1.0
aa(lp429
F-1.0
aF-2.4142135623731242
aa(lp430
F1.0
aF-4.716335143380128e-15
aa(lp431
F-1.0
aF2.414213562373054
aasg9
(lp432
F-11.313708498984836
aF-24.313708498984962
aF7.999999999999965
aF9.485281374238275
asa(dp433
g3
(lp434
(lp435
F1.0
aF-0.0
aa(lp436
F1.0
aF2.4142135623730963
aa(lp437
F-2.4142135623730923
aF-1.0
aasg9
(lp438
F8.0
aF14.485281374238575
aF-21.313708498984738
asa(dp439
g3
(lp440
(lp441
F1.0
aF-0.0
aa(lp442
F-2.4142135623730963
aF1.0
aa(lp443
F1.0
aF-2.4142135623730874
aasg9
(lp444
F8.0
aF-11.313708498984772
aF-9.485281374238516
asasI16
(lp445
(dp446
g3
(lp447
(lp448
F2.414213562373093
aF-1.0
aa(lp449
F1.0
aF2.4142135623732055
aa(lp450
F-2.414213562373118
aF-1.0
aasg9
(lp451
F6.071067811865462
aF24.313708498985616
aF-21.313708498984887
asa(dp452
g3
(lp453
(lp454
F-2.414213562373081
aF-1.0
aa(lp455
F-1.0
aF-2.414213562373113
aa(lp456
F2.414213562373093
aF-1.0
aa(lp457
F-1.4286180969740136e-14
aF1.0
aasg9
(lp458
F-21.31370849898468
aF-24.3137084989849
aF6.071067811865463
aF7.999999999999924
asasI17
(lp459
(dp460
g3
(lp461
(lp462
F-1.0
aF-2.414213562373094
aa(lp463
F-2.4142135623730936
aF-1.0
aa(lp464
F-2.414213562373042
aF1.0
aa(lp465
F-1.0
aF2.414213562373076
aa(lp466
F1.0
aF2.4142135623730963
aa(lp467
F2.414213562373127
aF-1.0
aasg9
(lp468
F-12.828427124746188
aF-9.242640687119282
aF1.0171988080314235e-13
aF9.485281374238475
aF14.485281374238577
aF5.242640687119408
asa(dp469
g3
(lp470
(lp471
F1.0
aF-2.4142135623730985
aa(lp472
F-1.0
aF-2.414213562373101
aa(lp473
F-2.4142135623730954
aF1.0
aa(lp474
F8.566517731148231e-16
aF1.0
aa(lp475
F2.4142135623732366
aF-1.0
aasg9
(lp476
F-9.485281374238589
aF-14.485281374238603
aF-0.0
aF6.0000000000000036
aF5.242640687119949
asa(dp477
g3
(lp478
(lp479
F2.4142135623730923
aF-1.0
aa(lp480
F-1.0
aF2.4142135623731
aa(lp481
F-1.0
aF-2.414213562373093
aasg9
(lp482
F5.242640687119275
aF9.485281374238594
aF-14.485281374238562
asa(dp483
g3
(lp484
(lp485
F1.0
aF2.4142135623730976
aa(lp486
F1.0
aF-2.41421356237309
aa(lp487
F-2.4142135623730967
aF1.0
aasg9
(lp488
F14.485281374238584
aF-9.485281374238546
aF-3.552713678800501e-15
asa(dp489
g3
(lp490
(lp491
F2.414213562373098
aF-1.0
aa(lp492
F1.0
aF2.414213562373097
aa(lp493
F-2.4142135623730954
aF-1.0
aasg9
(lp494
F5.2426406871192945
aF12.828427124746199
aF-9.242640687119284
asasI18
(lp495
(dp496
g3
(lp497
(lp498
F-1.0
aF-2.414213562373094
aa(lp499
F-1.0
aF2.414213562373097
aa(lp500
F2.4142135623730945
aF1.0
aa(lp501
F1.0
aF-2.4142135623730994
aasg9
(lp502
F-2.9999999999999996
aF1.828427124746193
aF6.000000000000002
aF-2.406112430769111e-15
asa(dp503
g3
(lp504
(lp505
F1.0
aF2.414213562373171
aa(lp506
F-2.414213562373094
aF1.0
aa(lp507
F-1.0
aF-2.4142135623730967
aa(lp508
F1.0
aF-2.4142135623730985
aa(lp509
F2.414213562373093
aF1.0
aasg9
(lp510
F7.828427124746393
aF3.6789554724689436e-16
aF-3.000000000000002
aF-1.8284271247461945
aF5.999999999999998
asa(dp511
g3
(lp512
(lp513
F-2.414213562373095
aF1.0
aa(lp514
F-1.0
aF2.4142135623730976
aa(lp515
F1.0
aF2.414213562373093
aa(lp516
F1.0
aF-2.414213562373091
aasg9
(lp517
F-0.0
aF1.8284271247461932
aF2.9999999999999982
aF0.0
asa(dp518
g3
(lp519
(lp520
F1.0
aF2.4142135623731042
aa(lp521
F1.0
aF-2.4142135623730967
aa(lp522
F-2.414213562373096
aF1.0
aasg9
(lp523
F3.00000000000001
aF-1.8284271247461923
aF-3.3306690738754696e-16
asa(dp524
g3
(lp525
(lp526
F-1.0
aF2.414213562373095
aa(lp527
F-0.0
aF-1.0
aa(lp528
F2.4142135623730967
aF-1.0
aa(lp529
F1.0
aF2.414213562373094
aasg9
(lp530
F-0.0
aF0.0
aF5.242640687119292
aF3.0
asa(dp531
g3
(lp532
(lp533
F-1.0
aF2.4142135623731
aa(lp534
F-1.0
aF-2.414213562373096
aa(lp535
F2.4142135623730927
aF-1.0
aa(lp536
F2.414213562373091
aF1.0
aasg9
(lp537
F2.948347031639831e-15
aF-3.0
aF5.242640687119283
aF5.999999999999995
asa(dp538
g3
(lp539
(lp540
F2.414213562373096
aF1.0
aa(lp541
F-1.0
aF-2.4142135623730967
aa(lp542
F-2.4142135623731016
aF1.0
aasg9
(lp543
F6.0000000000000036
aF-7.828427124746195
aF-7.993605777301127e-15
asasI19
(lp544
(dp545
g3
(lp546
(lp547
F-1.0
aF-2.4142135623731
aa(lp548
F1.0
aF2.414213562373092
aa(lp549
F-2.414213562373097
aF-1.0
aa(lp550
F2.414213562373094
aF1.0
aa(lp551
F1.0
aF-2.4142135623731145
aasg9
(lp552
F-12.828427124746216
aF14.485281374238552
aF-7.2426406871192865
aF9.242640687119282
aF-9.485281374238662
asa(dp553
g3
(lp554
(lp555
F1.0
aF-2.4142135623730927
aa(lp556
F1.0
aF2.4142135623730994
aa(lp557
F-2.4142135623730905
aF-1.0
aasg9
(lp558
F-9.48528137423856
aF12.828427124746211
aF-7.24264068711928
asa(dp559
g3
(lp560
(lp561
F-2.4142135623730967
aF-1.0
aa(lp562
F-1.0
aF2.4142135623730927
aa(lp563
F1.0
aF2.414213562373066
aa(lp564
F2.414213562373092
aF-1.0
aasg9
(lp565
F-7.242640687119287
aF9.485281374238562
aF12.828427124746058
aF-4.552834426150419e-15
asa(dp566
g3
(lp567
(lp568
F-1.0
aF-2.414213562373071
aa(lp569
F-1.0
aF2.414213562373096
aa(lp570
F2.4142135623730834
aF1.0
aa(lp571
F2.4142135623731753
aF-1.0
aasg9
(lp572
F-12.828427124746081
aF9.485281374238577
aF9.242640687119263
aF1.5335923959246534e-13
asa(dp573
g3
(lp574
(lp575
F-2.4142135623730914
aF-1.0
aa(lp576
F9.143239512380114e-16
aF1.0
aa(lp577
F2.4142135623730643
aF1.0
aa(lp578
F-1.0
aF-2.4142135623730883
aasg9
(lp579
F-7.242640687119283
aF6.0
aF9.242640687119238
aF-14.485281374238532
asasI20
(lp580
(dp581
g3
(lp582
(lp583
F-2.414213562373094
aF-1.0
aa(lp584
F1.0
aF2.414213562373084
aa(lp585
F2.4142135623730874
aF1.0
aa(lp586
F1.0
aF-2.4142135623730914
aasg9
(lp587
F-6.0
aF12.828427124746135
aF7.242640687119277
aF-9.485281374238555
asa(dp588
g3
(lp589
(lp590
F-2.4142135623730923
aF-1.0
aa(lp591
F1.0
aF2.4142135623731016
aa(lp592
F2.4142135623730985
aF1.0
aa(lp593
F-1.0
aF-2.4142135623730883
aasg9
(lp594
F-6.0
aF14.48528137423861
aF7.242640687119288
aF-12.82842712474616
asa(dp595
g3
(lp596
(lp597
F2.4142135623730914
aF1.0
aa(lp598
F-1.0
aF-2.414213562373099
aa(lp599
F0.0
aF1.0
aasg9
(lp600
F7.242640687119284
aF-14.485281374238593
aF6.0
asa(dp601
g3
(lp602
(lp603
F-1.0
aF2.4142135623730936
aa(lp604
F-2.4142135623730936
aF-1.0
aa(lp605
F2.4142135623730945
aF-1.0
aa(lp606
F2.414213562373098
aF1.0
aasg9
(lp607
F9.485281374238566
aF-6.0
aF0.0
aF7.24264068711929
asasI21
(lp608
(dp609
g3
(lp610
(lp611
F-2.4142135623731096
aF1.0
aa(lp612
F-1.0
aF2.4142135623730425
aa(lp613
F2.4142135623731216
aF1.0
aa(lp614
F-1.0
aF-2.414213562373225
aasg9
(lp615
F-11.31370849898485
aF1.8284271247460184
aF18.07106781186565
aF-12.828427124746534
asa(dp616
g3
(lp617
(lp618
F2.4142135623731207
aF1.0
aa(lp619
F1.0
aF-2.414213562373198
aa(lp620
F-2.414213562373099
aF1.0
aasg9
(lp621
F18.071067811865635
aF-1.828427124746524
aF-11.313708498984786
asa(dp622
g3
(lp623
(lp624
F-2.414213562373095
aF1.0
aa(lp625
F1.0
aF2.414213562373108
aa(lp626
F2.414213562373099
aF1.0
aa(lp627
F3.692841673034005e-15
aF-1.0
aasg9
(lp628
F-11.313708498984765
aF12.828427124746222
aF18.071067811865504
aF-1.9999999999999754
asasI22
(lp629
(dp630
g3
(lp631
(lp632
F1.0
aF-2.414213562373094
aa(lp633
F-1.0
aF-0.0
aa(lp634
F1.0
aF2.4142135623730927
aa(lp635
F2.414213562373094
aF-1.0
aasg9
(lp636
F-1.82842712474619
aF0.0
aF2.9999999999999982
aF-7.696044374382845e-16
asa(dp637
g3
(lp638
(lp639
F-1.0
aF-2.414213562373093
aa(lp640
F-1.0
aF-0.0
aa(lp641
F1.0
aF2.414213562373093
aa(lp642
F2.414213562373093
aF-1.0
aasg9
(lp643
F-2.9999999999999982
aF0.0
aF7.828427124746185
aF-6.857429634285103e-16
asa(dp644
g3
(lp645
(lp646
F-1.0
aF-0.0
aa(lp647
F1.0
aF2.4142135623731042
aa(lp648
F2.414213562373097
aF1.0
aa(lp649
F1.0
aF-2.4142135623730945
aasg9
(lp650
F0.0
aF12.828427124746241
aF6.000000000000003
aF-9.485281374238568
asa(dp651
g3
(lp652
(lp653
F-1.0
aF-2.414213562373093
aa(lp654
F-1.0
aF2.414213562373096
aa(lp655
F-1.0
aF-0.0
aa(lp656
F2.4142135623730856
aF1.0
aa(lp657
F2.414213562373094
aF-1.0
aasg9
(lp658
F-7.828427124746185
aF9.485281374238573
aF0.0
aF5.999999999999991
aF-2.45057415616816e-15
asa(dp659
g3
(lp660
(lp661
F-1.0
aF2.414213562373096
aa(lp662
F-1.0
aF-0.0
aa(lp663
F2.414213562373095
aF-1.0
aasg9
(lp664
F1.8284271247461916
aF0.0
aF0.0
asa(dp665
g3
(lp666
(lp667
F2.4142135623730896
aF1.0
aa(lp668
F-1.0
aF-0.0
aa(lp669
F-1.0
aF-2.4142135623731034
aasg9
(lp670
F5.999999999999999
aF0.0
aF-12.828427124746236
asas.