(lp0
(lp1
I3
aa(lp2
I19
aa(lp3
I23
aa(lp4
I27
aa(lp5
I39
aa(lp6
I43
aa(lp7
I45
aa(lp8
I49
aa(lp9
I51
aa(lp10
I55
aa(lp11
I57
aa(lp12
I61
aa(lp13
I63
aa(lp14
I67
aa(lp15
I69
aa(lp16
I73
aa(lp17
I77
aa(lp18
I81
aa(lp19
I89
aa(lp20
I91
aa(lp21
I101
aa(lp22
I103
aa(lp23
I107
aa(lp24
I109
aa(lp25
I113
aa(lp26
I117
aa(lp27
I119
aa(lp28
I121
aa(lp29
I125
aa(lp30
I129
aa(lp31
I141
aa(lp32
I147
aa(lp33
I149
aa(lp34
I153
aa(lp35
I163
aa(lp36
I169
aa(lp37
I177
aa(lp38
I181
aa(lp39
I183
aa(lp40
I185
aa(lp41
I187
aa(lp42
I191
aa(lp43
I195
aa(lp44
I199
aa(lp45
I203
aa(lp46
I207
aa(lp47
I211
aa(lp48
I217
aa(lp49
I219
aa(lp50
I225
aa(lp51
I233
aa(lp52
I235
aa(lp53
I241
aa(lp54
I243
aa(lp55
I245
aa(lp56
I255
aa(lp57
I257
aa(lp58
I261
aa(lp59
I263
aa(lp60
I265
aa(lp61
I275
aa(lp62
I277
aa(lp63
I291
aa(lp64
I295
aa(lp65
I313
aa(lp66
I349
aa(lp67
I351
aa(lp68
I353
aa(lp69
I357
aa(lp70
I369
aa(lp71
I371
aa(lp72
I381
aa(lp73
I389
aa(lp74
I399
aa(lp75
I415
aa(lp76
I427
aa(lp77
I429
aa(lp78
I431
aa(lp79
I433
aa(lp80
I435
aa(lp81
I443
aa(lp82
I449
aa(lp83
I455
aa(lp84
I457
aa(lp85
I459
aa(lp86
I477
aa(lp87
I489
aa(lp88
I493
aa(lp89
I501
aa(lp90
I507
aa(lp91
I509
aa(lp92
I511
aa(lp93
I513
aa(lp94
I517
aa(lp95
I521
aa(lp96
I527
aa(lp97
I533
aa(lp98
I541
aa(lp99
I545
aa(lp100
I549
aa(lp101
I563
aa(lp102
I569
aa(lp103
I571
aa(lp104
I573
aa(lp105
I579
aa(lp106
I587
aa(lp107
I589
aa(lp108
I595
aa(lp109
I597
aa(lp110
I603
aa(lp111
I611
aa(lp112
I615
aa(lp113
I617
aa(lp114
I619
aa(lp115
I623
aa(lp116
I627
aa(lp117
I629
aa(lp118
I633
aa(lp119
I637
aa(lp120
I639
aa(lp121
I647
aa(lp122
I651
aa(lp123
I653
aa(lp124
I655
aa(lp125
I657
aa(lp126
I661
aa(lp127
I663
aa(lp128
I667
aa(lp129
I677
aa(lp130
I681
aa(lp131
I685
aa(lp132
I687
aa(lp133
I691
aa(lp134
I693
aa(lp135
I703
aa(lp136
I707
aa(lp137
I709
aa(lp138
I717
aa(lp139
I723
aa(lp140
I727
aa(lp141
I729
aa(lp142
I731
aa(lp143
I739
aa(lp144
I741
aa(lp145
I747
aa(lp146
I749
aa(lp147
I751
aa(lp148
I761
aa(lp149
I767
aa(lp150
I771
aa(lp151
I775
aa(lp152
I785
aa(lp153
I791
aa(lp154
I793
aa(lp155
I797
aa(lp156
I801
aa(lp157
I803
aa(lp158
I807
aa(lp159
I811
aa(lp160
I817
aa(lp161
I831
aa(lp162
I841
aa(lp163
I845
aa(lp164
I853
aa(lp165
I855
aa(lp166
I859
aa(lp167
I861
aa(lp168
I875
aa(lp169
I877
aa(lp170
I881
aa(lp171
I885
aa(lp172
I887
aa(lp173
I891
aa(lp174
I899
aa(lp175
I901
aa(lp176
I903
aa(lp177
I913
aa(lp178
I917
aa(lp179
I919
aa(lp180
I925
aa(lp181
I927
aa(lp182
I929
aa(lp183
I935
aa(lp184
I937
aa(lp185
I941
aa(lp186
I949
aa(lp187
I951
aa(lp188
I961
aa(lp189
I967
aa(lp190
I971
aa(lp191
I973
aa(lp192
I975
aa(lp193
I979
aa(lp194
I985
aa(lp195
I989
aa(lp196
I991
aa(lp197
I993
aa(lp198
I995
aa(lp199
I999
aa(lp200
I1001
aa(lp201
I1003
aa(lp202
I1011
aa(lp203
I1017
aa(lp204
I1027
aa(lp205
I1029
aa(lp206
I1033
aa(lp207
I1035
aa(lp208
I1039
aa(lp209
I1043
aa(lp210
I1071
aa(lp211
I1073
aa(lp212
I1075
aa(lp213
I1083
aa(lp214
I1085
aa(lp215
I1097
aa(lp216
I1101
aa(lp217
I1107
aa(lp218
I1109
aa(lp219
I1111
aa(lp220
I1113
aa(lp221
I1123
aa(lp222
I1137
aa(lp223
I1139
aa(lp224
I1149
aa(lp225
I1163
aa(lp226
I1167
aa(lp227
I1169
aa(lp228
I1173
aa(lp229
I1175
aa(lp230
I1177
aa(lp231
I1179
aa(lp232
I1183
aa(lp233
I1189
aa(lp234
I1191
aa(lp235
I1195
aa(lp236
I1197
aa.