(lp0
(lp1
I199
aI803
aI1091
aa(lp2
I803
aI1091
aI1111
aa(lp3
I217
aI629
aI941
aa(lp4
I265
aI629
aI941
aa(lp5
I629
aI941
aI993
aa(lp6
I185
aI629
aI941
aa(lp7
I629
aI749
aI941
aa(lp8
I803
aI859
aI1091
aa(lp9
I845
aI859
aI1091
aa(lp10
I235
aI859
aI1091
aa(lp11
I67
aI581
aI1091
aa(lp12
I119
aI859
aI1091
aa(lp13
I717
aI859
aI1091
aa(lp14
I717
aI739
aI859
aa(lp15
I33
aI717
aI859
aa(lp16
I717
aI859
aI1125
aa(lp17
I717
aI859
aI1061
aa(lp18
I717
aI859
aI897
aa(lp19
I589
aI717
aI859
aa(lp20
I717
aI859
aI1051
aa(lp21
I327
aI717
aI859
aa(lp22
I535
aI717
aI859
aa(lp23
I251
aI717
aI859
aa(lp24
I717
aI859
aI1129
aa(lp25
I447
aI717
aI859
aa(lp26
I299
aI717
aI859
aa(lp27
I717
aI859
aI1103
aa(lp28
I489
aI717
aI859
aa(lp29
I717
aI859
aI1177
aa(lp30
I561
aI717
aI859
aa(lp31
I717
aI735
aI859
aa(lp32
I717
aI859
aa(lp33
I153
aI859
aI1035
aa(lp34
I161
aI859
aI1035
aa(lp35
I691
aI859
aI1035
aa(lp36
I859
aI1035
aa(lp37
I841
aI859
aI875
aa(lp38
I817
aI841
aI859
aa(lp39
I817
aI859
aI901
aa(lp40
I817
aI859
aI1011
aa(lp41
I817
aI859
aa(lp42
I63
aI629
aI949
aa(lp43
I579
aI859
aa(lp44
I51
aI703
aI949
aa(lp45
I521
aI859
aa(lp46
I685
aI703
aI949
aa(lp47
I629
aI685
aI949
aa(lp48
I3
aI685
aI949
aa(lp49
I619
aI685
aI949
aa(lp50
I685
aI913
aI949
aa(lp51
I553
aI667
aI685
aa(lp52
I397
aI667
aI685
aa(lp53
I397
aI627
aI685
aa(lp54
I25
aI627
aI685
aa(lp55
I685
aI749
aa(lp56
I657
aI859
aI1073
aa(lp57
I859
aI1071
aa(lp58
I749
aI1027
aa(lp59
I677
aI859
aa(lp60
I457
aI859
aa(lp61
I571
aI859
aI1073
aa(lp62
I751
aI859
aI1073
aa(lp63
I729
aI859
aa(lp64
I611
aI859
aa(lp65
I77
aI859
aa(lp66
I125
aI687
aI951
aa(lp67
I687
aI859
aa(lp68
I651
aI785
aI1073
aa(lp69
I461
aI785
aI1073
aa(lp70
I785
aI1073
aI1191
aa(lp71
I517
aI785
aI1073
aa(lp72
I147
aI681
aI785
aa(lp73
I163
aI587
aI785
aa(lp74
I313
aI785
aI1063
aa(lp75
I545
aI681
aI785
aa(lp76
I313
aI785
aI807
aa(lp77
I399
aI681
aI785
aa(lp78
I73
aI149
aI785
aa(lp79
I313
aI727
aI785
aa(lp80
I165
aI587
aI785
aa(lp81
I681
aI785
aI1173
aa(lp82
I13
aI517
aI785
aa(lp83
I491
aI517
aI785
aa(lp84
I149
aI785
aI1037
aa(lp85
I517
aI785
aI1037
aa(lp86
I595
aI785
aI1037
aa(lp87
I177
aI785
aI1037
aa(lp88
I587
aI785
aI1037
aa(lp89
I381
aI785
aI1037
aa(lp90
I785
aI999
aI1037
aa(lp91
I785
aI917
aI1037
aa(lp92
I549
aI785
aI1037
aa(lp93
I313
aI785
aI1037
aa(lp94
I749
aI785
aI1069
aa(lp95
I581
aI785
aI1069
aa(lp96
I785
aI1069
aI1137
aa(lp97
I493
aI785
aI1069
aa(lp98
I263
aI785
aI1069
aa(lp99
I785
aI1041
aI1069
aa(lp100
I353
aI785
aI1069
aa(lp101
I313
aI785
aI1069
aa(lp102
I313
aI485
aI785
aa(lp103
I313
aI401
aI785
aa(lp104
I681
aI785
aI877
aa(lp105
I313
aI785
aI787
aa(lp106
I407
aI501
aI785
aa(lp107
I25
aI681
aI785
aa(lp108
I313
aI455
aI551
aa(lp109
I313
aI551
aI785
aa(lp110
I859
aI1085
aa(lp111
I277
aI429
aa(lp112
I429
aI741
aa(lp113
I741
aI929
aa(lp114
I203
aI1141
aa(lp115
I121
aI369
aI389
aa(lp116
I121
aI389
aI929
aa(lp117
I187
aI859
aa(lp118
I759
aI767
aI1141
aa(lp119
I767
aI929
aI1141
aa(lp120
I767
aI929
aI981
aa(lp121
I767
aI879
aI929
aa(lp122
I355
aI767
aI929
aa(lp123
I767
aI851
aI929
aa(lp124
I767
aI929
aI1161
aa(lp125
I767
aI929
aa(lp126
I407
aI767
aa(lp127
I509
aI767
aa(lp128
I767
aI1101
aI1193
aa(lp129
I767
aI1093
aI1101
aa(lp130
I443
aI767
aI1093
aa(lp131
I605
aI767
aI1093
aa(lp132
I767
aI1047
aI1093
aa(lp133
I767
aI919
aa(lp134
I223
aI767
aa(lp135
I103
aI767
aI1093
aa(lp136
I637
aI767
aa(lp137
I351
aI767
aI1093
aa(lp138
I767
aI985
aa(lp139
I767
aI797
aa(lp140
I767
aI913
aI1093
aa(lp141
I357
aI767
aa(lp142
I707
aI767
aa(lp143
I767
aI1109
aa(lp144
I395
aI767
aa(lp145
I435
aI767
aI1093
aa(lp146
I767
aI1077
aa(lp147
I573
aI767
aa(lp148
I337
aI767
aa(lp149
I61
aI767
aa(lp150
I95
aI767
aa(lp151
I767
aI775
aI1093
aa(lp152
I767
aI859
aa(lp153
I121
aI551
aI681
aa(lp154
I661
aI681
aI1079
aa(lp155
I623
aI661
aI681
aa(lp156
I603
aI661
aI681
aa(lp157
I45
aI859
aa(lp158
I859
aI1003
aa(lp159
I233
aI603
aI681
aa(lp160
I233
aI681
aI951
aa(lp161
I257
aI859
aa(lp162
I793
aI859
aa(lp163
I771
aI859
aa(lp164
I723
aI859
aa(lp165
I459
aI859
aa(lp166
I275
aI859
aa(lp167
I681
aI951
aa(lp168
I577
aI859
aI1001
aa(lp169
I859
aI1001
aI1147
aa(lp170
I859
aI1001
aa(lp171
I551
aI655
aI681
aa(lp172
I551
aI859
aa(lp173
I859
aa(lp174
I717
aI973
aa(lp175
I27
aI647
aI717
aa(lp176
I717
aI935
aa(lp177
I291
aI717
aa(lp178
I19
aI27
aI717
aa(lp179
I27
aI177
aI717
aa(lp180
I177
aI255
aI717
aa(lp181
I527
aI717
aI761
aa(lp182
I653
aI717
aI761
aa(lp183
I653
aI717
aI801
aa(lp184
I653
aI717
aI1079
aa(lp185
I177
aI717
aI1079
aa(lp186
I177
aI717
aI731
aa(lp187
I57
aI177
aI717
aa(lp188
I177
aI717
aI1017
aa(lp189
I177
aI449
aI717
aa(lp190
I717
aI839
aI887
aa(lp191
I177
aI717
aI1025
aa(lp192
I177
aI295
aI717
aa(lp193
I177
aI717
aI1175
aa(lp194
I177
aI717
aI1033
aa(lp195
I177
aI717
aI1097
aa(lp196
I177
aI195
aI717
aa(lp197
I177
aI433
aI717
aa(lp198
I177
aI621
aI717
aa(lp199
I517
aI717
aI1149
aa(lp200
I511
aI717
aa(lp201
I177
aI717
aI825
aa(lp202
I717
aI1043
aa(lp203
I177
aI615
aI717
aa(lp204
I177
aI279
aI717
aa(lp205
I21
aI177
aI717
aa(lp206
I177
aI717
aI989
aa(lp207
I177
aI533
aI717
aa(lp208
I215
aI717
aI767
aI819
aI1163
aa(lp209
I49
aI717
aI767
aI819
aI861
aI905
aa(lp210
I177
aI385
aI717
aI767
aI819
aI861
aa(lp211
I177
aI215
aI717
aI767
aI819
aI861
aa(lp212
I177
aI383
aI717
aI767
aI819
aI861
aa(lp213
I11
aI177
aI717
aI767
aI819
aI861
aa(lp214
I177
aI717
aI745
aI767
aI819
aI861
aa(lp215
I177
aI413
aI717
aI767
aI819
aI861
aa(lp216
I75
aI177
aI717
aI767
aI819
aI861
aa(lp217
I177
aI717
aI767
aI783
aI819
aI861
aa(lp218
I177
aI213
aI717
aI767
aI819
aI861
aa(lp219
I177
aI285
aI717
aI767
aI819
aI861
aa(lp220
I177
aI341
aI717
aI767
aI819
aI861
aa(lp221
I177
aI375
aI717
aI767
aI819
aI861
aa(lp222
I177
aI717
aI767
aI819
aI861
aI1181
aa(lp223
I177
aI717
aI767
aI819
aI967
aI1181
aa(lp224
I23
aI293
aI767
aI819
aI887
aI947
aa(lp225
I597
aI767
aI819
aI887
aI933
aI947
aa(lp226
I23
aI597
aI767
aI819
aI887
aI947
aa(lp227
I23
aI179
aI767
aI819
aI887
aI947
aa(lp228
I5
aI179
aI717
aI767
aI819
aI887
aa(lp229
I179
aI717
aI767
aI819
aI887
aI1181
aa(lp230
I179
aI717
aI767
aI819
aI887
aI957
aa(lp231
I179
aI349
aI717
aI767
aI819
aI887
aa(lp232
I179
aI717
aI767
aI819
aI833
aI887
aa(lp233
I39
aI645
aI717
aI767
aI819
aa(lp234
I39
aI167
aI717
aI767
aI819
aa(lp235
I39
aI127
aI717
aI767
aI819
aa(lp236
I39
aI717
aI767
aI819
aI833
aa(lp237
I39
aI495
aI717
aI767
aI819
aa(lp238
I495
aI717
aI767
aI819
aI1123
aa(lp239
I177
aI241
aI495
aI717
aI767
aI819
aa(lp240
I477
aI717
aI747
aI767
aI819
aI911
aa(lp241
I477
aI681
aI773
aI819
aI911
aI1157
aa(lp242
I145
aI477
aI681
aI819
aI911
aI1157
aa(lp243
I249
aI717
aI733
aI767
aI819
aI887
aa(lp244
I177
aI249
aI717
aI733
aI767
aI819
aa(lp245
I477
aI495
aI717
aI767
aI819
aI975
aa(lp246
I495
aI717
aI767
aI819
aI979
aa(lp247
I177
aI631
aI717
aI733
aI767
aI819
aa(lp248
I717
aI737
aI767
aI819
aI979
aa(lp249
I273
aI717
aI733
aI767
aI819
aI979
aa(lp250
I717
aI767
aI819
aI911
aI979
aa(lp251
I177
aI717
aI767
aI819
aI911
aI927
aa(lp252
I717
aI767
aI819
aI911
aI975
aa(lp253
I569
aI717
aI767
aI819
aI911
aa(lp254
I717
aI767
aI819
aI911
aI1107
aa(lp255
I141
aI717
aI767
aI819
aI911
aa(lp256
I693
aI717
aI767
aI819
aI911
aa(lp257
I693
aI717
aI767
aI819
aI1157
aa(lp258
I367
aI693
aI717
aI767
aI819
aa(lp259
I9
aI693
aI717
aI767
aI819
aa(lp260
I17
aI537
aI693
aI717
aI767
aI819
aa(lp261
I17
aI273
aI693
aI717
aI767
aI819
aa(lp262
I693
aI717
aI767
aI819
aI1131
aa(lp263
I693
aI717
aI767
aI819
aI1013
aa(lp264
I693
aI717
aI767
aI819
aa(lp265
I29
aI181
aI191
aI717
aI849
aa(lp266
I659
aI693
aI717
aI791
aI819
aa(lp267
I225
aI599
aI717
aI819
aI905
aa(lp268
I99
aI147
aI693
aI717
aI819
aa(lp269
I225
aI391
aI717
aI819
aI905
aa(lp270
I191
aI717
aI849
aI991
aI1187
aa(lp271
I191
aI229
aI717
aI849
aI991
aa(lp272
I147
aI273
aI693
aI717
aI819
aa(lp273
I191
aI229
aI717
aI849
aI955
aa(lp274
I225
aI717
aI819
aI849
aa(lp275
I147
aI659
aI693
aI717
aI819
aa(lp276
I147
aI693
aI717
aI819
aI1053
aa(lp277
I225
aI705
aI717
aI819
aa(lp278
I225
aI635
aI717
aI819
aa(lp279
I191
aI419
aI635
aI717
aI955
aa(lp280
I191
aI303
aI635
aI717
aI955
aa(lp281
I191
aI303
aI363
aI717
aI955
aa(lp282
I181
aI191
aI303
aI391
aI717
aa(lp283
I191
aI303
aI717
aI837
aI955
aa(lp284
I147
aI693
aI717
aI819
aI1185
aa(lp285
I303
aI563
aI717
aI837
aI955
aa(lp286
I303
aI391
aI681
aI717
aI819
aa(lp287
I303
aI681
aI717
aI819
aI837
aa(lp288
I147
aI499
aI591
aI693
aI717
aI819
aa(lp289
I303
aI681
aI717
aI819
aI1021
aa(lp290
I373
aI681
aI744
aI1021
aa(lp291
I41
aI681
aI744
aI1021
aa(lp292
I205
aI505
aI681
aI744
aI1021
aa(lp293
I311
aI505
aI681
aI744
aI1021
aa(lp294
I505
aI681
aI744
aI955
aI1021
aa(lp295
I147
aI479
aI499
aI693
aI717
aI819
aa(lp296
I147
aI693
aI717
aI819
aa(lp297
I113
aI693
aI717
aI819
aI1171
aa(lp298
I517
aI744
aI947
aa(lp299
I427
aI693
aI717
aI823
aI1021
aa(lp300
I517
aI601
aI744
aa(lp301
I65
aI517
aI744
aa(lp302
I497
aI517
aI744
aa(lp303
I517
aI744
aI987
aa(lp304
I517
aI744
aI847
aa(lp305
I517
aI744
aI819
aa(lp306
I177
aI744
aI819
aa(lp307
I693
aI717
aa(lp308
I89
aI359
aI681
aI717
aa(lp309
I245
aI717
aa(lp310
I129
aI717
aa(lp311
I359
aI717
aI903
aa(lp312
I359
aI681
aI717
aI881
aa(lp313
I177
aI359
aI717
aa(lp314
I717
aI891
aa(lp315
I617
aI681
aI717
aI955
aa(lp316
I379
aI617
aI681
aI717
aa(lp317
I379
aI681
aI717
aI1039
aa(lp318
I431
aI717
aa(lp319
I177
aI717
aa(lp320
I379
aI681
aI835
aI1021
aa(lp321
I379
aI479
aI681
aI1021
aa(lp322
I177
aI427
aI479
aI671
aa(lp323
I177
aI427
aI671
aI1093
aa(lp324
I139
aI681
aI1021
aa(lp325
I197
aI681
aI1021
aa(lp326
I547
aI681
aI1021
aa(lp327
I177
aI427
aI1093
aa(lp328
I1
aI2
aI4
aI7
aI8
aI10
aI12
aI14
aI16
aI18
aI20
aI22
aI24
aI26
aI28
aI31
aI32
aI35
aI37
aI38
aI40
aI43
aI44
aI47
aI48
aI50
aI53
aI55
aI56
aI59
aI60
aI62
aI64
aI66
aI69
aI71
aI72
aI74
aI76
aI79
aI81
aI83
aI85
aI87
aI88
aI91
aI93
aI94
aI97
aI98
aI101
aI102
aI105
aI107
aI109
aI111
aI113
aI115
aI117
aI118
aI120
aI123
aI124
aI126
aI128
aI131
aI133
aI135
aI137
aI138
aI140
aI143
aI144
aI146
aI148
aI151
aI152
aI155
aI157
aI159
aI160
aI162
aI164
aI166
aI169
aI171
aI173
aI175
aI177
aI178
aI180
aI183
aI184
aI186
aI189
aI190
aI193
aI194
aI196
aI198
aI201
aI202
aI204
aI207
aI209
aI211
aI212
aI214
aI216
aI219
aI221
aI222
aI224
aI227
aI228
aI231
aI232
aI234
aI237
aI239
aI240
aI243
aI244
aI247
aI248
aI250
aI253
aI254
aI256
aI259
aI261
aI262
aI264
aI267
aI269
aI271
aI272
aI274
aI276
aI278
aI280
aI283
aI284
aI287
aI289
aI290
aI292
aI294
aI297
aI298
aI301
aI302
aI305
aI307
aI309
aI310
aI312
aI315
aI317
aI319
aI321
aI323
aI325
aI326
aI329
aI330
aI333
aI335
aI336
aI339
aI340
aI343
aI345
aI347
aI348
aI350
aI352
aI354
aI356
aI358
aI361
aI362
aI365
aI366
aI368
aI371
aI372
aI374
aI377
aI378
aI380
aI382
aI384
aI387
aI388
aI390
aI393
aI394
aI396
aI398
aI400
aI403
aI405
aI406
aI409
aI411
aI412
aI415
aI417
aI418
aI421
aI423
aI425
aI427
aI428
aI430
aI432
aI434
aI437
aI439
aI440
aI442
aI444
aI446
aI448
aI451
aI453
aI454
aI456
aI458
aI460
aI463
aI465
aI467
aI469
aI471
aI473
aI475
aI476
aI478
aI480
aI483
aI484
aI487
aI488
aI490
aI492
aI494
aI496
aI498
aI500
aI503
aI504
aI507
aI508
aI510
aI513
aI514
aI516
aI519
aI520
aI523
aI525
aI526
aI529
aI531
aI532
aI534
aI536
aI539
aI541
aI543
aI544
aI546
aI548
aI550
aI552
aI555
aI557
aI559
aI560
aI562
aI565
aI567
aI568
aI570
aI572
aI575
aI576
aI578
aI580
aI583
aI585
aI586
aI588
aI590
aI593
aI594
aI596
aI598
aI600
aI602
aI604
aI607
aI609
aI610
aI613
aI614
aI616
aI618
aI620
aI622
aI625
aI626
aI628
aI630
aI633
aI634
aI636
aI639
aI641
aI643
aI644
aI646
aI649
aI650
aI652
aI654
aI656
aI658
aI660
aI663
aI665
aI666
aI669
aI670
aI673
aI675
aI676
aI679
aI681
aI683
aI684
aI686
aI689
aI690
aI692
aI695
aI697
aI699
aI701
aI702
aI704
aI706
aI709
aI711
aI713
aI715
aI716
aI719
aI721
aI722
aI725
aI726
aI728
aI730
aI732
aI734
aI736
aI738
aI740
aI743
aI744
aI746
aI748
aI750
aI753
aI755
aI757
aI758
aI760
aI763
aI765
aI766
aI769
aI770
aI772
aI774
aI777
aI779
aI781
aI782
aI784
aI786
aI789
aI790
aI792
aI795
aI796
aI799
aI800
aI802
aI805
aI806
aI809
aI811
aI813
aI815
aI816
aI818
aI821
aI822
aI824
aI826
aI828
aI831
aI832
aI834
aI836
aI838
aI840
aI843
aI844
aI846
aI848
aI850
aI853
aI855
aI857
aI858
aI860
aI863
aI865
aI867
aI869
aI871
aI873
aI874
aI876
aI878
aI880
aI883
aI885
aI886
aI889
aI890
aI893
aI895
aI896
aI899
aI900
aI902
aI904
aI906
aI909
aI910
aI912
aI915
aI916
aI918
aI921
aI923
aI925
aI926
aI928
aI931
aI932
aI934
aI937
aI939
aI940
aI943
aI945
aI946
aI948
aI950
aI953
aI954
aI956
aI959
aI961
aI963
aI965
aI966
aI968
aI971
aI972
aI974
aI977
aI978
aI980
aI983
aI984
aI986
aI988
aI990
aI992
aI995
aI997
aI998
aI1000
aI1002
aI1005
aI1007
aI1009
aI1010
aI1012
aI1015
aI1016
aI1019
aI1021
aI1023
aI1024
aI1026
aI1029
aI1031
aI1032
aI1034
aI1036
aI1038
aI1040
aI1042
aI1045
aI1046
aI1049
aI1050
aI1052
aI1055
aI1057
aI1059
aI1060
aI1062
aI1065
aI1067
aI1068
aI1070
aI1072
aI1075
aI1076
aI1078
aI1081
aI1083
aI1084
aI1087
aI1089
aI1090
aI1092
aI1095
aI1096
aI1098
aI1100
aI1102
aI1105
aI1106
aI1108
aI1110
aI1113
aI1114
aI1117
aI1119
aI1121
aI1122
aI1124
aI1127
aI1128
aI1130
aI1133
aI1135
aI1136
aI1139
aI1140
aI1143
aI1145
aI1146
aI1148
aI1151
aI1153
aI1155
aI1156
aI1159
aI1160
aI1162
aI1164
aI1167
aI1169
aI1170
aI1172
aI1174
aI1176
aI1179
aI1180
aI1183
aI1184
aI1186
aI1189
aI1190
aI1192
aI1195
aI1197
aI1199
aa(lp329
I1
aI2
aI4
aI7
aI8
aI10
aI12
aI14
aI16
aI18
aI20
aI22
aI24
aI26
aI28
aI31
aI32
aI35
aI37
aI38
aI40
aI43
aI44
aI47
aI48
aI50
aI53
aI55
aI56
aI59
aI60
aI62
aI64
aI66
aI69
aI71
aI72
aI74
aI76
aI79
aI81
aI83
aI85
aI87
aI88
aI91
aI93
aI94
aI97
aI98
aI101
aI102
aI105
aI107
aI109
aI111
aI113
aI115
aI117
aI118
aI120
aI123
aI124
aI126
aI128
aI131
aI133
aI135
aI137
aI138
aI140
aI143
aI144
aI146
aI148
aI151
aI152
aI155
aI157
aI159
aI160
aI162
aI164
aI166
aI169
aI171
aI173
aI175
aI177
aI178
aI180
aI183
aI184
aI186
aI189
aI190
aI193
aI194
aI196
aI198
aI201
aI202
aI204
aI207
aI209
aI211
aI212
aI214
aI216
aI219
aI221
aI222
aI224
aI227
aI228
aI231
aI232
aI234
aI237
aI239
aI240
aI243
aI244
aI247
aI248
aI250
aI253
aI254
aI256
aI259
aI261
aI262
aI264
aI267
aI269
aI271
aI272
aI274
aI276
aI278
aI280
aI283
aI284
aI287
aI289
aI290
aI292
aI294
aI297
aI298
aI301
aI302
aI305
aI307
aI309
aI310
aI312
aI315
aI317
aI319
aI321
aI323
aI325
aI326
aI329
aI330
aI333
aI335
aI336
aI339
aI340
aI343
aI345
aI347
aI348
aI350
aI352
aI354
aI356
aI358
aI361
aI362
aI365
aI366
aI368
aI371
aI372
aI374
aI377
aI378
aI380
aI382
aI384
aI387
aI388
aI390
aI393
aI394
aI396
aI398
aI400
aI403
aI405
aI406
aI409
aI411
aI412
aI415
aI417
aI418
aI421
aI423
aI425
aI427
aI428
aI430
aI432
aI434
aI437
aI439
aI440
aI442
aI444
aI446
aI448
aI451
aI453
aI454
aI456
aI458
aI460
aI463
aI465
aI467
aI469
aI471
aI473
aI475
aI476
aI478
aI480
aI483
aI484
aI487
aI488
aI490
aI492
aI494
aI496
aI498
aI500
aI503
aI504
aI507
aI508
aI510
aI513
aI514
aI516
aI519
aI520
aI523
aI525
aI526
aI529
aI531
aI532
aI534
aI536
aI539
aI541
aI543
aI544
aI546
aI548
aI550
aI552
aI555
aI557
aI559
aI560
aI562
aI565
aI567
aI568
aI570
aI572
aI575
aI576
aI578
aI580
aI583
aI585
aI586
aI588
aI590
aI593
aI594
aI596
aI598
aI600
aI602
aI604
aI607
aI609
aI610
aI613
aI614
aI616
aI618
aI620
aI622
aI625
aI626
aI628
aI630
aI633
aI634
aI636
aI639
aI641
aI643
aI644
aI646
aI648
aI650
aI652
aI654
aI656
aI658
aI660
aI663
aI665
aI666
aI669
aI670
aI673
aI675
aI676
aI679
aI681
aI683
aI684
aI686
aI689
aI690
aI692
aI695
aI697
aI699
aI701
aI702
aI704
aI706
aI709
aI711
aI713
aI715
aI716
aI719
aI721
aI722
aI725
aI726
aI728
aI730
aI732
aI734
aI736
aI738
aI740
aI743
aI744
aI746
aI748
aI750
aI753
aI755
aI757
aI758
aI760
aI763
aI765
aI766
aI769
aI770
aI772
aI774
aI777
aI779
aI781
aI782
aI784
aI786
aI789
aI790
aI792
aI795
aI796
aI799
aI800
aI802
aI805
aI806
aI809
aI811
aI813
aI815
aI816
aI818
aI821
aI822
aI824
aI826
aI828
aI831
aI832
aI834
aI836
aI838
aI840
aI843
aI844
aI846
aI848
aI850
aI853
aI855
aI857
aI858
aI860
aI863
aI865
aI867
aI869
aI871
aI873
aI874
aI876
aI878
aI880
aI883
aI885
aI886
aI889
aI890
aI893
aI895
aI896
aI899
aI900
aI902
aI904
aI906
aI909
aI910
aI912
aI915
aI916
aI918
aI921
aI923
aI925
aI926
aI928
aI931
aI932
aI934
aI937
aI939
aI940
aI943
aI945
aI946
aI948
aI950
aI953
aI954
aI956
aI959
aI961
aI963
aI965
aI966
aI968
aI971
aI972
aI974
aI977
aI978
aI980
aI983
aI984
aI986
aI988
aI990
aI992
aI995
aI997
aI998
aI1000
aI1002
aI1005
aI1007
aI1009
aI1010
aI1012
aI1015
aI1016
aI1019
aI1021
aI1023
aI1024
aI1026
aI1029
aI1031
aI1032
aI1034
aI1036
aI1038
aI1040
aI1042
aI1045
aI1046
aI1049
aI1050
aI1052
aI1055
aI1057
aI1059
aI1060
aI1062
aI1065
aI1067
aI1068
aI1070
aI1072
aI1075
aI1076
aI1078
aI1081
aI1083
aI1084
aI1087
aI1089
aI1090
aI1092
aI1095
aI1096
aI1098
aI1100
aI1102
aI1105
aI1106
aI1108
aI1110
aI1113
aI1114
aI1117
aI1119
aI1121
aI1122
aI1124
aI1127
aI1128
aI1130
aI1133
aI1135
aI1136
aI1139
aI1140
aI1143
aI1145
aI1146
aI1148
aI1151
aI1153
aI1155
aI1156
aI1159
aI1160
aI1162
aI1164
aI1167
aI1169
aI1170
aI1172
aI1174
aI1176
aI1179
aI1180
aI1183
aI1184
aI1186
aI1189
aI1190
aI1192
aI1195
aI1197
aI1199
aa(lp330
I1
aI2
aI4
aI7
aI8
aI10
aI12
aI14
aI16
aI18
aI20
aI22
aI24
aI26
aI28
aI31
aI32
aI35
aI37
aI38
aI40
aI43
aI44
aI47
aI48
aI50
aI53
aI55
aI56
aI59
aI60
aI62
aI64
aI66
aI69
aI71
aI72
aI74
aI76
aI79
aI81
aI83
aI85
aI87
aI88
aI91
aI93
aI94
aI97
aI98
aI101
aI102
aI105
aI107
aI109
aI111
aI113
aI115
aI117
aI118
aI120
aI123
aI124
aI126
aI128
aI131
aI133
aI135
aI137
aI138
aI140
aI143
aI144
aI146
aI148
aI151
aI152
aI155
aI157
aI159
aI160
aI162
aI164
aI166
aI169
aI171
aI173
aI175
aI177
aI178
aI180
aI183
aI184
aI186
aI189
aI190
aI193
aI194
aI196
aI198
aI201
aI202
aI204
aI207
aI209
aI211
aI212
aI214
aI216
aI219
aI221
aI222
aI224
aI227
aI228
aI231
aI232
aI234
aI237
aI239
aI240
aI243
aI244
aI247
aI248
aI250
aI253
aI254
aI256
aI259
aI261
aI262
aI264
aI267
aI269
aI271
aI272
aI274
aI276
aI278
aI280
aI283
aI284
aI287
aI289
aI290
aI292
aI294
aI297
aI298
aI301
aI302
aI305
aI307
aI309
aI310
aI312
aI315
aI317
aI319
aI321
aI323
aI325
aI326
aI329
aI330
aI332
aI335
aI336
aI339
aI340
aI343
aI345
aI347
aI348
aI350
aI352
aI354
aI356
aI358
aI361
aI362
aI365
aI366
aI368
aI371
aI372
aI374
aI377
aI378
aI380
aI382
aI384
aI387
aI388
aI390
aI393
aI394
aI396
aI398
aI400
aI403
aI405
aI406
aI409
aI411
aI412
aI415
aI417
aI418
aI421
aI423
aI425
aI427
aI428
aI430
aI432
aI434
aI437
aI439
aI440
aI442
aI444
aI446
aI448
aI451
aI453
aI454
aI456
aI458
aI460
aI463
aI465
aI467
aI469
aI471
aI473
aI475
aI476
aI478
aI480
aI483
aI484
aI487
aI488
aI490
aI492
aI494
aI496
aI498
aI500
aI503
aI504
aI507
aI508
aI510
aI513
aI514
aI516
aI519
aI520
aI523
aI525
aI526
aI529
aI531
aI532
aI534
aI536
aI539
aI541
aI543
aI544
aI546
aI548
aI550
aI552
aI555
aI557
aI559
aI560
aI562
aI565
aI567
aI568
aI570
aI572
aI575
aI576
aI578
aI580
aI583
aI585
aI586
aI588
aI590
aI593
aI594
aI596
aI598
aI600
aI602
aI604
aI607
aI609
aI610
aI613
aI614
aI616
aI618
aI620
aI622
aI625
aI626
aI628
aI630
aI633
aI634
aI636
aI639
aI641
aI643
aI644
aI646
aI648
aI650
aI652
aI654
aI656
aI658
aI660
aI663
aI665
aI666
aI669
aI670
aI673
aI675
aI676
aI679
aI681
aI683
aI684
aI686
aI689
aI690
aI692
aI695
aI697
aI699
aI701
aI702
aI704
aI706
aI709
aI711
aI713
aI715
aI716
aI719
aI721
aI722
aI725
aI726
aI728
aI730
aI732
aI734
aI736
aI738
aI740
aI743
aI744
aI746
aI748
aI750
aI753
aI755
aI757
aI758
aI760
aI763
aI765
aI766
aI769
aI770
aI772
aI774
aI777
aI779
aI781
aI782
aI784
aI786
aI789
aI790
aI792
aI795
aI796
aI799
aI800
aI802
aI805
aI806
aI809
aI811
aI813
aI815
aI816
aI818
aI821
aI822
aI824
aI826
aI828
aI831
aI832
aI834
aI836
aI838
aI840
aI843
aI844
aI846
aI848
aI850
aI853
aI855
aI857
aI858
aI860
aI863
aI865
aI867
aI869
aI871
aI873
aI874
aI876
aI878
aI880
aI883
aI885
aI886
aI889
aI890
aI893
aI895
aI896
aI899
aI900
aI902
aI904
aI906
aI909
aI910
aI912
aI915
aI916
aI918
aI921
aI923
aI925
aI926
aI928
aI931
aI932
aI934
aI937
aI939
aI940
aI943
aI945
aI946
aI948
aI950
aI953
aI954
aI956
aI959
aI961
aI963
aI965
aI966
aI968
aI971
aI972
aI974
aI977
aI978
aI980
aI983
aI984
aI986
aI988
aI990
aI992
aI995
aI997
aI998
aI1000
aI1002
aI1005
aI1007
aI1009
aI1010
aI1012
aI1015
aI1016
aI1019
aI1021
aI1023
aI1024
aI1026
aI1029
aI1031
aI1032
aI1034
aI1036
aI1038
aI1040
aI1042
aI1045
aI1046
aI1049
aI1050
aI1052
aI1055
aI1057
aI1059
aI1060
aI1062
aI1065
aI1067
aI1068
aI1070
aI1072
aI1075
aI1076
aI1078
aI1081
aI1083
aI1084
aI1087
aI1089
aI1090
aI1092
aI1095
aI1096
aI1098
aI1100
aI1102
aI1105
aI1106
aI1108
aI1110
aI1113
aI1114
aI1117
aI1119
aI1121
aI1122
aI1124
aI1127
aI1128
aI1130
aI1133
aI1135
aI1136
aI1139
aI1140
aI1143
aI1145
aI1146
aI1148
aI1151
aI1153
aI1155
aI1156
aI1159
aI1160
aI1162
aI1164
aI1167
aI1169
aI1170
aI1172
aI1174
aI1176
aI1179
aI1180
aI1183
aI1184
aI1186
aI1189
aI1190
aI1192
aI1195
aI1197
aI1199
aa(lp331
I1
aI2
aI4
aI7
aI8
aI10
aI12
aI14
aI16
aI18
aI20
aI22
aI24
aI26
aI28
aI31
aI32
aI35
aI37
aI38
aI40
aI43
aI44
aI47
aI48
aI50
aI53
aI55
aI56
aI59
aI60
aI62
aI64
aI66
aI69
aI71
aI72
aI74
aI76
aI79
aI81
aI83
aI85
aI87
aI88
aI91
aI93
aI94
aI97
aI98
aI101
aI102
aI105
aI107
aI109
aI111
aI113
aI115
aI117
aI118
aI120
aI123
aI124
aI126
aI128
aI131
aI133
aI135
aI137
aI138
aI140
aI143
aI144
aI146
aI148
aI151
aI152
aI155
aI157
aI159
aI160
aI162
aI164
aI166
aI169
aI171
aI173
aI175
aI177
aI178
aI180
aI183
aI184
aI186
aI189
aI190
aI193
aI194
aI196
aI198
aI201
aI202
aI204
aI207
aI209
aI211
aI212
aI214
aI216
aI219
aI221
aI222
aI224
aI227
aI228
aI231
aI232
aI234
aI237
aI239
aI240
aI243
aI244
aI247
aI248
aI250
aI253
aI254
aI256
aI259
aI261
aI262
aI264
aI267
aI269
aI271
aI272
aI274
aI276
aI278
aI280
aI283
aI284
aI287
aI289
aI290
aI292
aI294
aI297
aI298
aI301
aI302
aI305
aI307
aI309
aI310
aI312
aI315
aI317
aI319
aI321
aI323
aI325
aI326
aI328
aI330
aI332
aI335
aI336
aI339
aI340
aI343
aI345
aI347
aI348
aI350
aI352
aI354
aI356
aI358
aI361
aI362
aI365
aI366
aI368
aI371
aI372
aI374
aI377
aI378
aI380
aI382
aI384
aI387
aI388
aI390
aI393
aI394
aI396
aI398
aI400
aI403
aI405
aI406
aI409
aI411
aI412
aI415
aI417
aI418
aI421
aI423
aI425
aI427
aI428
aI430
aI432
aI434
aI437
aI439
aI440
aI442
aI444
aI446
aI448
aI451
aI453
aI454
aI456
aI458
aI460
aI463
aI465
aI467
aI469
aI471
aI473
aI475
aI476
aI478
aI480
aI483
aI484
aI487
aI488
aI490
aI492
aI494
aI496
aI498
aI500
aI503
aI504
aI507
aI508
aI510
aI513
aI514
aI516
aI519
aI520
aI523
aI525
aI526
aI529
aI531
aI532
aI534
aI536
aI539
aI541
aI543
aI544
aI546
aI548
aI550
aI552
aI555
aI557
aI559
aI560
aI562
aI565
aI567
aI568
aI570
aI572
aI575
aI576
aI578
aI580
aI583
aI585
aI586
aI588
aI590
aI593
aI594
aI596
aI598
aI600
aI602
aI604
aI607
aI609
aI610
aI613
aI614
aI616
aI618
aI620
aI622
aI625
aI626
aI628
aI630
aI633
aI634
aI636
aI639
aI641
aI643
aI644
aI646
aI648
aI650
aI652
aI654
aI656
aI658
aI660
aI663
aI665
aI666
aI669
aI670
aI673
aI675
aI676
aI679
aI681
aI683
aI684
aI686
aI689
aI690
aI692
aI695
aI697
aI699
aI701
aI702
aI704
aI706
aI709
aI711
aI713
aI715
aI716
aI719
aI721
aI722
aI725
aI726
aI728
aI730
aI732
aI734
aI736
aI738
aI740
aI743
aI744
aI746
aI748
aI750
aI753
aI755
aI757
aI758
aI760
aI763
aI765
aI766
aI769
aI770
aI772
aI774
aI777
aI779
aI781
aI782
aI784
aI786
aI789
aI790
aI792
aI795
aI796
aI799
aI800
aI802
aI805
aI806
aI809
aI811
aI813
aI815
aI816
aI818
aI821
aI822
aI824
aI826
aI828
aI831
aI832
aI834
aI836
aI838
aI840
aI843
aI844
aI846
aI848
aI850
aI853
aI855
aI857
aI858
aI860
aI863
aI865
aI867
aI869
aI871
aI873
aI874
aI876
aI878
aI880
aI883
aI885
aI886
aI889
aI890
aI893
aI895
aI896
aI899
aI900
aI902
aI904
aI906
aI909
aI910
aI912
aI915
aI916
aI918
aI921
aI923
aI925
aI926
aI928
aI931
aI932
aI934
aI937
aI939
aI940
aI943
aI945
aI946
aI948
aI950
aI953
aI954
aI956
aI959
aI961
aI963
aI965
aI966
aI968
aI971
aI972
aI974
aI977
aI978
aI980
aI983
aI984
aI986
aI988
aI990
aI992
aI995
aI997
aI998
aI1000
aI1002
aI1005
aI1007
aI1009
aI1010
aI1012
aI1015
aI1016
aI1019
aI1021
aI1023
aI1024
aI1026
aI1029
aI1031
aI1032
aI1034
aI1036
aI1038
aI1040
aI1042
aI1045
aI1046
aI1049
aI1050
aI1052
aI1055
aI1057
aI1059
aI1060
aI1062
aI1065
aI1067
aI1068
aI1070
aI1072
aI1075
aI1076
aI1078
aI1081
aI1083
aI1084
aI1087
aI1089
aI1090
aI1092
aI1095
aI1096
aI1098
aI1100
aI1102
aI1105
aI1106
aI1108
aI1110
aI1113
aI1114
aI1117
aI1119
aI1121
aI1122
aI1124
aI1127
aI1128
aI1130
aI1133
aI1135
aI1136
aI1139
aI1140
aI1143
aI1145
aI1146
aI1148
aI1151
aI1153
aI1155
aI1156
aI1159
aI1160
aI1162
aI1164
aI1167
aI1169
aI1170
aI1172
aI1174
aI1176
aI1179
aI1180
aI1183
aI1184
aI1186
aI1189
aI1190
aI1192
aI1195
aI1197
aI1199
aa(lp332
I1
aI2
aI4
aI7
aI8
aI10
aI12
aI14
aI16
aI18
aI20
aI22
aI24
aI26
aI28
aI31
aI32
aI35
aI37
aI38
aI40
aI43
aI44
aI47
aI48
aI50
aI53
aI55
aI56
aI59
aI60
aI62
aI64
aI66
aI69
aI71
aI72
aI74
aI76
aI79
aI81
aI83
aI85
aI87
aI88
aI91
aI93
aI94
aI97
aI98
aI101
aI102
aI105
aI107
aI109
aI111
aI113
aI115
aI117
aI118
aI120
aI123
aI124
aI126
aI128
aI131
aI133
aI135
aI137
aI138
aI140
aI143
aI144
aI146
aI148
aI151
aI152
aI155
aI157
aI159
aI160
aI162
aI164
aI166
aI169
aI171
aI173
aI175
aI177
aI178
aI180
aI183
aI184
aI186
aI189
aI190
aI193
aI194
aI196
aI198
aI201
aI202
aI204
aI207
aI209
aI211
aI212
aI214
aI216
aI219
aI221
aI222
aI224
aI227
aI228
aI231
aI232
aI234
aI237
aI239
aI240
aI243
aI244
aI247
aI248
aI250
aI253
aI254
aI256
aI259
aI261
aI262
aI264
aI267
aI269
aI271
aI272
aI274
aI276
aI278
aI280
aI283
aI284
aI287
aI289
aI290
aI292
aI294
aI297
aI298
aI301
aI302
aI305
aI307
aI309
aI310
aI312
aI315
aI317
aI319
aI321
aI323
aI325
aI326
aI328
aI330
aI332
aI335
aI336
aI339
aI340
aI343
aI345
aI347
aI348
aI350
aI352
aI354
aI356
aI358
aI361
aI362
aI365
aI366
aI368
aI371
aI372
aI374
aI377
aI378
aI380
aI382
aI384
aI387
aI388
aI390
aI393
aI394
aI396
aI398
aI400
aI403
aI405
aI406
aI409
aI411
aI412
aI415
aI417
aI418
aI421
aI423
aI425
aI427
aI428
aI430
aI432
aI434
aI437
aI439
aI440
aI442
aI444
aI446
aI448
aI451
aI453
aI454
aI456
aI458
aI460
aI463
aI465
aI467
aI469
aI471
aI473
aI475
aI476
aI478
aI480
aI483
aI484
aI487
aI488
aI490
aI492
aI494
aI496
aI498
aI500
aI503
aI504
aI507
aI508
aI510
aI513
aI514
aI516
aI519
aI520
aI523
aI525
aI526
aI529
aI531
aI532
aI534
aI536
aI539
aI541
aI543
aI544
aI546
aI548
aI550
aI552
aI555
aI557
aI559
aI560
aI563
aI565
aI567
aI568
aI570
aI572
aI575
aI576
aI578
aI580
aI583
aI585
aI586
aI588
aI590
aI593
aI594
aI596
aI598
aI600
aI602
aI604
aI607
aI609
aI610
aI613
aI614
aI616
aI618
aI620
aI622
aI625
aI626
aI628
aI630
aI633
aI634
aI636
aI639
aI641
aI643
aI644
aI646
aI648
aI650
aI652
aI654
aI656
aI658
aI660
aI663
aI665
aI666
aI669
aI670
aI673
aI675
aI676
aI679
aI681
aI683
aI684
aI686
aI689
aI690
aI692
aI695
aI697
aI699
aI701
aI702
aI704
aI706
aI709
aI711
aI713
aI715
aI716
aI719
aI721
aI722
aI725
aI726
aI728
aI730
aI732
aI734
aI736
aI738
aI740
aI743
aI744
aI746
aI748
aI750
aI753
aI755
aI757
aI758
aI760
aI763
aI765
aI766
aI769
aI770
aI772
aI774
aI777
aI779
aI781
aI782
aI784
aI786
aI789
aI790
aI792
aI795
aI796
aI799
aI800
aI802
aI805
aI806
aI809
aI811
aI813
aI815
aI816
aI818
aI821
aI822
aI824
aI826
aI828
aI831
aI832
aI834
aI836
aI838
aI840
aI843
aI844
aI846
aI848
aI850
aI853
aI855
aI857
aI858
aI860
aI863
aI865
aI867
aI869
aI871
aI873
aI874
aI876
aI878
aI880
aI883
aI885
aI886
aI889
aI890
aI893
aI895
aI896
aI899
aI900
aI902
aI904
aI906
aI909
aI910
aI912
aI915
aI916
aI918
aI921
aI923
aI925
aI926
aI928
aI931
aI932
aI934
aI937
aI939
aI940
aI943
aI945
aI946
aI948
aI950
aI953
aI954
aI956
aI959
aI961
aI963
aI965
aI966
aI968
aI971
aI972
aI974
aI977
aI978
aI980
aI983
aI984
aI986
aI988
aI990
aI992
aI995
aI997
aI998
aI1000
aI1002
aI1005
aI1007
aI1009
aI1010
aI1012
aI1015
aI1016
aI1019
aI1021
aI1023
aI1024
aI1026
aI1029
aI1031
aI1032
aI1034
aI1036
aI1038
aI1040
aI1042
aI1045
aI1046
aI1049
aI1050
aI1052
aI1055
aI1057
aI1059
aI1060
aI1062
aI1065
aI1067
aI1068
aI1070
aI1072
aI1075
aI1076
aI1078
aI1081
aI1083
aI1084
aI1087
aI1089
aI1090
aI1092
aI1095
aI1096
aI1098
aI1100
aI1102
aI1105
aI1106
aI1108
aI1110
aI1113
aI1114
aI1117
aI1119
aI1121
aI1122
aI1124
aI1127
aI1128
aI1130
aI1133
aI1135
aI1136
aI1139
aI1140
aI1143
aI1145
aI1146
aI1148
aI1151
aI1153
aI1155
aI1156
aI1159
aI1160
aI1162
aI1164
aI1167
aI1169
aI1170
aI1172
aI1174
aI1176
aI1179
aI1180
aI1183
aI1184
aI1186
aI1189
aI1190
aI1192
aI1195
aI1197
aI1199
aa(lp333
I1
aI2
aI4
aI7
aI8
aI10
aI12
aI14
aI16
aI18
aI20
aI22
aI24
aI26
aI28
aI31
aI32
aI35
aI37
aI38
aI40
aI43
aI44
aI47
aI48
aI50
aI53
aI55
aI56
aI59
aI60
aI62
aI64
aI66
aI69
aI71
aI72
aI74
aI76
aI79
aI81
aI83
aI85
aI87
aI88
aI91
aI93
aI94
aI97
aI98
aI101
aI102
aI105
aI107
aI109
aI111
aI113
aI115
aI117
aI118
aI120
aI123
aI124
aI126
aI128
aI131
aI133
aI135
aI137
aI138
aI140
aI143
aI144
aI146
aI148
aI151
aI152
aI154
aI157
aI159
aI160
aI162
aI164
aI166
aI169
aI171
aI173
aI175
aI177
aI178
aI180
aI183
aI184
aI186
aI189
aI190
aI193
aI194
aI196
aI198
aI201
aI202
aI204
aI207
aI209
aI211
aI212
aI214
aI216
aI219
aI221
aI222
aI224
aI227
aI228
aI231
aI232
aI234
aI237
aI239
aI240
aI243
aI244
aI247
aI248
aI250
aI253
aI254
aI256
aI259
aI261
aI262
aI264
aI267
aI269
aI271
aI272
aI274
aI276
aI278
aI280
aI283
aI284
aI287
aI289
aI290
aI292
aI294
aI297
aI298
aI301
aI302
aI305
aI307
aI309
aI310
aI312
aI315
aI317
aI319
aI321
aI323
aI325
aI326
aI328
aI330
aI332
aI335
aI336
aI339
aI340
aI343
aI345
aI347
aI348
aI350
aI352
aI354
aI356
aI358
aI361
aI362
aI365
aI366
aI368
aI371
aI372
aI374
aI377
aI378
aI380
aI382
aI384
aI387
aI388
aI390
aI393
aI394
aI396
aI398
aI400
aI403
aI405
aI406
aI409
aI411
aI412
aI415
aI417
aI418
aI421
aI423
aI425
aI427
aI428
aI430
aI432
aI434
aI437
aI439
aI440
aI442
aI444
aI446
aI448
aI451
aI453
aI454
aI456
aI458
aI460
aI463
aI465
aI467
aI469
aI471
aI473
aI475
aI476
aI478
aI480
aI483
aI484
aI487
aI488
aI490
aI492
aI494
aI496
aI498
aI500
aI503
aI504
aI507
aI508
aI510
aI513
aI514
aI516
aI519
aI520
aI523
aI525
aI526
aI529
aI531
aI532
aI534
aI536
aI539
aI541
aI543
aI544
aI546
aI548
aI550
aI552
aI555
aI557
aI559
aI560
aI563
aI565
aI567
aI568
aI570
aI572
aI575
aI576
aI578
aI580
aI583
aI585
aI586
aI588
aI590
aI593
aI594
aI596
aI598
aI600
aI602
aI604
aI607
aI609
aI610
aI613
aI614
aI616
aI618
aI620
aI622
aI625
aI626
aI628
aI630
aI633
aI634
aI636
aI639
aI641
aI643
aI644
aI646
aI648
aI650
aI652
aI654
aI656
aI658
aI660
aI663
aI665
aI666
aI669
aI670
aI673
aI675
aI676
aI679
aI681
aI683
aI684
aI686
aI689
aI690
aI692
aI695
aI697
aI699
aI701
aI702
aI704
aI706
aI709
aI711
aI713
aI715
aI716
aI719
aI721
aI722
aI725
aI726
aI728
aI730
aI732
aI734
aI736
aI738
aI740
aI743
aI744
aI746
aI748
aI750
aI753
aI755
aI757
aI758
aI760
aI763
aI765
aI766
aI769
aI770
aI772
aI774
aI777
aI779
aI781
aI782
aI784
aI786
aI789
aI790
aI792
aI795
aI796
aI799
aI800
aI802
aI805
aI806
aI809
aI811
aI813
aI815
aI816
aI818
aI821
aI822
aI824
aI826
aI828
aI831
aI832
aI834
aI836
aI838
aI840
aI843
aI844
aI846
aI848
aI850
aI853
aI855
aI857
aI858
aI860
aI863
aI865
aI867
aI869
aI871
aI873
aI874
aI876
aI878
aI880
aI883
aI885
aI886
aI889
aI890
aI893
aI895
aI896
aI899
aI900
aI902
aI904
aI906
aI909
aI910
aI912
aI915
aI916
aI918
aI921
aI923
aI925
aI926
aI928
aI931
aI932
aI934
aI937
aI939
aI940
aI943
aI945
aI946
aI948
aI950
aI953
aI954
aI956
aI959
aI961
aI963
aI965
aI966
aI968
aI971
aI972
aI974
aI977
aI978
aI980
aI983
aI984
aI986
aI988
aI990
aI992
aI995
aI997
aI998
aI1000
aI1002
aI1005
aI1007
aI1009
aI1010
aI1012
aI1015
aI1016
aI1019
aI1021
aI1023
aI1024
aI1026
aI1029
aI1031
aI1032
aI1034
aI1036
aI1038
aI1040
aI1042
aI1045
aI1046
aI1049
aI1050
aI1052
aI1055
aI1057
aI1059
aI1060
aI1062
aI1065
aI1067
aI1068
aI1070
aI1072
aI1075
aI1076
aI1078
aI1081
aI1083
aI1084
aI1087
aI1089
aI1090
aI1092
aI1095
aI1096
aI1098
aI1100
aI1102
aI1105
aI1106
aI1108
aI1110
aI1113
aI1114
aI1117
aI1119
aI1121
aI1122
aI1124
aI1127
aI1128
aI1130
aI1133
aI1135
aI1136
aI1139
aI1140
aI1143
aI1145
aI1146
aI1148
aI1151
aI1153
aI1155
aI1156
aI1159
aI1160
aI1162
aI1164
aI1167
aI1169
aI1170
aI1172
aI1174
aI1176
aI1179
aI1180
aI1183
aI1184
aI1186
aI1189
aI1190
aI1192
aI1195
aI1197
aI1199
aa(lp334
I1
aI2
aI4
aI7
aI8
aI10
aI12
aI14
aI16
aI18
aI20
aI22
aI24
aI26
aI28
aI31
aI32
aI35
aI37
aI38
aI40
aI43
aI44
aI47
aI48
aI50
aI53
aI55
aI56
aI59
aI60
aI62
aI64
aI66
aI69
aI71
aI72
aI74
aI76
aI79
aI81
aI83
aI85
aI87
aI88
aI91
aI93
aI94
aI97
aI98
aI101
aI102
aI105
aI107
aI109
aI111
aI113
aI115
aI117
aI118
aI120
aI123
aI124
aI126
aI128
aI131
aI133
aI135
aI137
aI138
aI140
aI143
aI144
aI146
aI148
aI151
aI152
aI154
aI157
aI159
aI160
aI162
aI164
aI166
aI169
aI171
aI173
aI175
aI177
aI178
aI180
aI183
aI184
aI186
aI189
aI190
aI193
aI194
aI196
aI198
aI201
aI202
aI204
aI207
aI209
aI211
aI212
aI214
aI216
aI219
aI221
aI222
aI224
aI227
aI228
aI231
aI232
aI234
aI237
aI239
aI240
aI243
aI244
aI247
aI248
aI250
aI253
aI254
aI256
aI259
aI261
aI262
aI264
aI267
aI269
aI271
aI272
aI274
aI276
aI278
aI280
aI283
aI284
aI287
aI289
aI290
aI292
aI294
aI297
aI298
aI301
aI302
aI305
aI307
aI309
aI310
aI312
aI315
aI317
aI319
aI321
aI323
aI325
aI326
aI328
aI330
aI332
aI335
aI336
aI339
aI340
aI343
aI345
aI347
aI348
aI350
aI352
aI354
aI356
aI358
aI361
aI362
aI365
aI366
aI368
aI371
aI372
aI374
aI377
aI378
aI380
aI382
aI384
aI387
aI388
aI390
aI393
aI394
aI396
aI398
aI400
aI403
aI405
aI406
aI409
aI411
aI412
aI415
aI417
aI418
aI421
aI423
aI425
aI427
aI428
aI430
aI432
aI434
aI437
aI439
aI440
aI442
aI444
aI446
aI448
aI451
aI453
aI454
aI456
aI458
aI460
aI463
aI465
aI467
aI469
aI471
aI473
aI475
aI476
aI478
aI480
aI483
aI484
aI487
aI488
aI490
aI492
aI494
aI496
aI498
aI500
aI503
aI504
aI507
aI508
aI510
aI513
aI514
aI516
aI519
aI520
aI523
aI525
aI526
aI529
aI531
aI532
aI534
aI536
aI539
aI541
aI543
aI544
aI546
aI548
aI550
aI552
aI555
aI557
aI559
aI560
aI563
aI565
aI567
aI568
aI570
aI572
aI575
aI576
aI578
aI580
aI583
aI585
aI586
aI588
aI590
aI593
aI594
aI596
aI598
aI600
aI602
aI604
aI607
aI609
aI610
aI613
aI614
aI616
aI618
aI620
aI622
aI625
aI626
aI628
aI630
aI633
aI634
aI636
aI639
aI641
aI643
aI644
aI646
aI648
aI650
aI652
aI654
aI656
aI658
aI660
aI663
aI665
aI666
aI669
aI670
aI673
aI675
aI676
aI679
aI681
aI683
aI684
aI686
aI689
aI690
aI692
aI695
aI697
aI699
aI701
aI702
aI704
aI706
aI709
aI711
aI713
aI715
aI716
aI719
aI721
aI722
aI725
aI726
aI728
aI730
aI732
aI734
aI736
aI738
aI740
aI743
aI744
aI746
aI748
aI750
aI753
aI755
aI757
aI758
aI760
aI763
aI765
aI766
aI769
aI770
aI772
aI774
aI777
aI779
aI781
aI782
aI784
aI786
aI789
aI790
aI792
aI795
aI796
aI799
aI800
aI802
aI805
aI806
aI809
aI811
aI813
aI815
aI816
aI818
aI821
aI822
aI824
aI826
aI828
aI831
aI832
aI834
aI836
aI838
aI840
aI843
aI844
aI846
aI848
aI850
aI853
aI855
aI857
aI858
aI860
aI863
aI865
aI867
aI869
aI871
aI873
aI874
aI876
aI878
aI880
aI883
aI885
aI886
aI889
aI890
aI893
aI895
aI896
aI899
aI900
aI902
aI904
aI906
aI909
aI910
aI912
aI915
aI916
aI918
aI921
aI923
aI925
aI926
aI928
aI931
aI932
aI934
aI937
aI939
aI940
aI943
aI945
aI946
aI948
aI950
aI952
aI954
aI956
aI959
aI961
aI963
aI965
aI966
aI968
aI971
aI972
aI974
aI977
aI978
aI980
aI983
aI984
aI986
aI988
aI990
aI992
aI995
aI997
aI998
aI1000
aI1002
aI1005
aI1007
aI1009
aI1010
aI1012
aI1015
aI1016
aI1019
aI1021
aI1023
aI1024
aI1026
aI1029
aI1031
aI1032
aI1034
aI1036
aI1038
aI1040
aI1042
aI1045
aI1046
aI1049
aI1050
aI1052
aI1055
aI1057
aI1059
aI1060
aI1062
aI1065
aI1067
aI1068
aI1070
aI1072
aI1075
aI1076
aI1078
aI1081
aI1083
aI1084
aI1087
aI1089
aI1090
aI1092
aI1095
aI1096
aI1098
aI1100
aI1102
aI1105
aI1106
aI1108
aI1110
aI1113
aI1114
aI1117
aI1119
aI1121
aI1122
aI1124
aI1127
aI1128
aI1130
aI1133
aI1135
aI1136
aI1139
aI1140
aI1143
aI1145
aI1146
aI1148
aI1151
aI1153
aI1155
aI1156
aI1159
aI1160
aI1162
aI1164
aI1167
aI1169
aI1170
aI1172
aI1174
aI1176
aI1179
aI1180
aI1183
aI1184
aI1186
aI1189
aI1190
aI1192
aI1195
aI1197
aI1199
aa(lp335
I1
aI2
aI4
aI7
aI8
aI10
aI12
aI14
aI16
aI18
aI20
aI22
aI24
aI26
aI28
aI31
aI32
aI35
aI37
aI38
aI40
aI43
aI44
aI47
aI48
aI50
aI53
aI55
aI56
aI59
aI60
aI62
aI64
aI66
aI69
aI71
aI72
aI74
aI76
aI79
aI81
aI83
aI85
aI87
aI88
aI91
aI93
aI94
aI97
aI98
aI101
aI102
aI105
aI107
aI109
aI111
aI113
aI115
aI117
aI118
aI120
aI123
aI124
aI126
aI128
aI131
aI133
aI135
aI137
aI138
aI140
aI143
aI144
aI146
aI148
aI151
aI152
aI155
aI157
aI159
aI160
aI162
aI164
aI166
aI169
aI171
aI173
aI175
aI177
aI178
aI180
aI183
aI184
aI186
aI189
aI190
aI193
aI194
aI196
aI198
aI201
aI202
aI204
aI207
aI209
aI211
aI212
aI214
aI216
aI219
aI221
aI222
aI224
aI227
aI228
aI231
aI232
aI234
aI237
aI239
aI240
aI243
aI244
aI247
aI248
aI250
aI253
aI254
aI256
aI259
aI261
aI262
aI264
aI267
aI269
aI271
aI272
aI274
aI276
aI278
aI280
aI283
aI284
aI287
aI289
aI290
aI292
aI294
aI297
aI298
aI301
aI302
aI305
aI307
aI309
aI310
aI312
aI315
aI317
aI319
aI321
aI323
aI325
aI326
aI328
aI330
aI332
aI335
aI336
aI339
aI340
aI343
aI345
aI347
aI348
aI350
aI352
aI354
aI356
aI358
aI361
aI362
aI365
aI366
aI368
aI371
aI372
aI374
aI377
aI378
aI380
aI382
aI384
aI387
aI388
aI390
aI393
aI394
aI396
aI398
aI400
aI403
aI405
aI406
aI409
aI411
aI412
aI415
aI417
aI418
aI421
aI423
aI425
aI427
aI428
aI430
aI432
aI434
aI437
aI439
aI440
aI442
aI444
aI446
aI448
aI451
aI453
aI454
aI456
aI458
aI460
aI463
aI465
aI467
aI469
aI471
aI473
aI475
aI476
aI478
aI480
aI483
aI484
aI487
aI488
aI490
aI492
aI494
aI496
aI498
aI500
aI503
aI504
aI507
aI508
aI510
aI513
aI514
aI516
aI519
aI520
aI523
aI525
aI526
aI529
aI531
aI532
aI534
aI536
aI539
aI541
aI543
aI544
aI546
aI548
aI550
aI552
aI555
aI557
aI559
aI560
aI563
aI565
aI567
aI568
aI570
aI572
aI575
aI576
aI578
aI580
aI583
aI585
aI586
aI588
aI590
aI593
aI594
aI596
aI598
aI600
aI602
aI604
aI607
aI609
aI610
aI613
aI614
aI616
aI618
aI620
aI622
aI625
aI626
aI628
aI630
aI633
aI634
aI636
aI639
aI641
aI643
aI644
aI646
aI648
aI650
aI652
aI654
aI656
aI658
aI660
aI663
aI665
aI666
aI669
aI670
aI673
aI675
aI676
aI679
aI681
aI683
aI684
aI686
aI689
aI690
aI692
aI695
aI697
aI699
aI701
aI702
aI704
aI706
aI709
aI711
aI713
aI715
aI716
aI719
aI721
aI722
aI725
aI726
aI728
aI730
aI732
aI734
aI736
aI738
aI740
aI743
aI744
aI746
aI748
aI750
aI753
aI755
aI757
aI758
aI760
aI763
aI765
aI766
aI769
aI770
aI772
aI774
aI777
aI779
aI781
aI782
aI784
aI786
aI789
aI790
aI792
aI795
aI796
aI799
aI800
aI802
aI805
aI806
aI809
aI811
aI813
aI815
aI816
aI818
aI821
aI822
aI824
aI826
aI828
aI831
aI832
aI834
aI836
aI838
aI840
aI843
aI844
aI846
aI848
aI850
aI853
aI855
aI857
aI858
aI860
aI863
aI865
aI867
aI869
aI871
aI873
aI874
aI876
aI878
aI880
aI883
aI885
aI886
aI889
aI890
aI893
aI895
aI896
aI899
aI900
aI902
aI904
aI906
aI909
aI910
aI912
aI915
aI916
aI918
aI921
aI923
aI925
aI926
aI928
aI931
aI932
aI934
aI937
aI939
aI940
aI943
aI945
aI946
aI948
aI950
aI952
aI954
aI956
aI959
aI961
aI963
aI965
aI966
aI968
aI971
aI972
aI974
aI977
aI978
aI980
aI983
aI984
aI986
aI988
aI990
aI992
aI995
aI997
aI998
aI1000
aI1002
aI1005
aI1007
aI1009
aI1010
aI1012
aI1015
aI1016
aI1019
aI1021
aI1023
aI1024
aI1026
aI1029
aI1031
aI1032
aI1034
aI1036
aI1038
aI1040
aI1042
aI1045
aI1046
aI1049
aI1050
aI1052
aI1055
aI1057
aI1059
aI1060
aI1062
aI1065
aI1067
aI1068
aI1070
aI1072
aI1075
aI1076
aI1078
aI1081
aI1083
aI1084
aI1087
aI1089
aI1090
aI1092
aI1095
aI1096
aI1098
aI1100
aI1102
aI1105
aI1106
aI1108
aI1110
aI1113
aI1114
aI1117
aI1119
aI1121
aI1122
aI1124
aI1127
aI1128
aI1130
aI1133
aI1135
aI1136
aI1139
aI1140
aI1143
aI1145
aI1146
aI1148
aI1151
aI1153
aI1155
aI1156
aI1159
aI1160
aI1162
aI1164
aI1167
aI1169
aI1170
aI1172
aI1174
aI1176
aI1179
aI1180
aI1183
aI1184
aI1186
aI1189
aI1190
aI1192
aI1195
aI1197
aI1199
aa(lp336
I53
aI177
aI389
aI563
aI1015
aa(lp337
I53
aI681
aI1015
aI1121
aa(lp338
I53
aI177
aI389
aI681
aI1015
aa(lp339
I1
aI2
aI4
aI7
aI8
aI10
aI12
aI14
aI16
aI18
aI20
aI22
aI24
aI26
aI28
aI31
aI32
aI35
aI37
aI38
aI40
aI43
aI44
aI47
aI48
aI50
aI53
aI55
aI56
aI59
aI60
aI62
aI64
aI66
aI69
aI71
aI72
aI74
aI76
aI79
aI81
aI83
aI85
aI87
aI88
aI91
aI93
aI94
aI97
aI98
aI101
aI102
aI105
aI107
aI109
aI111
aI113
aI115
aI117
aI118
aI120
aI123
aI124
aI126
aI128
aI131
aI133
aI135
aI137
aI138
aI140
aI143
aI144
aI146
aI148
aI151
aI152
aI155
aI157
aI159
aI160
aI162
aI164
aI166
aI169
aI171
aI173
aI175
aI177
aI178
aI180
aI183
aI184
aI186
aI189
aI190
aI193
aI194
aI196
aI198
aI201
aI202
aI204
aI207
aI209
aI211
aI212
aI214
aI216
aI219
aI221
aI222
aI224
aI227
aI228
aI231
aI232
aI234
aI237
aI239
aI240
aI243
aI244
aI247
aI248
aI250
aI253
aI254
aI256
aI259
aI261
aI262
aI264
aI267
aI269
aI271
aI272
aI274
aI276
aI278
aI280
aI283
aI284
aI287
aI289
aI290
aI292
aI294
aI297
aI298
aI301
aI302
aI305
aI307
aI309
aI310
aI312
aI315
aI317
aI319
aI321
aI323
aI325
aI326
aI328
aI330
aI332
aI335
aI336
aI339
aI340
aI343
aI345
aI347
aI348
aI350
aI352
aI354
aI356
aI358
aI361
aI362
aI365
aI366
aI368
aI371
aI372
aI374
aI377
aI378
aI380
aI382
aI384
aI387
aI388
aI390
aI393
aI394
aI396
aI398
aI400
aI403
aI405
aI406
aI409
aI411
aI412
aI415
aI417
aI418
aI421
aI423
aI425
aI427
aI428
aI430
aI432
aI434
aI437
aI439
aI440
aI442
aI444
aI446
aI448
aI451
aI453
aI454
aI456
aI458
aI460
aI463
aI465
aI467
aI469
aI471
aI473
aI475
aI476
aI478
aI480
aI483
aI484
aI487
aI488
aI490
aI492
aI494
aI496
aI498
aI500
aI503
aI504
aI507
aI508
aI510
aI513
aI514
aI516
aI519
aI520
aI523
aI525
aI526
aI529
aI531
aI532
aI534
aI536
aI539
aI541
aI543
aI544
aI546
aI548
aI550
aI552
aI555
aI557
aI559
aI560
aI562
aI565
aI567
aI568
aI570
aI572
aI575
aI576
aI578
aI580
aI583
aI585
aI586
aI588
aI590
aI593
aI594
aI596
aI598
aI600
aI602
aI604
aI607
aI609
aI610
aI613
aI614
aI616
aI618
aI620
aI622
aI625
aI626
aI628
aI630
aI633
aI634
aI636
aI639
aI641
aI643
aI644
aI646
aI648
aI650
aI652
aI654
aI656
aI658
aI660
aI663
aI665
aI666
aI669
aI670
aI673
aI675
aI676
aI679
aI681
aI683
aI684
aI686
aI689
aI690
aI692
aI695
aI697
aI699
aI701
aI702
aI704
aI706
aI709
aI711
aI713
aI715
aI716
aI719
aI721
aI722
aI725
aI726
aI728
aI730
aI732
aI734
aI736
aI738
aI740
aI743
aI744
aI746
aI748
aI750
aI753
aI755
aI757
aI758
aI760
aI763
aI765
aI766
aI769
aI770
aI772
aI774
aI777
aI779
aI781
aI782
aI784
aI786
aI789
aI790
aI792
aI795
aI796
aI799
aI800
aI802
aI805
aI806
aI809
aI811
aI813
aI815
aI816
aI818
aI821
aI822
aI824
aI826
aI828
aI831
aI832
aI834
aI836
aI838
aI840
aI843
aI844
aI846
aI848
aI850
aI853
aI855
aI857
aI858
aI860
aI863
aI865
aI867
aI869
aI871
aI873
aI874
aI876
aI878
aI880
aI883
aI885
aI886
aI889
aI890
aI893
aI895
aI896
aI899
aI900
aI902
aI904
aI906
aI909
aI910
aI912
aI915
aI916
aI918
aI921
aI923
aI925
aI926
aI928
aI931
aI932
aI934
aI937
aI939
aI940
aI943
aI945
aI946
aI948
aI950
aI952
aI954
aI956
aI959
aI961
aI963
aI965
aI966
aI968
aI971
aI972
aI974
aI977
aI978
aI980
aI983
aI984
aI986
aI988
aI990
aI992
aI995
aI997
aI998
aI1000
aI1002
aI1005
aI1007
aI1009
aI1010
aI1012
aI1015
aI1016
aI1019
aI1021
aI1023
aI1024
aI1026
aI1029
aI1031
aI1032
aI1034
aI1036
aI1038
aI1040
aI1042
aI1045
aI1046
aI1049
aI1050
aI1052
aI1055
aI1057
aI1059
aI1060
aI1062
aI1065
aI1067
aI1068
aI1070
aI1072
aI1075
aI1076
aI1078
aI1081
aI1083
aI1084
aI1087
aI1089
aI1090
aI1092
aI1095
aI1096
aI1098
aI1100
aI1102
aI1105
aI1106
aI1108
aI1110
aI1113
aI1114
aI1117
aI1119
aI1120
aI1122
aI1124
aI1127
aI1128
aI1130
aI1133
aI1135
aI1136
aI1139
aI1140
aI1143
aI1145
aI1146
aI1148
aI1151
aI1153
aI1155
aI1156
aI1159
aI1160
aI1162
aI1164
aI1167
aI1169
aI1170
aI1172
aI1174
aI1176
aI1179
aI1180
aI1183
aI1184
aI1186
aI1189
aI1190
aI1192
aI1195
aI1197
aI1199
aa(lp340
I1
aI2
aI4
aI7
aI8
aI10
aI12
aI14
aI16
aI18
aI20
aI22
aI24
aI26
aI28
aI31
aI32
aI35
aI37
aI38
aI40
aI43
aI44
aI47
aI48
aI50
aI53
aI55
aI56
aI59
aI60
aI62
aI64
aI66
aI69
aI71
aI72
aI74
aI76
aI79
aI81
aI83
aI85
aI87
aI88
aI91
aI93
aI94
aI97
aI98
aI101
aI102
aI105
aI107
aI109
aI111
aI113
aI115
aI117
aI118
aI120
aI123
aI124
aI126
aI128
aI131
aI133
aI135
aI137
aI138
aI140
aI143
aI144
aI146
aI148
aI151
aI152
aI155
aI157
aI159
aI160
aI162
aI164
aI166
aI169
aI171
aI173
aI175
aI177
aI178
aI180
aI183
aI184
aI186
aI189
aI190
aI193
aI194
aI196
aI198
aI201
aI202
aI204
aI207
aI209
aI211
aI212
aI214
aI216
aI219
aI221
aI222
aI224
aI227
aI228
aI231
aI232
aI234
aI237
aI239
aI240
aI243
aI244
aI247
aI248
aI250
aI253
aI254
aI256
aI259
aI261
aI262
aI264
aI267
aI269
aI271
aI272
aI274
aI276
aI278
aI280
aI283
aI284
aI287
aI289
aI290
aI292
aI294
aI297
aI298
aI301
aI302
aI305
aI307
aI309
aI310
aI312
aI315
aI317
aI319
aI321
aI323
aI325
aI326
aI328
aI330
aI332
aI335
aI336
aI339
aI340
aI343
aI345
aI347
aI348
aI350
aI352
aI354
aI356
aI358
aI361
aI362
aI365
aI366
aI368
aI371
aI372
aI374
aI377
aI378
aI380
aI382
aI384
aI387
aI388
aI390
aI393
aI394
aI396
aI398
aI400
aI402
aI405
aI406
aI409
aI411
aI412
aI415
aI417
aI418
aI421
aI423
aI425
aI427
aI428
aI430
aI432
aI434
aI437
aI439
aI440
aI442
aI444
aI446
aI448
aI451
aI453
aI454
aI456
aI458
aI460
aI463
aI465
aI467
aI469
aI471
aI473
aI475
aI476
aI478
aI480
aI483
aI484
aI487
aI488
aI490
aI492
aI494
aI496
aI498
aI500
aI503
aI504
aI507
aI508
aI510
aI513
aI514
aI516
aI519
aI520
aI523
aI525
aI526
aI529
aI531
aI532
aI534
aI536
aI539
aI541
aI543
aI544
aI546
aI548
aI550
aI552
aI555
aI557
aI559
aI560
aI562
aI565
aI567
aI568
aI570
aI572
aI575
aI576
aI578
aI580
aI583
aI585
aI586
aI588
aI590
aI593
aI594
aI596
aI598
aI600
aI602
aI604
aI607
aI609
aI610
aI613
aI614
aI616
aI618
aI620
aI622
aI625
aI626
aI628
aI630
aI633
aI634
aI636
aI639
aI641
aI643
aI644
aI646
aI648
aI650
aI652
aI654
aI656
aI658
aI660
aI663
aI665
aI666
aI669
aI670
aI673
aI675
aI676
aI679
aI681
aI683
aI684
aI686
aI689
aI690
aI692
aI695
aI697
aI699
aI701
aI702
aI704
aI706
aI709
aI711
aI713
aI715
aI716
aI719
aI721
aI722
aI725
aI726
aI728
aI730
aI732
aI734
aI736
aI738
aI740
aI743
aI744
aI746
aI748
aI750
aI753
aI755
aI757
aI758
aI760
aI763
aI765
aI766
aI769
aI770
aI772
aI774
aI777
aI779
aI781
aI782
aI784
aI786
aI789
aI790
aI792
aI795
aI796
aI799
aI800
aI802
aI805
aI806
aI809
aI811
aI813
aI815
aI816
aI818
aI821
aI822
aI824
aI826
aI828
aI831
aI832
aI834
aI836
aI838
aI840
aI843
aI844
aI846
aI848
aI850
aI853
aI855
aI857
aI858
aI860
aI863
aI865
aI867
aI869
aI871
aI873
aI874
aI876
aI878
aI880
aI883
aI885
aI886
aI889
aI890
aI893
aI895
aI896
aI899
aI900
aI902
aI904
aI906
aI909
aI910
aI912
aI915
aI916
aI918
aI921
aI923
aI925
aI926
aI928
aI931
aI932
aI934
aI937
aI939
aI940
aI943
aI945
aI946
aI948
aI950
aI952
aI954
aI956
aI959
aI961
aI963
aI965
aI966
aI968
aI971
aI972
aI974
aI977
aI978
aI980
aI983
aI984
aI986
aI988
aI990
aI992
aI995
aI997
aI998
aI1000
aI1002
aI1005
aI1007
aI1009
aI1010
aI1012
aI1015
aI1016
aI1019
aI1021
aI1023
aI1024
aI1026
aI1029
aI1031
aI1032
aI1034
aI1036
aI1038
aI1040
aI1042
aI1045
aI1046
aI1049
aI1050
aI1052
aI1055
aI1057
aI1059
aI1060
aI1062
aI1065
aI1067
aI1068
aI1070
aI1072
aI1075
aI1076
aI1078
aI1081
aI1083
aI1084
aI1087
aI1089
aI1090
aI1092
aI1095
aI1096
aI1098
aI1100
aI1102
aI1105
aI1106
aI1108
aI1110
aI1113
aI1114
aI1117
aI1119
aI1120
aI1122
aI1124
aI1127
aI1128
aI1130
aI1133
aI1135
aI1136
aI1139
aI1140
aI1143
aI1145
aI1146
aI1148
aI1151
aI1153
aI1155
aI1156
aI1159
aI1160
aI1162
aI1164
aI1167
aI1169
aI1170
aI1172
aI1174
aI1176
aI1179
aI1180
aI1183
aI1184
aI1186
aI1189
aI1190
aI1192
aI1195
aI1197
aI1199
aa(lp341
I301
aI357
aI681
aa(lp342
I1
aI2
aI4
aI7
aI8
aI10
aI12
aI14
aI16
aI18
aI20
aI22
aI24
aI26
aI28
aI31
aI32
aI35
aI37
aI38
aI40
aI43
aI44
aI47
aI48
aI50
aI53
aI55
aI56
aI59
aI60
aI62
aI64
aI66
aI69
aI71
aI72
aI74
aI76
aI79
aI81
aI83
aI85
aI87
aI88
aI91
aI93
aI94
aI97
aI98
aI101
aI102
aI105
aI107
aI109
aI111
aI113
aI115
aI117
aI118
aI120
aI123
aI124
aI126
aI128
aI131
aI133
aI135
aI137
aI138
aI140
aI143
aI144
aI146
aI148
aI151
aI152
aI155
aI157
aI159
aI160
aI162
aI164
aI166
aI169
aI171
aI173
aI175
aI177
aI178
aI180
aI183
aI184
aI186
aI189
aI190
aI193
aI194
aI196
aI198
aI201
aI202
aI204
aI207
aI209
aI211
aI212
aI214
aI216
aI219
aI221
aI222
aI224
aI227
aI228
aI231
aI232
aI234
aI237
aI239
aI240
aI243
aI244
aI247
aI248
aI250
aI253
aI254
aI256
aI259
aI261
aI262
aI264
aI267
aI269
aI271
aI272
aI274
aI276
aI278
aI280
aI283
aI284
aI287
aI289
aI290
aI292
aI294
aI297
aI298
aI301
aI302
aI305
aI307
aI309
aI310
aI312
aI315
aI317
aI319
aI321
aI323
aI325
aI326
aI328
aI330
aI332
aI335
aI336
aI339
aI340
aI343
aI345
aI347
aI348
aI350
aI352
aI354
aI356
aI358
aI361
aI362
aI365
aI366
aI368
aI371
aI372
aI374
aI377
aI378
aI380
aI382
aI384
aI387
aI388
aI390
aI393
aI394
aI396
aI398
aI400
aI402
aI405
aI406
aI409
aI411
aI412
aI415
aI417
aI418
aI421
aI423
aI425
aI427
aI428
aI430
aI432
aI434
aI437
aI439
aI440
aI442
aI444
aI446
aI448
aI451
aI453
aI454
aI456
aI458
aI460
aI463
aI465
aI467
aI469
aI471
aI473
aI475
aI476
aI478
aI480
aI483
aI484
aI487
aI488
aI490
aI492
aI494
aI496
aI498
aI500
aI503
aI504
aI507
aI508
aI510
aI513
aI514
aI516
aI519
aI520
aI523
aI525
aI526
aI529
aI531
aI532
aI534
aI536
aI539
aI541
aI543
aI544
aI546
aI548
aI550
aI552
aI555
aI557
aI559
aI560
aI562
aI565
aI567
aI568
aI570
aI572
aI575
aI576
aI578
aI580
aI583
aI585
aI586
aI588
aI590
aI593
aI594
aI596
aI598
aI600
aI602
aI604
aI607
aI609
aI610
aI613
aI614
aI616
aI618
aI620
aI622
aI625
aI626
aI628
aI630
aI633
aI634
aI636
aI639
aI641
aI643
aI644
aI646
aI648
aI650
aI652
aI654
aI656
aI658
aI660
aI663
aI665
aI666
aI669
aI670
aI673
aI675
aI676
aI679
aI681
aI683
aI684
aI686
aI689
aI690
aI692
aI695
aI697
aI699
aI701
aI702
aI704
aI706
aI709
aI711
aI713
aI715
aI716
aI719
aI721
aI722
aI725
aI726
aI728
aI730
aI732
aI734
aI736
aI738
aI740
aI743
aI744
aI746
aI748
aI750
aI753
aI755
aI757
aI758
aI760
aI763
aI765
aI766
aI769
aI770
aI772
aI774
aI777
aI779
aI781
aI782
aI784
aI786
aI789
aI790
aI792
aI795
aI796
aI799
aI800
aI802
aI805
aI806
aI809
aI811
aI813
aI815
aI816
aI818
aI821
aI822
aI824
aI826
aI828
aI831
aI833
aI834
aI836
aI838
aI840
aI843
aI844
aI846
aI848
aI850
aI853
aI855
aI857
aI858
aI860
aI863
aI865
aI867
aI869
aI871
aI873
aI874
aI876
aI878
aI880
aI883
aI885
aI886
aI889
aI890
aI893
aI895
aI896
aI899
aI900
aI902
aI904
aI906
aI909
aI910
aI912
aI915
aI916
aI918
aI921
aI923
aI925
aI926
aI928
aI931
aI932
aI934
aI937
aI939
aI940
aI943
aI945
aI946
aI948
aI950
aI952
aI954
aI956
aI959
aI961
aI963
aI965
aI966
aI968
aI971
aI972
aI974
aI977
aI978
aI980
aI983
aI984
aI986
aI988
aI990
aI992
aI995
aI997
aI998
aI1000
aI1002
aI1005
aI1007
aI1009
aI1010
aI1012
aI1015
aI1016
aI1019
aI1021
aI1023
aI1024
aI1026
aI1029
aI1031
aI1032
aI1034
aI1036
aI1038
aI1040
aI1042
aI1045
aI1046
aI1049
aI1050
aI1052
aI1055
aI1057
aI1059
aI1060
aI1062
aI1065
aI1067
aI1068
aI1070
aI1072
aI1075
aI1076
aI1078
aI1081
aI1083
aI1084
aI1087
aI1089
aI1090
aI1092
aI1095
aI1096
aI1098
aI1100
aI1102
aI1105
aI1106
aI1108
aI1110
aI1113
aI1114
aI1117
aI1119
aI1120
aI1122
aI1124
aI1127
aI1128
aI1130
aI1133
aI1135
aI1136
aI1139
aI1140
aI1143
aI1145
aI1146
aI1148
aI1151
aI1153
aI1155
aI1156
aI1159
aI1160
aI1162
aI1164
aI1167
aI1169
aI1170
aI1172
aI1174
aI1176
aI1179
aI1180
aI1183
aI1184
aI1186
aI1189
aI1190
aI1192
aI1195
aI1197
aI1199
aa(lp343
I177
aI427
aI833
aa(lp344
I1
aI2
aI4
aI7
aI8
aI10
aI12
aI14
aI16
aI18
aI20
aI22
aI24
aI26
aI28
aI31
aI32
aI35
aI37
aI38
aI40
aI43
aI44
aI47
aI48
aI50
aI53
aI55
aI56
aI59
aI60
aI62
aI64
aI66
aI69
aI71
aI72
aI74
aI76
aI79
aI81
aI83
aI85
aI87
aI88
aI91
aI93
aI94
aI97
aI98
aI101
aI102
aI105
aI107
aI109
aI111
aI113
aI115
aI117
aI118
aI120
aI123
aI124
aI126
aI128
aI131
aI133
aI135
aI137
aI138
aI140
aI143
aI144
aI146
aI148
aI151
aI152
aI155
aI157
aI159
aI160
aI162
aI164
aI166
aI169
aI171
aI173
aI175
aI177
aI178
aI180
aI183
aI184
aI186
aI189
aI190
aI193
aI194
aI196
aI198
aI201
aI202
aI204
aI207
aI209
aI211
aI212
aI214
aI216
aI218
aI221
aI222
aI224
aI227
aI228
aI231
aI232
aI234
aI237
aI239
aI240
aI243
aI244
aI247
aI248
aI250
aI253
aI254
aI256
aI259
aI261
aI262
aI264
aI267
aI269
aI271
aI272
aI274
aI276
aI278
aI280
aI283
aI284
aI287
aI289
aI290
aI292
aI294
aI297
aI298
aI301
aI302
aI305
aI307
aI309
aI310
aI312
aI315
aI317
aI319
aI321
aI323
aI325
aI326
aI328
aI330
aI332
aI335
aI336
aI339
aI340
aI343
aI345
aI347
aI348
aI350
aI352
aI354
aI356
aI358
aI361
aI362
aI365
aI366
aI368
aI371
aI372
aI374
aI377
aI378
aI380
aI382
aI384
aI387
aI388
aI390
aI393
aI394
aI396
aI398
aI400
aI402
aI405
aI406
aI409
aI411
aI412
aI415
aI417
aI418
aI421
aI423
aI425
aI427
aI428
aI430
aI432
aI434
aI437
aI439
aI440
aI442
aI444
aI446
aI448
aI451
aI453
aI454
aI456
aI458
aI460
aI463
aI465
aI467
aI469
aI471
aI473
aI475
aI476
aI478
aI480
aI483
aI484
aI487
aI488
aI490
aI492
aI494
aI496
aI498
aI500
aI503
aI504
aI507
aI508
aI510
aI513
aI514
aI516
aI519
aI520
aI523
aI525
aI526
aI529
aI531
aI532
aI534
aI536
aI539
aI541
aI543
aI544
aI546
aI548
aI550
aI552
aI555
aI557
aI559
aI560
aI562
aI565
aI567
aI568
aI570
aI572
aI575
aI576
aI578
aI580
aI583
aI585
aI586
aI588
aI590
aI593
aI594
aI596
aI598
aI600
aI602
aI604
aI607
aI609
aI610
aI613
aI614
aI616
aI618
aI620
aI622
aI625
aI626
aI628
aI630
aI633
aI634
aI636
aI639
aI641
aI643
aI644
aI646
aI648
aI650
aI652
aI654
aI656
aI658
aI660
aI663
aI665
aI666
aI669
aI670
aI673
aI675
aI676
aI679
aI681
aI683
aI684
aI686
aI689
aI690
aI692
aI695
aI697
aI699
aI701
aI702
aI704
aI706
aI709
aI711
aI713
aI715
aI716
aI719
aI721
aI722
aI725
aI726
aI728
aI730
aI732
aI734
aI736
aI738
aI740
aI743
aI744
aI746
aI748
aI750
aI753
aI755
aI757
aI758
aI760
aI763
aI765
aI766
aI769
aI770
aI772
aI774
aI777
aI779
aI781
aI782
aI784
aI786
aI789
aI790
aI792
aI795
aI796
aI799
aI800
aI802
aI805
aI806
aI809
aI811
aI813
aI815
aI816
aI818
aI821
aI822
aI824
aI826
aI828
aI831
aI832
aI834
aI836
aI838
aI840
aI843
aI844
aI846
aI848
aI850
aI853
aI855
aI857
aI858
aI860
aI863
aI865
aI867
aI869
aI871
aI873
aI874
aI876
aI878
aI880
aI883
aI885
aI886
aI889
aI890
aI893
aI895
aI896
aI899
aI900
aI902
aI904
aI906
aI909
aI910
aI912
aI915
aI916
aI918
aI921
aI923
aI925
aI926
aI928
aI931
aI932
aI934
aI937
aI939
aI940
aI943
aI945
aI946
aI948
aI950
aI952
aI954
aI956
aI959
aI961
aI963
aI965
aI966
aI968
aI971
aI972
aI974
aI977
aI978
aI980
aI983
aI984
aI986
aI988
aI990
aI992
aI995
aI997
aI998
aI1000
aI1002
aI1005
aI1007
aI1009
aI1010
aI1012
aI1015
aI1016
aI1019
aI1021
aI1023
aI1024
aI1026
aI1029
aI1031
aI1032
aI1034
aI1036
aI1038
aI1040
aI1042
aI1045
aI1046
aI1049
aI1050
aI1052
aI1055
aI1057
aI1059
aI1060
aI1062
aI1065
aI1067
aI1068
aI1070
aI1072
aI1075
aI1076
aI1078
aI1081
aI1083
aI1084
aI1087
aI1089
aI1090
aI1092
aI1095
aI1096
aI1098
aI1100
aI1102
aI1105
aI1106
aI1108
aI1110
aI1113
aI1114
aI1117
aI1119
aI1120
aI1122
aI1124
aI1127
aI1128
aI1130
aI1133
aI1135
aI1136
aI1139
aI1140
aI1143
aI1145
aI1146
aI1148
aI1151
aI1153
aI1155
aI1156
aI1159
aI1160
aI1162
aI1164
aI1167
aI1169
aI1170
aI1172
aI1174
aI1176
aI1179
aI1180
aI1183
aI1184
aI1186
aI1189
aI1190
aI1192
aI1195
aI1197
aI1199
aa(lp345
I1
aI2
aI4
aI7
aI8
aI10
aI12
aI14
aI16
aI18
aI20
aI22
aI24
aI26
aI28
aI31
aI32
aI35
aI37
aI38
aI40
aI43
aI44
aI47
aI48
aI50
aI53
aI55
aI56
aI59
aI60
aI62
aI64
aI66
aI69
aI71
aI72
aI74
aI76
aI79
aI81
aI83
aI85
aI87
aI88
aI91
aI93
aI94
aI97
aI98
aI101
aI102
aI105
aI107
aI109
aI111
aI113
aI115
aI117
aI118
aI120
aI123
aI124
aI126
aI128
aI131
aI133
aI135
aI137
aI138
aI140
aI143
aI144
aI146
aI148
aI151
aI152
aI155
aI157
aI159
aI160
aI162
aI164
aI166
aI169
aI171
aI173
aI175
aI177
aI178
aI180
aI183
aI184
aI186
aI188
aI190
aI193
aI194
aI196
aI198
aI201
aI202
aI204
aI207
aI209
aI211
aI212
aI214
aI216
aI218
aI221
aI222
aI224
aI227
aI228
aI231
aI232
aI234
aI237
aI239
aI240
aI243
aI244
aI247
aI248
aI250
aI253
aI254
aI256
aI259
aI261
aI262
aI264
aI267
aI269
aI271
aI272
aI274
aI276
aI278
aI280
aI283
aI284
aI287
aI289
aI290
aI292
aI294
aI297
aI298
aI301
aI302
aI305
aI307
aI309
aI310
aI312
aI315
aI317
aI319
aI321
aI323
aI325
aI326
aI328
aI330
aI332
aI335
aI336
aI339
aI340
aI343
aI345
aI347
aI348
aI350
aI352
aI354
aI356
aI358
aI361
aI362
aI365
aI366
aI368
aI371
aI372
aI374
aI377
aI378
aI380
aI382
aI384
aI387
aI388
aI390
aI393
aI394
aI396
aI398
aI400
aI402
aI405
aI406
aI409
aI411
aI412
aI415
aI417
aI418
aI421
aI423
aI425
aI427
aI428
aI430
aI432
aI434
aI437
aI439
aI440
aI442
aI444
aI446
aI448
aI451
aI453
aI454
aI456
aI458
aI460
aI463
aI465
aI467
aI469
aI471
aI473
aI475
aI476
aI478
aI480
aI483
aI484
aI487
aI488
aI490
aI492
aI494
aI496
aI498
aI500
aI503
aI504
aI507
aI508
aI510
aI513
aI514
aI516
aI519
aI520
aI523
aI525
aI526
aI529
aI531
aI532
aI534
aI536
aI539
aI541
aI543
aI544
aI546
aI548
aI550
aI552
aI555
aI557
aI559
aI560
aI562
aI565
aI567
aI568
aI570
aI572
aI575
aI576
aI578
aI580
aI583
aI585
aI586
aI588
aI590
aI593
aI594
aI596
aI598
aI600
aI602
aI604
aI607
aI609
aI610
aI613
aI614
aI616
aI618
aI620
aI622
aI625
aI626
aI628
aI630
aI633
aI634
aI636
aI639
aI641
aI643
aI644
aI646
aI648
aI650
aI652
aI654
aI656
aI658
aI660
aI663
aI665
aI666
aI669
aI670
aI673
aI675
aI676
aI679
aI681
aI683
aI684
aI686
aI689
aI690
aI692
aI695
aI697
aI699
aI701
aI702
aI704
aI706
aI709
aI711
aI713
aI715
aI716
aI719
aI721
aI722
aI725
aI726
aI728
aI730
aI732
aI734
aI736
aI738
aI740
aI743
aI744
aI746
aI748
aI750
aI753
aI755
aI757
aI758
aI760
aI763
aI765
aI766
aI769
aI770
aI772
aI774
aI777
aI779
aI781
aI782
aI784
aI786
aI789
aI790
aI792
aI795
aI796
aI799
aI800
aI802
aI805
aI806
aI809
aI811
aI813
aI815
aI816
aI818
aI821
aI822
aI824
aI826
aI828
aI831
aI832
aI834
aI836
aI838
aI840
aI843
aI844
aI846
aI848
aI850
aI853
aI855
aI857
aI858
aI860
aI863
aI865
aI867
aI869
aI871
aI873
aI874
aI876
aI878
aI880
aI883
aI885
aI886
aI889
aI890
aI893
aI895
aI896
aI899
aI900
aI902
aI904
aI906
aI909
aI910
aI912
aI915
aI916
aI918
aI921
aI923
aI925
aI926
aI928
aI931
aI932
aI934
aI937
aI939
aI940
aI943
aI945
aI946
aI948
aI950
aI952
aI954
aI956
aI959
aI961
aI963
aI965
aI966
aI968
aI971
aI972
aI974
aI977
aI978
aI980
aI983
aI984
aI986
aI988
aI990
aI992
aI995
aI997
aI998
aI1000
aI1002
aI1005
aI1007
aI1009
aI1010
aI1012
aI1015
aI1016
aI1019
aI1021
aI1023
aI1024
aI1026
aI1029
aI1031
aI1032
aI1034
aI1036
aI1038
aI1040
aI1042
aI1045
aI1046
aI1049
aI1050
aI1052
aI1055
aI1057
aI1059
aI1060
aI1062
aI1065
aI1067
aI1068
aI1070
aI1072
aI1075
aI1076
aI1078
aI1081
aI1083
aI1084
aI1087
aI1089
aI1090
aI1092
aI1095
aI1096
aI1098
aI1100
aI1102
aI1105
aI1106
aI1108
aI1110
aI1113
aI1114
aI1117
aI1119
aI1120
aI1122
aI1124
aI1127
aI1128
aI1130
aI1133
aI1135
aI1136
aI1139
aI1140
aI1143
aI1145
aI1146
aI1148
aI1151
aI1153
aI1155
aI1156
aI1159
aI1160
aI1162
aI1164
aI1167
aI1169
aI1170
aI1172
aI1174
aI1176
aI1179
aI1180
aI1183
aI1184
aI1186
aI1189
aI1190
aI1192
aI1195
aI1197
aI1199
aa(lp346
I1
aI2
aI4
aI7
aI8
aI10
aI12
aI14
aI16
aI18
aI20
aI22
aI24
aI26
aI28
aI31
aI32
aI35
aI37
aI38
aI40
aI43
aI44
aI47
aI48
aI50
aI53
aI55
aI56
aI59
aI60
aI62
aI64
aI66
aI69
aI71
aI72
aI74
aI76
aI79
aI81
aI83
aI85
aI87
aI88
aI91
aI93
aI94
aI97
aI98
aI101
aI102
aI105
aI107
aI109
aI111
aI113
aI115
aI117
aI118
aI120
aI123
aI124
aI126
aI128
aI131
aI133
aI135
aI137
aI138
aI140
aI143
aI144
aI146
aI148
aI151
aI152
aI155
aI157
aI159
aI160
aI162
aI164
aI166
aI169
aI171
aI173
aI175
aI177
aI178
aI180
aI183
aI184
aI186
aI188
aI190
aI193
aI194
aI196
aI198
aI201
aI202
aI204
aI207
aI209
aI211
aI212
aI214
aI216
aI218
aI221
aI222
aI224
aI227
aI228
aI231
aI232
aI234
aI237
aI239
aI240
aI243
aI244
aI247
aI248
aI250
aI253
aI254
aI256
aI259
aI261
aI262
aI264
aI267
aI269
aI271
aI272
aI274
aI276
aI278
aI280
aI283
aI284
aI287
aI289
aI290
aI292
aI294
aI297
aI298
aI301
aI302
aI305
aI307
aI309
aI310
aI312
aI315
aI317
aI319
aI321
aI323
aI325
aI326
aI328
aI330
aI332
aI335
aI336
aI339
aI340
aI343
aI345
aI347
aI348
aI350
aI352
aI354
aI356
aI358
aI361
aI362
aI365
aI366
aI368
aI371
aI372
aI374
aI377
aI378
aI380
aI382
aI384
aI387
aI388
aI390
aI393
aI394
aI396
aI398
aI400
aI402
aI405
aI406
aI409
aI411
aI412
aI415
aI417
aI418
aI421
aI423
aI425
aI427
aI428
aI430
aI432
aI434
aI437
aI439
aI440
aI442
aI444
aI446
aI448
aI451
aI453
aI454
aI456
aI458
aI460
aI463
aI465
aI467
aI469
aI471
aI473
aI475
aI476
aI478
aI480
aI483
aI484
aI487
aI488
aI490
aI492
aI494
aI496
aI498
aI500
aI503
aI504
aI507
aI508
aI510
aI513
aI514
aI516
aI519
aI520
aI523
aI525
aI526
aI529
aI531
aI532
aI534
aI536
aI539
aI541
aI543
aI544
aI546
aI548
aI550
aI552
aI555
aI557
aI559
aI560
aI562
aI565
aI567
aI568
aI570
aI572
aI575
aI576
aI578
aI580
aI583
aI585
aI586
aI588
aI590
aI593
aI594
aI596
aI598
aI600
aI602
aI604
aI607
aI609
aI610
aI613
aI614
aI616
aI618
aI620
aI622
aI625
aI626
aI628
aI630
aI633
aI634
aI636
aI639
aI641
aI643
aI644
aI646
aI648
aI650
aI652
aI654
aI656
aI658
aI660
aI663
aI665
aI666
aI669
aI670
aI673
aI675
aI676
aI679
aI681
aI683
aI684
aI686
aI689
aI690
aI692
aI695
aI697
aI699
aI701
aI702
aI704
aI706
aI709
aI711
aI713
aI715
aI716
aI719
aI721
aI722
aI725
aI726
aI728
aI730
aI732
aI734
aI736
aI738
aI740
aI743
aI744
aI746
aI748
aI750
aI753
aI755
aI757
aI758
aI760
aI763
aI765
aI766
aI769
aI770
aI772
aI774
aI777
aI779
aI781
aI782
aI784
aI786
aI789
aI790
aI792
aI795
aI796
aI799
aI800
aI802
aI805
aI806
aI809
aI811
aI813
aI815
aI816
aI818
aI821
aI822
aI824
aI826
aI828
aI831
aI832
aI834
aI836
aI838
aI840
aI843
aI844
aI846
aI848
aI850
aI853
aI855
aI857
aI858
aI860
aI863
aI865
aI867
aI869
aI871
aI873
aI874
aI876
aI878
aI880
aI883
aI885
aI886
aI889
aI890
aI893
aI895
aI896
aI899
aI900
aI902
aI904
aI906
aI909
aI910
aI912
aI915
aI916
aI918
aI921
aI923
aI925
aI926
aI928
aI931
aI932
aI934
aI937
aI939
aI940
aI943
aI945
aI946
aI948
aI950
aI952
aI954
aI956
aI959
aI961
aI963
aI965
aI966
aI968
aI971
aI972
aI974
aI977
aI978
aI980
aI983
aI984
aI986
aI988
aI990
aI992
aI995
aI997
aI998
aI1000
aI1002
aI1005
aI1007
aI1009
aI1010
aI1012
aI1015
aI1016
aI1019
aI1021
aI1023
aI1024
aI1026
aI1029
aI1031
aI1032
aI1035
aI1036
aI1038
aI1040
aI1042
aI1045
aI1046
aI1049
aI1050
aI1052
aI1055
aI1057
aI1059
aI1060
aI1062
aI1065
aI1067
aI1068
aI1070
aI1072
aI1075
aI1076
aI1078
aI1081
aI1083
aI1084
aI1087
aI1089
aI1090
aI1092
aI1095
aI1096
aI1098
aI1100
aI1102
aI1105
aI1106
aI1108
aI1110
aI1113
aI1114
aI1117
aI1119
aI1120
aI1122
aI1124
aI1127
aI1128
aI1130
aI1133
aI1135
aI1136
aI1139
aI1140
aI1143
aI1145
aI1146
aI1148
aI1151
aI1153
aI1155
aI1156
aI1159
aI1160
aI1162
aI1164
aI1167
aI1169
aI1170
aI1172
aI1174
aI1176
aI1179
aI1180
aI1183
aI1184
aI1186
aI1189
aI1190
aI1192
aI1195
aI1197
aI1199
aa(lp347
I1
aI2
aI4
aI7
aI8
aI10
aI12
aI14
aI16
aI18
aI20
aI22
aI24
aI26
aI28
aI31
aI32
aI35
aI37
aI38
aI40
aI43
aI44
aI47
aI48
aI50
aI53
aI55
aI56
aI59
aI60
aI62
aI64
aI66
aI69
aI71
aI72
aI74
aI76
aI79
aI81
aI83
aI85
aI87
aI88
aI91
aI93
aI94
aI97
aI98
aI101
aI102
aI105
aI107
aI109
aI111
aI113
aI115
aI117
aI118
aI120
aI123
aI124
aI126
aI128
aI131
aI133
aI135
aI137
aI138
aI140
aI143
aI144
aI146
aI148
aI151
aI152
aI155
aI157
aI159
aI160
aI162
aI164
aI166
aI169
aI171
aI173
aI175
aI177
aI178
aI180
aI183
aI184
aI186
aI188
aI190
aI193
aI194
aI196
aI198
aI201
aI202
aI204
aI207
aI209
aI211
aI212
aI214
aI216
aI218
aI221
aI222
aI224
aI227
aI228
aI231
aI232
aI234
aI237
aI239
aI240
aI243
aI244
aI247
aI248
aI250
aI253
aI254
aI256
aI259
aI261
aI262
aI264
aI267
aI269
aI271
aI272
aI274
aI276
aI278
aI280
aI283
aI284
aI287
aI289
aI290
aI292
aI294
aI297
aI298
aI301
aI302
aI305
aI306
aI309
aI310
aI312
aI315
aI317
aI319
aI321
aI323
aI325
aI326
aI328
aI330
aI332
aI335
aI336
aI339
aI340
aI343
aI345
aI347
aI348
aI350
aI352
aI354
aI356
aI358
aI361
aI362
aI365
aI366
aI368
aI371
aI372
aI374
aI377
aI378
aI380
aI382
aI384
aI387
aI388
aI390
aI393
aI394
aI396
aI398
aI400
aI402
aI405
aI406
aI409
aI411
aI412
aI415
aI417
aI418
aI421
aI423
aI425
aI427
aI428
aI430
aI432
aI434
aI437
aI439
aI440
aI442
aI444
aI446
aI448
aI451
aI453
aI454
aI456
aI458
aI460
aI463
aI465
aI467
aI469
aI471
aI473
aI475
aI476
aI478
aI480
aI483
aI484
aI487
aI488
aI490
aI492
aI494
aI496
aI498
aI500
aI503
aI504
aI507
aI508
aI510
aI513
aI514
aI516
aI519
aI520
aI523
aI525
aI526
aI529
aI531
aI532
aI534
aI536
aI539
aI541
aI543
aI544
aI546
aI548
aI550
aI552
aI555
aI557
aI559
aI560
aI562
aI565
aI567
aI568
aI570
aI572
aI575
aI576
aI578
aI580
aI583
aI585
aI586
aI588
aI590
aI593
aI594
aI596
aI598
aI600
aI602
aI604
aI607
aI609
aI610
aI613
aI614
aI616
aI618
aI620
aI622
aI625
aI626
aI628
aI630
aI633
aI634
aI636
aI639
aI641
aI643
aI644
aI646
aI648
aI650
aI652
aI654
aI656
aI658
aI660
aI663
aI665
aI666
aI669
aI670
aI673
aI675
aI676
aI679
aI681
aI683
aI684
aI686
aI689
aI690
aI692
aI695
aI697
aI699
aI701
aI702
aI704
aI706
aI709
aI711
aI713
aI715
aI716
aI719
aI721
aI722
aI725
aI726
aI728
aI730
aI732
aI734
aI736
aI738
aI740
aI743
aI744
aI746
aI748
aI750
aI753
aI755
aI757
aI758
aI760
aI763
aI765
aI766
aI769
aI770
aI772
aI774
aI777
aI779
aI781
aI782
aI784
aI786
aI789
aI790
aI792
aI795
aI796
aI799
aI800
aI802
aI805
aI806
aI809
aI811
aI813
aI815
aI816
aI818
aI821
aI822
aI824
aI826
aI828
aI831
aI832
aI834
aI836
aI838
aI840
aI843
aI844
aI846
aI848
aI850
aI853
aI855
aI857
aI858
aI860
aI863
aI865
aI867
aI869
aI871
aI873
aI874
aI876
aI878
aI880
aI883
aI885
aI886
aI889
aI890
aI893
aI895
aI896
aI899
aI900
aI902
aI904
aI906
aI909
aI910
aI912
aI915
aI916
aI918
aI921
aI923
aI925
aI926
aI928
aI931
aI932
aI934
aI937
aI939
aI940
aI943
aI945
aI946
aI948
aI950
aI952
aI954
aI956
aI959
aI961
aI963
aI965
aI966
aI968
aI971
aI972
aI974
aI977
aI978
aI980
aI983
aI984
aI986
aI988
aI990
aI992
aI995
aI997
aI998
aI1000
aI1002
aI1005
aI1007
aI1009
aI1010
aI1012
aI1015
aI1016
aI1019
aI1021
aI1023
aI1024
aI1026
aI1029
aI1031
aI1032
aI1035
aI1036
aI1038
aI1040
aI1042
aI1045
aI1046
aI1049
aI1050
aI1052
aI1055
aI1057
aI1059
aI1060
aI1062
aI1065
aI1067
aI1068
aI1070
aI1072
aI1075
aI1076
aI1078
aI1081
aI1083
aI1084
aI1087
aI1089
aI1090
aI1092
aI1095
aI1096
aI1098
aI1100
aI1102
aI1105
aI1106
aI1108
aI1110
aI1113
aI1114
aI1117
aI1119
aI1120
aI1122
aI1124
aI1127
aI1128
aI1130
aI1133
aI1135
aI1136
aI1139
aI1140
aI1143
aI1145
aI1146
aI1148
aI1151
aI1153
aI1155
aI1156
aI1159
aI1160
aI1162
aI1164
aI1167
aI1169
aI1170
aI1172
aI1174
aI1176
aI1179
aI1180
aI1183
aI1184
aI1186
aI1189
aI1190
aI1192
aI1195
aI1197
aI1199
aa(lp348
I1
aI2
aI4
aI7
aI8
aI10
aI12
aI14
aI16
aI18
aI20
aI22
aI24
aI26
aI28
aI31
aI32
aI35
aI37
aI38
aI40
aI43
aI44
aI47
aI48
aI50
aI53
aI55
aI56
aI59
aI60
aI62
aI64
aI66
aI69
aI71
aI72
aI74
aI76
aI79
aI81
aI83
aI85
aI87
aI88
aI91
aI93
aI94
aI97
aI98
aI101
aI102
aI105
aI107
aI109
aI111
aI113
aI115
aI117
aI118
aI120
aI123
aI124
aI126
aI128
aI131
aI133
aI135
aI137
aI138
aI140
aI143
aI144
aI146
aI148
aI151
aI152
aI155
aI157
aI159
aI160
aI162
aI164
aI166
aI169
aI171
aI173
aI175
aI177
aI178
aI180
aI183
aI184
aI186
aI188
aI190
aI193
aI194
aI196
aI198
aI201
aI202
aI204
aI207
aI209
aI211
aI212
aI214
aI216
aI218
aI221
aI222
aI224
aI227
aI228
aI231
aI232
aI234
aI237
aI239
aI240
aI243
aI244
aI247
aI248
aI250
aI253
aI254
aI256
aI259
aI261
aI262
aI264
aI267
aI269
aI271
aI272
aI274
aI276
aI278
aI280
aI283
aI284
aI287
aI289
aI290
aI292
aI294
aI297
aI298
aI301
aI302
aI305
aI306
aI309
aI310
aI312
aI315
aI317
aI319
aI321
aI323
aI325
aI326
aI328
aI330
aI332
aI335
aI336
aI339
aI340
aI343
aI345
aI347
aI348
aI350
aI352
aI354
aI356
aI358
aI361
aI362
aI365
aI366
aI368
aI371
aI372
aI374
aI377
aI378
aI380
aI382
aI384
aI387
aI388
aI390
aI393
aI394
aI396
aI398
aI400
aI402
aI405
aI406
aI409
aI411
aI412
aI415
aI417
aI418
aI421
aI423
aI425
aI427
aI428
aI430
aI432
aI434
aI437
aI439
aI440
aI442
aI444
aI446
aI448
aI451
aI453
aI454
aI456
aI458
aI460
aI463
aI465
aI467
aI469
aI471
aI473
aI475
aI476
aI478
aI480
aI483
aI484
aI487
aI488
aI490
aI492
aI494
aI496
aI498
aI500
aI503
aI504
aI507
aI508
aI510
aI513
aI514
aI516
aI519
aI520
aI523
aI525
aI526
aI529
aI531
aI532
aI534
aI536
aI539
aI541
aI543
aI544
aI546
aI548
aI550
aI552
aI555
aI557
aI559
aI560
aI562
aI565
aI567
aI568
aI570
aI572
aI575
aI576
aI578
aI580
aI583
aI585
aI586
aI588
aI590
aI593
aI594
aI596
aI598
aI600
aI602
aI604
aI607
aI609
aI610
aI613
aI614
aI616
aI618
aI620
aI622
aI625
aI626
aI628
aI630
aI633
aI634
aI636
aI639
aI641
aI643
aI644
aI646
aI648
aI650
aI652
aI654
aI656
aI658
aI660
aI663
aI665
aI666
aI669
aI670
aI673
aI675
aI676
aI679
aI681
aI683
aI684
aI686
aI689
aI690
aI692
aI695
aI697
aI699
aI701
aI702
aI705
aI706
aI709
aI711
aI713
aI715
aI716
aI719
aI721
aI722
aI725
aI726
aI728
aI730
aI732
aI734
aI736
aI738
aI740
aI743
aI744
aI746
aI748
aI750
aI753
aI755
aI757
aI758
aI760
aI763
aI765
aI766
aI769
aI770
aI772
aI774
aI777
aI779
aI781
aI782
aI784
aI786
aI789
aI790
aI792
aI795
aI796
aI799
aI800
aI802
aI805
aI806
aI809
aI811
aI813
aI815
aI816
aI818
aI821
aI822
aI824
aI826
aI828
aI831
aI832
aI834
aI836
aI838
aI840
aI843
aI844
aI846
aI848
aI850
aI853
aI855
aI857
aI858
aI860
aI863
aI865
aI867
aI869
aI871
aI873
aI874
aI876
aI878
aI880
aI883
aI885
aI886
aI889
aI890
aI893
aI895
aI896
aI899
aI900
aI902
aI904
aI906
aI909
aI910
aI912
aI915
aI916
aI918
aI921
aI923
aI925
aI926
aI928
aI931
aI932
aI934
aI937
aI939
aI940
aI943
aI945
aI946
aI948
aI950
aI952
aI954
aI956
aI959
aI961
aI963
aI965
aI966
aI968
aI971
aI972
aI974
aI977
aI978
aI980
aI983
aI984
aI986
aI988
aI990
aI992
aI995
aI997
aI998
aI1000
aI1002
aI1005
aI1007
aI1009
aI1010
aI1012
aI1015
aI1016
aI1019
aI1021
aI1023
aI1024
aI1026
aI1029
aI1031
aI1032
aI1035
aI1036
aI1038
aI1040
aI1042
aI1045
aI1046
aI1049
aI1050
aI1052
aI1055
aI1057
aI1059
aI1060
aI1062
aI1065
aI1067
aI1068
aI1070
aI1072
aI1075
aI1076
aI1078
aI1081
aI1083
aI1084
aI1087
aI1089
aI1090
aI1092
aI1095
aI1096
aI1098
aI1100
aI1102
aI1105
aI1106
aI1108
aI1110
aI1113
aI1114
aI1117
aI1119
aI1120
aI1122
aI1124
aI1127
aI1128
aI1130
aI1133
aI1135
aI1136
aI1139
aI1140
aI1143
aI1145
aI1146
aI1148
aI1151
aI1153
aI1155
aI1156
aI1159
aI1160
aI1162
aI1164
aI1167
aI1169
aI1170
aI1172
aI1174
aI1176
aI1179
aI1180
aI1183
aI1184
aI1186
aI1189
aI1190
aI1192
aI1195
aI1197
aI1199
aa(lp349
I1
aI2
aI4
aI7
aI8
aI10
aI12
aI14
aI16
aI18
aI20
aI22
aI24
aI26
aI28
aI31
aI32
aI35
aI37
aI38
aI40
aI43
aI44
aI47
aI48
aI50
aI53
aI55
aI56
aI59
aI60
aI62
aI64
aI66
aI69
aI71
aI72
aI74
aI76
aI79
aI81
aI83
aI85
aI87
aI88
aI91
aI93
aI94
aI97
aI98
aI101
aI102
aI105
aI107
aI109
aI111
aI113
aI115
aI117
aI118
aI120
aI123
aI124
aI126
aI128
aI131
aI133
aI135
aI137
aI138
aI140
aI143
aI144
aI146
aI148
aI151
aI152
aI155
aI157
aI159
aI160
aI162
aI164
aI166
aI169
aI171
aI173
aI175
aI177
aI178
aI180
aI183
aI184
aI186
aI188
aI190
aI193
aI194
aI196
aI198
aI201
aI202
aI204
aI207
aI209
aI211
aI212
aI214
aI216
aI218
aI221
aI222
aI224
aI227
aI228
aI231
aI232
aI234
aI237
aI239
aI240
aI243
aI244
aI247
aI248
aI250
aI253
aI254
aI256
aI259
aI261
aI262
aI264
aI267
aI269
aI271
aI272
aI274
aI276
aI278
aI280
aI283
aI284
aI287
aI289
aI290
aI292
aI294
aI297
aI298
aI301
aI302
aI305
aI306
aI309
aI310
aI312
aI315
aI317
aI319
aI321
aI323
aI325
aI326
aI328
aI330
aI332
aI335
aI336
aI339
aI340
aI343
aI345
aI347
aI348
aI350
aI352
aI354
aI356
aI358
aI361
aI362
aI365
aI366
aI368
aI371
aI372
aI374
aI377
aI378
aI380
aI382
aI384
aI387
aI388
aI390
aI393
aI394
aI396
aI398
aI400
aI402
aI405
aI406
aI409
aI411
aI412
aI415
aI417
aI418
aI421
aI423
aI425
aI427
aI428
aI430
aI432
aI434
aI437
aI439
aI440
aI442
aI444
aI446
aI448
aI450
aI453
aI454
aI456
aI458
aI460
aI463
aI465
aI467
aI469
aI471
aI473
aI475
aI476
aI478
aI480
aI483
aI484
aI487
aI488
aI490
aI492
aI494
aI496
aI498
aI500
aI503
aI504
aI507
aI508
aI510
aI513
aI514
aI516
aI519
aI520
aI523
aI525
aI526
aI529
aI531
aI532
aI534
aI536
aI539
aI541
aI543
aI544
aI546
aI548
aI550
aI552
aI555
aI557
aI559
aI560
aI562
aI565
aI567
aI568
aI570
aI572
aI575
aI576
aI578
aI580
aI583
aI585
aI586
aI588
aI590
aI593
aI594
aI596
aI598
aI600
aI602
aI604
aI607
aI609
aI610
aI613
aI614
aI616
aI618
aI620
aI622
aI625
aI626
aI628
aI630
aI633
aI634
aI636
aI639
aI641
aI643
aI644
aI646
aI648
aI650
aI652
aI654
aI656
aI658
aI660
aI663
aI665
aI666
aI669
aI670
aI673
aI675
aI676
aI679
aI681
aI683
aI684
aI686
aI689
aI690
aI692
aI695
aI697
aI699
aI701
aI702
aI705
aI706
aI709
aI711
aI713
aI715
aI716
aI719
aI721
aI722
aI725
aI726
aI728
aI730
aI732
aI734
aI736
aI738
aI740
aI743
aI744
aI746
aI748
aI750
aI753
aI755
aI757
aI758
aI760
aI763
aI765
aI766
aI769
aI770
aI772
aI774
aI777
aI779
aI781
aI782
aI784
aI786
aI789
aI790
aI792
aI795
aI796
aI799
aI800
aI802
aI805
aI806
aI809
aI811
aI813
aI815
aI816
aI818
aI821
aI822
aI824
aI826
aI828
aI831
aI832
aI834
aI836
aI838
aI840
aI843
aI844
aI846
aI848
aI850
aI853
aI855
aI857
aI858
aI860
aI863
aI865
aI867
aI869
aI871
aI873
aI874
aI876
aI878
aI880
aI883
aI885
aI886
aI889
aI890
aI893
aI895
aI896
aI899
aI900
aI902
aI904
aI906
aI909
aI910
aI912
aI915
aI916
aI918
aI921
aI923
aI925
aI926
aI928
aI931
aI932
aI934
aI937
aI939
aI940
aI943
aI945
aI946
aI948
aI950
aI952
aI954
aI956
aI959
aI961
aI963
aI965
aI966
aI968
aI971
aI972
aI974
aI977
aI978
aI980
aI983
aI984
aI986
aI988
aI990
aI992
aI995
aI997
aI998
aI1000
aI1002
aI1005
aI1007
aI1009
aI1010
aI1012
aI1015
aI1016
aI1019
aI1021
aI1023
aI1024
aI1026
aI1029
aI1031
aI1032
aI1035
aI1036
aI1038
aI1040
aI1042
aI1045
aI1046
aI1049
aI1050
aI1052
aI1055
aI1057
aI1059
aI1060
aI1062
aI1065
aI1067
aI1068
aI1070
aI1072
aI1075
aI1076
aI1078
aI1081
aI1083
aI1084
aI1087
aI1089
aI1090
aI1092
aI1095
aI1096
aI1098
aI1100
aI1102
aI1105
aI1106
aI1108
aI1110
aI1113
aI1114
aI1117
aI1119
aI1120
aI1122
aI1124
aI1127
aI1128
aI1130
aI1133
aI1135
aI1136
aI1139
aI1140
aI1143
aI1145
aI1146
aI1148
aI1151
aI1153
aI1155
aI1156
aI1159
aI1160
aI1162
aI1164
aI1167
aI1169
aI1170
aI1172
aI1174
aI1176
aI1179
aI1180
aI1183
aI1184
aI1186
aI1189
aI1190
aI1192
aI1195
aI1197
aI1199
aa(lp350
I177
aI744
aI1035
aI1143
aa(lp351
I177
aI744
aa(lp352
I681
aI705
aI775
aa(lp353
I1
aI2
aI4
aI7
aI8
aI10
aI12
aI14
aI16
aI18
aI20
aI22
aI24
aI26
aI28
aI31
aI32
aI35
aI37
aI38
aI40
aI43
aI44
aI47
aI48
aI50
aI53
aI55
aI56
aI59
aI60
aI62
aI64
aI66
aI69
aI71
aI72
aI74
aI76
aI79
aI81
aI83
aI85
aI87
aI88
aI91
aI93
aI94
aI97
aI98
aI101
aI102
aI105
aI107
aI109
aI111
aI113
aI115
aI117
aI118
aI120
aI123
aI124
aI126
aI128
aI131
aI133
aI135
aI137
aI138
aI140
aI143
aI144
aI146
aI148
aI151
aI152
aI155
aI157
aI159
aI160
aI162
aI164
aI166
aI169
aI171
aI173
aI175
aI177
aI178
aI180
aI183
aI184
aI186
aI188
aI190
aI193
aI194
aI196
aI198
aI201
aI202
aI204
aI207
aI209
aI211
aI212
aI214
aI216
aI218
aI221
aI222
aI224
aI227
aI228
aI231
aI232
aI234
aI237
aI239
aI240
aI243
aI244
aI247
aI248
aI250
aI253
aI254
aI256
aI259
aI261
aI262
aI264
aI267
aI269
aI271
aI272
aI274
aI276
aI278
aI280
aI283
aI284
aI287
aI289
aI290
aI292
aI294
aI297
aI298
aI301
aI302
aI305
aI306
aI309
aI310
aI312
aI315
aI317
aI319
aI321
aI323
aI325
aI326
aI328
aI330
aI332
aI335
aI336
aI339
aI340
aI343
aI345
aI347
aI348
aI350
aI352
aI354
aI356
aI358
aI361
aI362
aI365
aI366
aI368
aI371
aI372
aI374
aI377
aI378
aI380
aI382
aI384
aI387
aI388
aI390
aI393
aI394
aI396
aI398
aI400
aI402
aI405
aI406
aI409
aI411
aI412
aI415
aI417
aI418
aI421
aI423
aI425
aI427
aI428
aI430
aI432
aI434
aI437
aI439
aI440
aI442
aI444
aI446
aI448
aI450
aI453
aI454
aI456
aI458
aI460
aI463
aI465
aI467
aI469
aI471
aI473
aI475
aI476
aI478
aI480
aI483
aI484
aI487
aI488
aI490
aI492
aI494
aI496
aI498
aI500
aI503
aI504
aI507
aI508
aI510
aI513
aI514
aI516
aI519
aI520
aI523
aI525
aI526
aI529
aI531
aI532
aI534
aI536
aI539
aI541
aI543
aI544
aI546
aI548
aI550
aI552
aI555
aI557
aI559
aI560
aI562
aI565
aI567
aI568
aI570
aI572
aI575
aI576
aI578
aI580
aI583
aI585
aI586
aI588
aI590
aI593
aI594
aI596
aI598
aI600
aI602
aI604
aI607
aI609
aI610
aI613
aI614
aI616
aI618
aI620
aI622
aI625
aI626
aI628
aI630
aI633
aI634
aI636
aI639
aI641
aI643
aI644
aI646
aI648
aI650
aI652
aI654
aI656
aI658
aI660
aI663
aI665
aI666
aI669
aI670
aI673
aI675
aI676
aI679
aI681
aI683
aI684
aI686
aI689
aI690
aI692
aI695
aI697
aI699
aI701
aI702
aI705
aI706
aI709
aI711
aI713
aI715
aI716
aI719
aI721
aI722
aI725
aI726
aI728
aI730
aI732
aI734
aI736
aI738
aI740
aI743
aI745
aI746
aI748
aI750
aI753
aI755
aI757
aI758
aI760
aI763
aI765
aI766
aI769
aI770
aI772
aI774
aI777
aI779
aI781
aI782
aI784
aI786
aI789
aI790
aI792
aI795
aI796
aI799
aI800
aI802
aI805
aI806
aI809
aI811
aI813
aI815
aI816
aI818
aI821
aI822
aI824
aI826
aI828
aI831
aI832
aI834
aI836
aI838
aI840
aI843
aI844
aI846
aI848
aI850
aI853
aI855
aI857
aI858
aI860
aI863
aI865
aI867
aI869
aI871
aI873
aI874
aI876
aI878
aI880
aI883
aI885
aI886
aI889
aI890
aI893
aI895
aI896
aI899
aI900
aI902
aI904
aI906
aI909
aI910
aI912
aI915
aI916
aI918
aI921
aI923
aI925
aI926
aI928
aI931
aI932
aI934
aI937
aI939
aI940
aI943
aI945
aI946
aI948
aI950
aI952
aI954
aI956
aI959
aI961
aI963
aI965
aI966
aI968
aI971
aI972
aI974
aI977
aI978
aI980
aI983
aI984
aI986
aI988
aI990
aI992
aI995
aI997
aI998
aI1000
aI1002
aI1005
aI1007
aI1009
aI1010
aI1012
aI1015
aI1016
aI1019
aI1021
aI1023
aI1024
aI1026
aI1029
aI1031
aI1032
aI1034
aI1036
aI1038
aI1040
aI1042
aI1045
aI1046
aI1049
aI1050
aI1052
aI1055
aI1057
aI1059
aI1060
aI1062
aI1065
aI1067
aI1068
aI1070
aI1072
aI1075
aI1076
aI1078
aI1081
aI1083
aI1084
aI1087
aI1089
aI1090
aI1092
aI1095
aI1096
aI1098
aI1100
aI1102
aI1105
aI1106
aI1108
aI1110
aI1113
aI1114
aI1117
aI1119
aI1120
aI1122
aI1124
aI1127
aI1128
aI1130
aI1133
aI1135
aI1136
aI1139
aI1140
aI1143
aI1145
aI1146
aI1148
aI1151
aI1153
aI1155
aI1156
aI1159
aI1160
aI1162
aI1164
aI1167
aI1169
aI1170
aI1172
aI1174
aI1176
aI1179
aI1180
aI1183
aI1184
aI1186
aI1189
aI1190
aI1192
aI1195
aI1197
aI1199
aa(lp354
I1
aI2
aI4
aI7
aI8
aI10
aI12
aI14
aI16
aI18
aI20
aI22
aI24
aI26
aI28
aI31
aI32
aI35
aI37
aI38
aI40
aI43
aI44
aI47
aI48
aI50
aI53
aI55
aI56
aI59
aI60
aI62
aI64
aI66
aI69
aI71
aI72
aI74
aI76
aI79
aI81
aI83
aI85
aI87
aI88
aI91
aI93
aI94
aI97
aI98
aI101
aI102
aI105
aI107
aI109
aI111
aI113
aI115
aI117
aI118
aI120
aI123
aI124
aI126
aI128
aI131
aI133
aI135
aI137
aI138
aI140
aI143
aI144
aI146
aI148
aI151
aI152
aI155
aI157
aI159
aI160
aI162
aI164
aI166
aI169
aI171
aI173
aI175
aI177
aI178
aI180
aI183
aI184
aI186
aI188
aI190
aI193
aI194
aI196
aI198
aI201
aI202
aI204
aI207
aI209
aI211
aI212
aI214
aI216
aI218
aI221
aI222
aI224
aI227
aI228
aI231
aI232
aI234
aI237
aI239
aI240
aI243
aI244
aI247
aI248
aI250
aI253
aI254
aI256
aI259
aI261
aI262
aI264
aI267
aI269
aI271
aI272
aI274
aI276
aI278
aI280
aI283
aI284
aI287
aI289
aI290
aI292
aI294
aI297
aI298
aI301
aI302
aI305
aI306
aI309
aI310
aI312
aI315
aI317
aI319
aI321
aI323
aI325
aI326
aI328
aI330
aI332
aI335
aI336
aI339
aI340
aI343
aI345
aI347
aI348
aI350
aI352
aI354
aI356
aI358
aI361
aI362
aI365
aI366
aI368
aI371
aI372
aI374
aI377
aI378
aI380
aI382
aI384
aI387
aI388
aI390
aI393
aI394
aI396
aI398
aI400
aI402
aI405
aI406
aI409
aI411
aI412
aI415
aI417
aI418
aI421
aI423
aI425
aI427
aI428
aI430
aI432
aI434
aI437
aI439
aI440
aI442
aI444
aI446
aI448
aI450
aI453
aI454
aI456
aI458
aI460
aI463
aI465
aI467
aI469
aI471
aI473
aI475
aI476
aI478
aI480
aI483
aI484
aI487
aI488
aI490
aI492
aI494
aI496
aI498
aI500
aI503
aI504
aI507
aI508
aI510
aI513
aI514
aI516
aI519
aI520
aI523
aI525
aI526
aI529
aI531
aI532
aI534
aI537
aI539
aI541
aI543
aI544
aI546
aI548
aI550
aI552
aI555
aI557
aI559
aI560
aI562
aI565
aI567
aI568
aI570
aI572
aI575
aI576
aI578
aI580
aI583
aI585
aI586
aI588
aI590
aI593
aI594
aI596
aI598
aI600
aI602
aI604
aI607
aI609
aI610
aI613
aI614
aI616
aI618
aI620
aI622
aI625
aI626
aI628
aI630
aI633
aI634
aI636
aI639
aI641
aI643
aI644
aI646
aI648
aI650
aI652
aI654
aI656
aI658
aI660
aI663
aI665
aI666
aI669
aI670
aI673
aI675
aI676
aI679
aI681
aI683
aI684
aI686
aI689
aI690
aI692
aI695
aI697
aI699
aI701
aI702
aI705
aI706
aI709
aI711
aI713
aI715
aI716
aI719
aI721
aI722
aI725
aI726
aI728
aI730
aI732
aI734
aI736
aI738
aI740
aI743
aI745
aI746
aI748
aI750
aI753
aI755
aI757
aI758
aI760
aI763
aI765
aI766
aI769
aI770
aI772
aI774
aI777
aI779
aI781
aI782
aI784
aI786
aI789
aI790
aI792
aI795
aI796
aI799
aI800
aI802
aI805
aI806
aI809
aI811
aI813
aI815
aI816
aI818
aI821
aI822
aI824
aI826
aI828
aI831
aI832
aI834
aI836
aI838
aI840
aI843
aI844
aI846
aI848
aI850
aI853
aI855
aI857
aI858
aI860
aI863
aI865
aI867
aI869
aI871
aI873
aI874
aI876
aI878
aI880
aI883
aI885
aI886
aI889
aI890
aI893
aI895
aI896
aI899
aI900
aI902
aI904
aI906
aI909
aI910
aI912
aI915
aI916
aI918
aI921
aI923
aI925
aI926
aI928
aI931
aI932
aI934
aI937
aI939
aI940
aI943
aI945
aI946
aI948
aI950
aI952
aI954
aI956
aI959
aI961
aI963
aI965
aI966
aI968
aI971
aI972
aI974
aI977
aI978
aI980
aI983
aI984
aI986
aI988
aI990
aI992
aI995
aI997
aI998
aI1000
aI1002
aI1005
aI1007
aI1009
aI1010
aI1012
aI1015
aI1016
aI1019
aI1021
aI1023
aI1024
aI1026
aI1029
aI1031
aI1032
aI1034
aI1036
aI1038
aI1040
aI1042
aI1045
aI1046
aI1049
aI1050
aI1052
aI1055
aI1057
aI1059
aI1060
aI1062
aI1065
aI1067
aI1068
aI1070
aI1072
aI1075
aI1076
aI1078
aI1081
aI1083
aI1084
aI1087
aI1089
aI1090
aI1092
aI1095
aI1096
aI1098
aI1100
aI1102
aI1105
aI1106
aI1108
aI1110
aI1113
aI1114
aI1117
aI1119
aI1120
aI1122
aI1124
aI1127
aI1128
aI1130
aI1133
aI1135
aI1136
aI1139
aI1140
aI1143
aI1145
aI1146
aI1148
aI1151
aI1153
aI1155
aI1156
aI1159
aI1160
aI1162
aI1164
aI1167
aI1169
aI1170
aI1172
aI1174
aI1176
aI1179
aI1180
aI1183
aI1184
aI1186
aI1189
aI1190
aI1192
aI1195
aI1197
aI1199
aa(lp355
I177
aI427
aI745
aa(lp356
I1
aI2
aI4
aI7
aI8
aI10
aI12
aI14
aI16
aI18
aI20
aI22
aI24
aI26
aI28
aI31
aI32
aI35
aI37
aI38
aI40
aI43
aI44
aI47
aI48
aI50
aI53
aI55
aI56
aI59
aI60
aI62
aI64
aI66
aI69
aI71
aI72
aI74
aI76
aI79
aI81
aI83
aI85
aI87
aI88
aI91
aI93
aI94
aI97
aI98
aI101
aI102
aI105
aI107
aI109
aI111
aI113
aI115
aI117
aI118
aI120
aI123
aI124
aI126
aI128
aI131
aI133
aI135
aI137
aI138
aI140
aI143
aI144
aI146
aI148
aI151
aI152
aI155
aI157
aI159
aI160
aI162
aI164
aI166
aI169
aI171
aI173
aI175
aI177
aI178
aI180
aI183
aI184
aI186
aI188
aI190
aI193
aI194
aI196
aI198
aI201
aI202
aI204
aI207
aI209
aI211
aI212
aI214
aI216
aI218
aI221
aI222
aI224
aI227
aI228
aI231
aI232
aI234
aI237
aI239
aI240
aI243
aI244
aI247
aI248
aI250
aI253
aI254
aI256
aI259
aI261
aI262
aI264
aI267
aI269
aI271
aI272
aI274
aI276
aI278
aI280
aI283
aI284
aI287
aI289
aI290
aI292
aI294
aI297
aI298
aI301
aI302
aI305
aI306
aI309
aI310
aI312
aI315
aI317
aI319
aI321
aI323
aI325
aI326
aI328
aI330
aI332
aI335
aI336
aI339
aI340
aI343
aI345
aI347
aI348
aI350
aI352
aI354
aI356
aI358
aI361
aI362
aI365
aI366
aI368
aI371
aI372
aI374
aI377
aI378
aI380
aI382
aI384
aI387
aI388
aI390
aI393
aI394
aI396
aI398
aI400
aI402
aI405
aI406
aI409
aI411
aI412
aI415
aI417
aI418
aI421
aI423
aI425
aI426
aI428
aI430
aI432
aI434
aI437
aI439
aI440
aI442
aI444
aI446
aI448
aI450
aI453
aI454
aI456
aI458
aI460
aI463
aI465
aI467
aI469
aI471
aI473
aI475
aI476
aI478
aI480
aI483
aI484
aI487
aI488
aI490
aI492
aI494
aI496
aI498
aI500
aI503
aI504
aI507
aI508
aI510
aI513
aI514
aI516
aI519
aI520
aI523
aI525
aI526
aI529
aI531
aI532
aI534
aI537
aI539
aI541
aI543
aI544
aI546
aI548
aI550
aI552
aI555
aI557
aI559
aI560
aI562
aI565
aI567
aI568
aI570
aI572
aI575
aI576
aI578
aI581
aI583
aI585
aI586
aI588
aI590
aI593
aI594
aI596
aI598
aI600
aI602
aI604
aI607
aI609
aI610
aI613
aI614
aI616
aI618
aI620
aI622
aI625
aI626
aI628
aI630
aI633
aI634
aI636
aI639
aI641
aI643
aI644
aI646
aI648
aI650
aI652
aI654
aI656
aI658
aI660
aI663
aI665
aI666
aI669
aI670
aI673
aI675
aI676
aI679
aI681
aI683
aI684
aI686
aI689
aI690
aI692
aI695
aI697
aI699
aI701
aI702
aI705
aI706
aI709
aI711
aI713
aI715
aI716
aI719
aI721
aI722
aI725
aI726
aI728
aI730
aI732
aI734
aI736
aI738
aI740
aI743
aI745
aI746
aI748
aI750
aI753
aI755
aI757
aI758
aI760
aI763
aI765
aI766
aI769
aI770
aI772
aI774
aI777
aI779
aI781
aI782
aI784
aI786
aI789
aI790
aI792
aI795
aI796
aI799
aI800
aI802
aI805
aI806
aI809
aI811
aI813
aI815
aI816
aI818
aI821
aI822
aI824
aI826
aI828
aI831
aI832
aI834
aI836
aI838
aI840
aI843
aI844
aI846
aI848
aI850
aI853
aI855
aI857
aI858
aI860
aI863
aI865
aI867
aI869
aI871
aI873
aI874
aI876
aI878
aI880
aI883
aI885
aI886
aI889
aI890
aI893
aI895
aI896
aI899
aI900
aI902
aI904
aI906
aI909
aI910
aI912
aI915
aI916
aI918
aI921
aI923
aI925
aI926
aI928
aI931
aI932
aI934
aI937
aI939
aI940
aI943
aI945
aI946
aI948
aI950
aI952
aI954
aI956
aI959
aI961
aI963
aI965
aI966
aI968
aI971
aI972
aI974
aI977
aI978
aI980
aI983
aI984
aI986
aI988
aI990
aI992
aI995
aI997
aI998
aI1000
aI1002
aI1005
aI1007
aI1009
aI1010
aI1012
aI1015
aI1016
aI1019
aI1021
aI1023
aI1024
aI1026
aI1029
aI1031
aI1032
aI1034
aI1036
aI1038
aI1040
aI1042
aI1045
aI1046
aI1049
aI1050
aI1052
aI1055
aI1057
aI1059
aI1060
aI1062
aI1065
aI1067
aI1068
aI1070
aI1072
aI1075
aI1076
aI1078
aI1081
aI1083
aI1084
aI1087
aI1089
aI1090
aI1092
aI1095
aI1096
aI1098
aI1100
aI1102
aI1105
aI1106
aI1108
aI1110
aI1113
aI1114
aI1117
aI1119
aI1120
aI1122
aI1124
aI1127
aI1128
aI1130
aI1133
aI1135
aI1136
aI1139
aI1140
aI1143
aI1145
aI1146
aI1148
aI1151
aI1153
aI1155
aI1156
aI1159
aI1160
aI1162
aI1164
aI1167
aI1169
aI1170
aI1172
aI1174
aI1176
aI1179
aI1180
aI1183
aI1184
aI1186
aI1189
aI1190
aI1192
aI1195
aI1197
aI1199
aa(lp357
I1
aI2
aI4
aI7
aI8
aI10
aI12
aI14
aI16
aI18
aI20
aI22
aI24
aI26
aI28
aI31
aI32
aI35
aI37
aI38
aI40
aI43
aI44
aI47
aI48
aI50
aI53
aI55
aI56
aI59
aI60
aI62
aI64
aI66
aI69
aI71
aI72
aI74
aI76
aI79
aI81
aI83
aI85
aI87
aI88
aI91
aI93
aI94
aI97
aI98
aI101
aI102
aI105
aI107
aI109
aI111
aI113
aI115
aI117
aI118
aI120
aI123
aI124
aI126
aI128
aI131
aI133
aI135
aI137
aI138
aI140
aI143
aI144
aI146
aI148
aI151
aI152
aI155
aI157
aI159
aI160
aI162
aI164
aI166
aI169
aI171
aI173
aI175
aI177
aI178
aI180
aI183
aI184
aI186
aI188
aI190
aI193
aI194
aI196
aI198
aI201
aI202
aI204
aI207
aI209
aI211
aI212
aI214
aI216
aI218
aI221
aI222
aI224
aI227
aI228
aI231
aI232
aI234
aI237
aI239
aI240
aI243
aI244
aI247
aI248
aI250
aI253
aI254
aI256
aI259
aI261
aI262
aI264
aI267
aI269
aI271
aI272
aI274
aI276
aI278
aI280
aI283
aI284
aI287
aI289
aI290
aI292
aI294
aI297
aI298
aI301
aI302
aI305
aI306
aI309
aI310
aI312
aI315
aI317
aI319
aI321
aI323
aI325
aI326
aI328
aI330
aI332
aI335
aI336
aI339
aI340
aI343
aI345
aI347
aI348
aI350
aI352
aI354
aI356
aI358
aI361
aI362
aI365
aI366
aI368
aI371
aI372
aI374
aI377
aI378
aI380
aI382
aI384
aI387
aI388
aI390
aI393
aI394
aI396
aI398
aI400
aI402
aI405
aI406
aI409
aI411
aI412
aI415
aI417
aI418
aI421
aI423
aI425
aI426
aI428
aI430
aI432
aI434
aI437
aI439
aI440
aI442
aI444
aI446
aI448
aI450
aI453
aI454
aI456
aI458
aI460
aI463
aI465
aI467
aI469
aI471
aI473
aI475
aI476
aI478
aI480
aI483
aI484
aI487
aI488
aI490
aI492
aI494
aI496
aI498
aI500
aI503
aI504
aI507
aI508
aI510
aI513
aI514
aI516
aI519
aI520
aI523
aI525
aI526
aI529
aI531
aI532
aI534
aI537
aI539
aI541
aI543
aI544
aI546
aI548
aI550
aI552
aI555
aI557
aI559
aI560
aI562
aI565
aI567
aI568
aI570
aI572
aI575
aI576
aI578
aI581
aI583
aI585
aI586
aI588
aI590
aI593
aI594
aI596
aI598
aI600
aI602
aI604
aI607
aI609
aI610
aI613
aI614
aI616
aI618
aI620
aI622
aI625
aI626
aI628
aI630
aI633
aI634
aI636
aI639
aI641
aI643
aI644
aI646
aI648
aI650
aI652
aI654
aI656
aI658
aI660
aI663
aI665
aI666
aI669
aI670
aI673
aI675
aI676
aI679
aI681
aI683
aI684
aI686
aI689
aI690
aI692
aI695
aI697
aI699
aI701
aI702
aI705
aI706
aI709
aI711
aI713
aI715
aI716
aI719
aI721
aI722
aI725
aI726
aI728
aI730
aI732
aI734
aI736
aI738
aI740
aI743
aI745
aI746
aI748
aI750
aI753
aI755
aI757
aI758
aI760
aI763
aI765
aI766
aI769
aI770
aI772
aI774
aI777
aI779
aI781
aI782
aI784
aI786
aI789
aI790
aI792
aI795
aI796
aI799
aI800
aI802
aI805
aI806
aI809
aI811
aI813
aI815
aI816
aI818
aI821
aI822
aI824
aI826
aI828
aI831
aI832
aI834
aI836
aI838
aI840
aI843
aI844
aI846
aI848
aI850
aI853
aI855
aI857
aI858
aI860
aI863
aI865
aI867
aI869
aI871
aI873
aI874
aI876
aI878
aI880
aI883
aI885
aI886
aI889
aI890
aI893
aI895
aI896
aI899
aI900
aI902
aI904
aI906
aI909
aI910
aI912
aI915
aI916
aI918
aI921
aI923
aI925
aI926
aI928
aI931
aI932
aI934
aI937
aI939
aI940
aI943
aI945
aI946
aI948
aI950
aI952
aI954
aI956
aI959
aI961
aI963
aI965
aI966
aI968
aI971
aI972
aI974
aI977
aI978
aI980
aI983
aI984
aI986
aI988
aI990
aI992
aI995
aI997
aI998
aI1000
aI1002
aI1005
aI1007
aI1009
aI1010
aI1012
aI1015
aI1016
aI1019
aI1021
aI1023
aI1024
aI1026
aI1029
aI1031
aI1032
aI1034
aI1036
aI1038
aI1040
aI1042
aI1045
aI1046
aI1049
aI1050
aI1052
aI1055
aI1057
aI1059
aI1060
aI1062
aI1065
aI1067
aI1068
aI1070
aI1072
aI1075
aI1076
aI1078
aI1081
aI1083
aI1084
aI1087
aI1089
aI1090
aI1092
aI1095
aI1096
aI1098
aI1100
aI1102
aI1105
aI1106
aI1108
aI1110
aI1113
aI1114
aI1117
aI1119
aI1120
aI1122
aI1124
aI1127
aI1128
aI1131
aI1133
aI1135
aI1136
aI1139
aI1140
aI1143
aI1145
aI1146
aI1148
aI1151
aI1153
aI1155
aI1156
aI1159
aI1160
aI1162
aI1164
aI1167
aI1169
aI1170
aI1172
aI1174
aI1176
aI1179
aI1180
aI1183
aI1184
aI1186
aI1189
aI1190
aI1192
aI1195
aI1197
aI1199
aa(lp358
I509
aI681
aI745
aI1131
aa(lp359
I301
aI509
aI681
aa(lp360
I1
aI2
aI4
aI7
aI8
aI10
aI12
aI14
aI16
aI18
aI20
aI22
aI24
aI26
aI28
aI31
aI32
aI35
aI37
aI38
aI40
aI43
aI44
aI47
aI48
aI50
aI53
aI55
aI56
aI59
aI60
aI62
aI64
aI66
aI69
aI71
aI72
aI74
aI76
aI79
aI81
aI83
aI85
aI87
aI88
aI91
aI93
aI94
aI97
aI98
aI101
aI102
aI105
aI107
aI109
aI111
aI113
aI115
aI117
aI118
aI120
aI123
aI124
aI126
aI128
aI131
aI133
aI135
aI137
aI138
aI140
aI143
aI144
aI146
aI148
aI151
aI152
aI155
aI157
aI159
aI160
aI162
aI164
aI166
aI169
aI171
aI173
aI175
aI177
aI178
aI180
aI183
aI184
aI186
aI188
aI190
aI193
aI194
aI196
aI198
aI201
aI202
aI204
aI207
aI209
aI211
aI212
aI214
aI216
aI218
aI221
aI222
aI224
aI227
aI228
aI231
aI232
aI234
aI237
aI239
aI240
aI243
aI244
aI247
aI248
aI250
aI253
aI254
aI256
aI259
aI261
aI262
aI264
aI267
aI269
aI271
aI272
aI274
aI276
aI278
aI280
aI283
aI284
aI287
aI289
aI290
aI292
aI294
aI297
aI298
aI301
aI302
aI305
aI306
aI309
aI310
aI312
aI315
aI317
aI319
aI321
aI323
aI325
aI326
aI328
aI330
aI332
aI335
aI336
aI339
aI340
aI343
aI345
aI347
aI348
aI350
aI352
aI354
aI356
aI358
aI361
aI362
aI365
aI366
aI368
aI371
aI372
aI374
aI377
aI378
aI380
aI382
aI384
aI387
aI388
aI390
aI393
aI394
aI396
aI398
aI400
aI402
aI405
aI406
aI409
aI411
aI412
aI415
aI417
aI418
aI421
aI423
aI425
aI426
aI428
aI430
aI432
aI434
aI437
aI439
aI440
aI442
aI444
aI446
aI448
aI450
aI453
aI454
aI456
aI458
aI460
aI463
aI465
aI467
aI469
aI471
aI473
aI475
aI476
aI478
aI480
aI483
aI484
aI487
aI488
aI490
aI492
aI494
aI496
aI498
aI500
aI503
aI504
aI507
aI508
aI510
aI513
aI514
aI516
aI519
aI520
aI523
aI525
aI526
aI529
aI531
aI532
aI534
aI537
aI539
aI541
aI543
aI544
aI546
aI548
aI550
aI552
aI555
aI557
aI559
aI560
aI562
aI565
aI567
aI568
aI570
aI572
aI575
aI576
aI578
aI581
aI583
aI585
aI586
aI588
aI590
aI593
aI594
aI596
aI598
aI600
aI602
aI604
aI607
aI609
aI610
aI613
aI614
aI616
aI618
aI620
aI622
aI625
aI626
aI628
aI630
aI633
aI634
aI636
aI639
aI641
aI643
aI644
aI646
aI648
aI650
aI652
aI654
aI656
aI658
aI660
aI663
aI665
aI666
aI669
aI670
aI673
aI675
aI676
aI679
aI681
aI683
aI684
aI686
aI689
aI690
aI692
aI695
aI697
aI699
aI701
aI702
aI705
aI706
aI709
aI711
aI713
aI715
aI716
aI719
aI721
aI722
aI725
aI726
aI728
aI730
aI732
aI734
aI736
aI738
aI740
aI743
aI745
aI746
aI748
aI750
aI753
aI755
aI757
aI758
aI760
aI763
aI765
aI766
aI769
aI770
aI772
aI774
aI777
aI779
aI781
aI782
aI784
aI786
aI789
aI790
aI792
aI795
aI796
aI799
aI800
aI802
aI805
aI806
aI809
aI811
aI813
aI815
aI816
aI818
aI821
aI822
aI824
aI826
aI828
aI831
aI832
aI834
aI836
aI838
aI840
aI843
aI844
aI846
aI848
aI851
aI853
aI855
aI857
aI858
aI860
aI863
aI865
aI867
aI869
aI871
aI873
aI874
aI876
aI878
aI880
aI883
aI885
aI886
aI889
aI890
aI893
aI895
aI896
aI899
aI900
aI902
aI904
aI906
aI909
aI910
aI912
aI915
aI916
aI918
aI921
aI923
aI925
aI926
aI928
aI931
aI932
aI934
aI937
aI939
aI940
aI943
aI945
aI946
aI948
aI950
aI952
aI954
aI956
aI959
aI961
aI963
aI965
aI966
aI968
aI971
aI972
aI974
aI977
aI978
aI980
aI983
aI984
aI986
aI988
aI990
aI992
aI995
aI997
aI998
aI1000
aI1002
aI1005
aI1007
aI1009
aI1010
aI1012
aI1015
aI1016
aI1019
aI1021
aI1023
aI1024
aI1026
aI1029
aI1031
aI1032
aI1034
aI1036
aI1038
aI1040
aI1042
aI1045
aI1046
aI1049
aI1050
aI1052
aI1055
aI1057
aI1059
aI1060
aI1062
aI1065
aI1067
aI1068
aI1070
aI1072
aI1075
aI1076
aI1078
aI1081
aI1083
aI1084
aI1087
aI1089
aI1090
aI1092
aI1095
aI1096
aI1098
aI1100
aI1102
aI1105
aI1106
aI1108
aI1110
aI1113
aI1114
aI1117
aI1119
aI1120
aI1122
aI1124
aI1127
aI1128
aI1130
aI1133
aI1135
aI1136
aI1139
aI1140
aI1143
aI1145
aI1146
aI1148
aI1151
aI1153
aI1155
aI1156
aI1159
aI1160
aI1162
aI1164
aI1167
aI1169
aI1170
aI1172
aI1174
aI1176
aI1179
aI1180
aI1183
aI1184
aI1186
aI1189
aI1190
aI1192
aI1195
aI1197
aI1199
aa(lp361
I1
aI2
aI4
aI7
aI8
aI10
aI12
aI14
aI16
aI18
aI20
aI22
aI24
aI26
aI28
aI31
aI32
aI35
aI37
aI38
aI40
aI43
aI44
aI47
aI48
aI50
aI53
aI55
aI56
aI59
aI60
aI62
aI64
aI66
aI69
aI71
aI72
aI74
aI76
aI79
aI81
aI83
aI85
aI87
aI88
aI91
aI93
aI94
aI97
aI98
aI101
aI102
aI105
aI107
aI109
aI111
aI113
aI115
aI117
aI118
aI120
aI123
aI124
aI126
aI128
aI131
aI133
aI135
aI137
aI138
aI140
aI143
aI144
aI146
aI148
aI151
aI152
aI155
aI157
aI159
aI160
aI162
aI164
aI166
aI169
aI171
aI173
aI175
aI177
aI178
aI180
aI183
aI184
aI186
aI188
aI190
aI193
aI194
aI196
aI198
aI201
aI202
aI204
aI207
aI209
aI211
aI212
aI214
aI216
aI218
aI221
aI222
aI224
aI227
aI228
aI231
aI232
aI234
aI237
aI239
aI240
aI243
aI244
aI247
aI248
aI250
aI253
aI254
aI256
aI259
aI261
aI262
aI264
aI267
aI269
aI271
aI272
aI274
aI276
aI278
aI280
aI283
aI284
aI287
aI289
aI290
aI292
aI294
aI297
aI298
aI301
aI302
aI305
aI306
aI309
aI310
aI312
aI315
aI317
aI319
aI321
aI323
aI325
aI326
aI328
aI330
aI332
aI335
aI336
aI339
aI340
aI343
aI345
aI347
aI348
aI350
aI352
aI354
aI356
aI358
aI361
aI362
aI365
aI366
aI368
aI371
aI372
aI374
aI377
aI378
aI380
aI382
aI384
aI387
aI388
aI390
aI393
aI394
aI396
aI398
aI400
aI402
aI405
aI406
aI409
aI411
aI412
aI415
aI417
aI418
aI421
aI423
aI425
aI426
aI428
aI430
aI432
aI434
aI437
aI439
aI440
aI442
aI444
aI446
aI448
aI450
aI453
aI454
aI456
aI458
aI460
aI463
aI465
aI467
aI469
aI471
aI473
aI475
aI476
aI478
aI480
aI483
aI484
aI487
aI488
aI490
aI492
aI494
aI496
aI498
aI500
aI503
aI504
aI507
aI508
aI510
aI513
aI514
aI516
aI519
aI520
aI523
aI525
aI526
aI529
aI531
aI532
aI534
aI537
aI539
aI541
aI543
aI544
aI546
aI548
aI550
aI552
aI555
aI557
aI559
aI560
aI562
aI565
aI567
aI568
aI570
aI572
aI575
aI576
aI578
aI581
aI583
aI585
aI587
aI588
aI590
aI593
aI594
aI596
aI598
aI600
aI602
aI604
aI607
aI609
aI610
aI613
aI614
aI616
aI618
aI620
aI622
aI625
aI626
aI628
aI630
aI633
aI634
aI636
aI639
aI641
aI643
aI644
aI646
aI648
aI650
aI652
aI654
aI656
aI658
aI660
aI663
aI665
aI666
aI669
aI670
aI673
aI675
aI676
aI679
aI681
aI683
aI684
aI686
aI689
aI690
aI692
aI695
aI697
aI699
aI701
aI702
aI705
aI706
aI709
aI711
aI713
aI715
aI716
aI719
aI721
aI722
aI725
aI726
aI728
aI730
aI732
aI734
aI736
aI738
aI740
aI743
aI745
aI746
aI748
aI750
aI753
aI755
aI757
aI758
aI760
aI763
aI765
aI766
aI769
aI770
aI772
aI774
aI777
aI779
aI781
aI782
aI784
aI786
aI789
aI790
aI792
aI795
aI796
aI799
aI800
aI802
aI805
aI806
aI809
aI811
aI813
aI815
aI816
aI818
aI821
aI822
aI824
aI826
aI828
aI831
aI832
aI834
aI836
aI838
aI840
aI843
aI844
aI846
aI848
aI851
aI853
aI855
aI857
aI858
aI860
aI863
aI865
aI867
aI869
aI871
aI873
aI874
aI876
aI878
aI880
aI883
aI885
aI886
aI889
aI890
aI893
aI895
aI896
aI899
aI900
aI902
aI904
aI906
aI909
aI910
aI912
aI915
aI916
aI918
aI921
aI923
aI925
aI926
aI928
aI931
aI932
aI934
aI937
aI939
aI940
aI943
aI945
aI946
aI948
aI950
aI952
aI954
aI956
aI959
aI961
aI963
aI965
aI966
aI968
aI971
aI972
aI974
aI977
aI978
aI980
aI983
aI984
aI986
aI988
aI990
aI992
aI995
aI997
aI998
aI1000
aI1002
aI1005
aI1007
aI1009
aI1010
aI1012
aI1015
aI1016
aI1019
aI1021
aI1023
aI1024
aI1026
aI1029
aI1031
aI1032
aI1034
aI1036
aI1038
aI1040
aI1042
aI1045
aI1046
aI1049
aI1050
aI1052
aI1055
aI1057
aI1059
aI1060
aI1062
aI1065
aI1067
aI1068
aI1070
aI1072
aI1075
aI1076
aI1078
aI1081
aI1083
aI1084
aI1087
aI1089
aI1090
aI1092
aI1095
aI1096
aI1098
aI1100
aI1102
aI1105
aI1106
aI1108
aI1110
aI1113
aI1114
aI1117
aI1119
aI1120
aI1122
aI1124
aI1127
aI1128
aI1130
aI1133
aI1135
aI1136
aI1139
aI1140
aI1143
aI1145
aI1146
aI1148
aI1151
aI1153
aI1155
aI1156
aI1159
aI1160
aI1162
aI1164
aI1167
aI1169
aI1170
aI1172
aI1174
aI1176
aI1179
aI1180
aI1183
aI1184
aI1186
aI1189
aI1190
aI1192
aI1195
aI1197
aI1199
aa(lp362
I1
aI2
aI4
aI7
aI8
aI10
aI12
aI14
aI16
aI18
aI20
aI22
aI24
aI26
aI28
aI31
aI32
aI35
aI37
aI38
aI40
aI43
aI44
aI47
aI48
aI50
aI53
aI55
aI56
aI59
aI60
aI62
aI64
aI66
aI69
aI71
aI72
aI74
aI76
aI79
aI81
aI83
aI85
aI87
aI88
aI91
aI93
aI94
aI97
aI98
aI101
aI102
aI105
aI107
aI109
aI111
aI113
aI115
aI117
aI118
aI120
aI123
aI124
aI126
aI128
aI131
aI133
aI135
aI137
aI138
aI140
aI143
aI144
aI146
aI148
aI151
aI152
aI155
aI157
aI159
aI160
aI162
aI164
aI166
aI169
aI171
aI173
aI175
aI177
aI178
aI180
aI183
aI184
aI186
aI188
aI190
aI193
aI194
aI196
aI198
aI201
aI202
aI204
aI207
aI209
aI211
aI212
aI214
aI216
aI218
aI221
aI222
aI224
aI227
aI228
aI231
aI232
aI234
aI237
aI239
aI240
aI243
aI244
aI247
aI248
aI250
aI253
aI254
aI256
aI259
aI261
aI262
aI264
aI267
aI269
aI271
aI272
aI275
aI276
aI278
aI280
aI283
aI284
aI287
aI289
aI290
aI292
aI294
aI297
aI298
aI301
aI302
aI305
aI306
aI309
aI310
aI312
aI315
aI317
aI319
aI321
aI323
aI325
aI326
aI328
aI330
aI332
aI335
aI336
aI339
aI340
aI343
aI345
aI347
aI348
aI350
aI352
aI354
aI356
aI358
aI361
aI362
aI365
aI366
aI368
aI371
aI372
aI374
aI377
aI378
aI380
aI382
aI384
aI387
aI388
aI390
aI393
aI394
aI396
aI398
aI400
aI402
aI405
aI406
aI409
aI411
aI412
aI415
aI417
aI418
aI421
aI423
aI425
aI426
aI428
aI430
aI432
aI434
aI437
aI439
aI440
aI442
aI444
aI446
aI448
aI450
aI453
aI454
aI456
aI458
aI460
aI463
aI465
aI467
aI469
aI471
aI473
aI475
aI476
aI478
aI480
aI483
aI484
aI487
aI488
aI490
aI492
aI494
aI496
aI498
aI500
aI503
aI504
aI507
aI508
aI510
aI513
aI514
aI516
aI519
aI520
aI523
aI525
aI526
aI529
aI531
aI532
aI534
aI537
aI539
aI541
aI543
aI544
aI546
aI548
aI550
aI552
aI555
aI557
aI559
aI560
aI562
aI565
aI567
aI568
aI570
aI572
aI575
aI576
aI578
aI581
aI583
aI585
aI586
aI588
aI590
aI593
aI594
aI596
aI598
aI600
aI602
aI604
aI607
aI609
aI610
aI613
aI614
aI616
aI618
aI620
aI622
aI625
aI626
aI628
aI630
aI633
aI634
aI636
aI639
aI641
aI643
aI644
aI646
aI648
aI650
aI652
aI654
aI656
aI658
aI660
aI663
aI665
aI666
aI669
aI670
aI673
aI675
aI676
aI679
aI681
aI683
aI684
aI686
aI689
aI690
aI692
aI695
aI697
aI699
aI701
aI702
aI705
aI706
aI709
aI711
aI713
aI715
aI716
aI719
aI721
aI722
aI725
aI726
aI728
aI730
aI732
aI734
aI736
aI738
aI740
aI743
aI745
aI746
aI748
aI750
aI753
aI755
aI757
aI758
aI760
aI763
aI765
aI766
aI769
aI770
aI772
aI774
aI777
aI779
aI781
aI782
aI784
aI786
aI789
aI790
aI792
aI795
aI796
aI799
aI800
aI802
aI805
aI806
aI809
aI811
aI813
aI815
aI816
aI818
aI821
aI822
aI824
aI826
aI828
aI831
aI832
aI834
aI836
aI838
aI840
aI843
aI844
aI846
aI848
aI851
aI853
aI855
aI857
aI858
aI860
aI863
aI865
aI867
aI869
aI871
aI873
aI874
aI876
aI878
aI880
aI883
aI885
aI886
aI889
aI890
aI893
aI895
aI896
aI899
aI900
aI902
aI904
aI906
aI909
aI910
aI912
aI915
aI916
aI918
aI921
aI923
aI925
aI926
aI928
aI931
aI932
aI934
aI937
aI939
aI940
aI943
aI945
aI946
aI948
aI950
aI952
aI954
aI956
aI959
aI961
aI963
aI965
aI966
aI968
aI971
aI972
aI974
aI977
aI978
aI980
aI983
aI984
aI986
aI988
aI990
aI992
aI995
aI997
aI998
aI1000
aI1002
aI1005
aI1007
aI1009
aI1010
aI1012
aI1015
aI1016
aI1019
aI1021
aI1023
aI1024
aI1026
aI1029
aI1031
aI1032
aI1034
aI1036
aI1038
aI1040
aI1042
aI1045
aI1046
aI1049
aI1050
aI1052
aI1055
aI1057
aI1059
aI1060
aI1062
aI1065
aI1067
aI1068
aI1070
aI1072
aI1075
aI1076
aI1078
aI1081
aI1083
aI1084
aI1087
aI1089
aI1090
aI1092
aI1095
aI1096
aI1098
aI1100
aI1102
aI1105
aI1106
aI1108
aI1110
aI1113
aI1114
aI1117
aI1119
aI1120
aI1122
aI1124
aI1127
aI1128
aI1130
aI1133
aI1135
aI1136
aI1139
aI1140
aI1143
aI1145
aI1146
aI1148
aI1151
aI1153
aI1155
aI1156
aI1159
aI1160
aI1162
aI1164
aI1167
aI1169
aI1170
aI1172
aI1174
aI1176
aI1179
aI1180
aI1183
aI1184
aI1186
aI1189
aI1190
aI1192
aI1195
aI1197
aI1199
aa(lp363
I275
aI681
aI745
aa(lp364
I177
aI275
aI301
aa(lp365
I1
aI2
aI4
aI7
aI8
aI10
aI12
aI14
aI16
aI18
aI20
aI22
aI24
aI26
aI28
aI31
aI32
aI35
aI37
aI38
aI40
aI43
aI44
aI47
aI48
aI50
aI53
aI55
aI56
aI59
aI60
aI62
aI64
aI66
aI69
aI71
aI72
aI74
aI76
aI79
aI81
aI83
aI85
aI87
aI88
aI91
aI93
aI94
aI97
aI98
aI101
aI102
aI105
aI107
aI109
aI111
aI113
aI115
aI117
aI118
aI120
aI123
aI124
aI126
aI128
aI131
aI133
aI135
aI137
aI138
aI140
aI143
aI144
aI146
aI148
aI151
aI152
aI155
aI157
aI159
aI160
aI162
aI164
aI166
aI169
aI171
aI173
aI175
aI177
aI178
aI180
aI183
aI184
aI186
aI188
aI190
aI193
aI194
aI196
aI198
aI201
aI202
aI204
aI207
aI209
aI211
aI212
aI214
aI216
aI218
aI221
aI222
aI224
aI227
aI228
aI231
aI232
aI234
aI237
aI239
aI240
aI243
aI244
aI247
aI248
aI250
aI253
aI254
aI256
aI259
aI261
aI262
aI264
aI267
aI269
aI271
aI272
aI274
aI276
aI278
aI280
aI283
aI284
aI287
aI289
aI290
aI292
aI294
aI297
aI298
aI301
aI302
aI305
aI306
aI309
aI310
aI312
aI315
aI317
aI319
aI321
aI323
aI325
aI326
aI328
aI330
aI332
aI335
aI336
aI339
aI340
aI343
aI345
aI347
aI348
aI350
aI352
aI354
aI356
aI358
aI361
aI362
aI365
aI366
aI368
aI371
aI372
aI374
aI377
aI378
aI380
aI382
aI384
aI387
aI388
aI390
aI393
aI394
aI396
aI398
aI400
aI402
aI405
aI406
aI409
aI411
aI412
aI415
aI417
aI418
aI421
aI423
aI425
aI426
aI428
aI430
aI432
aI434
aI437
aI439
aI440
aI442
aI444
aI446
aI448
aI450
aI453
aI454
aI456
aI458
aI460
aI463
aI465
aI467
aI469
aI471
aI473
aI475
aI476
aI478
aI480
aI483
aI484
aI487
aI488
aI490
aI492
aI494
aI496
aI498
aI500
aI503
aI504
aI507
aI508
aI510
aI513
aI514
aI516
aI519
aI520
aI523
aI525
aI526
aI529
aI531
aI532
aI534
aI537
aI539
aI541
aI543
aI544
aI546
aI548
aI550
aI552
aI555
aI557
aI559
aI560
aI562
aI565
aI567
aI568
aI570
aI572
aI575
aI576
aI578
aI581
aI583
aI585
aI586
aI588
aI590
aI593
aI594
aI596
aI598
aI600
aI602
aI604
aI607
aI609
aI610
aI613
aI614
aI616
aI618
aI620
aI622
aI625
aI626
aI628
aI630
aI633
aI634
aI636
aI639
aI641
aI643
aI644
aI646
aI648
aI650
aI652
aI654
aI656
aI658
aI660
aI663
aI665
aI666
aI669
aI670
aI673
aI675
aI676
aI679
aI680
aI683
aI684
aI686
aI689
aI690
aI692
aI695
aI697
aI699
aI701
aI702
aI705
aI706
aI709
aI711
aI713
aI715
aI716
aI719
aI721
aI722
aI725
aI726
aI728
aI730
aI732
aI734
aI736
aI738
aI740
aI743
aI745
aI746
aI748
aI750
aI753
aI755
aI757
aI758
aI760
aI763
aI765
aI766
aI769
aI770
aI772
aI774
aI777
aI779
aI781
aI782
aI784
aI786
aI789
aI790
aI792
aI795
aI796
aI799
aI800
aI802
aI805
aI806
aI809
aI811
aI813
aI814
aI816
aI818
aI821
aI822
aI824
aI826
aI828
aI831
aI832
aI834
aI836
aI838
aI840
aI843
aI844
aI846
aI848
aI851
aI853
aI855
aI857
aI858
aI860
aI863
aI865
aI867
aI869
aI871
aI873
aI874
aI876
aI878
aI880
aI883
aI885
aI886
aI889
aI890
aI893
aI895
aI896
aI899
aI900
aI902
aI904
aI906
aI909
aI910
aI912
aI915
aI916
aI918
aI921
aI923
aI925
aI926
aI928
aI931
aI932
aI934
aI937
aI939
aI940
aI943
aI945
aI946
aI948
aI950
aI952
aI954
aI956
aI959
aI961
aI963
aI965
aI966
aI968
aI971
aI972
aI974
aI977
aI978
aI980
aI983
aI984
aI986
aI988
aI990
aI992
aI995
aI997
aI998
aI1000
aI1002
aI1005
aI1007
aI1009
aI1010
aI1012
aI1015
aI1016
aI1019
aI1021
aI1023
aI1024
aI1026
aI1029
aI1031
aI1032
aI1034
aI1036
aI1038
aI1040
aI1042
aI1045
aI1046
aI1049
aI1050
aI1052
aI1055
aI1057
aI1059
aI1060
aI1062
aI1065
aI1067
aI1068
aI1070
aI1072
aI1075
aI1076
aI1078
aI1081
aI1083
aI1084
aI1087
aI1089
aI1090
aI1092
aI1095
aI1096
aI1098
aI1100
aI1102
aI1105
aI1106
aI1108
aI1110
aI1113
aI1114
aI1117
aI1119
aI1120
aI1122
aI1124
aI1127
aI1128
aI1130
aI1133
aI1135
aI1136
aI1139
aI1140
aI1143
aI1145
aI1146
aI1148
aI1151
aI1153
aI1155
aI1156
aI1159
aI1160
aI1162
aI1164
aI1167
aI1169
aI1170
aI1172
aI1174
aI1176
aI1179
aI1180
aI1183
aI1184
aI1186
aI1189
aI1190
aI1192
aI1195
aI1197
aI1199
aa(lp366
I1
aI2
aI4
aI7
aI8
aI10
aI12
aI14
aI16
aI18
aI20
aI22
aI24
aI26
aI28
aI31
aI32
aI35
aI37
aI38
aI40
aI43
aI44
aI47
aI48
aI50
aI53
aI55
aI56
aI59
aI60
aI62
aI64
aI66
aI69
aI71
aI72
aI74
aI76
aI79
aI81
aI83
aI85
aI87
aI88
aI91
aI93
aI94
aI97
aI98
aI101
aI102
aI105
aI107
aI109
aI111
aI113
aI115
aI117
aI118
aI120
aI123
aI124
aI126
aI128
aI131
aI133
aI135
aI137
aI138
aI140
aI143
aI144
aI146
aI148
aI151
aI152
aI155
aI157
aI159
aI160
aI162
aI164
aI166
aI169
aI171
aI173
aI175
aI177
aI178
aI180
aI183
aI184
aI186
aI188
aI190
aI193
aI194
aI196
aI198
aI201
aI202
aI204
aI207
aI209
aI211
aI212
aI214
aI216
aI218
aI221
aI222
aI224
aI227
aI228
aI231
aI232
aI234
aI237
aI239
aI240
aI243
aI244
aI247
aI248
aI250
aI253
aI254
aI256
aI259
aI261
aI262
aI264
aI267
aI269
aI271
aI272
aI274
aI276
aI278
aI280
aI283
aI284
aI287
aI289
aI290
aI292
aI294
aI297
aI298
aI301
aI302
aI305
aI306
aI309
aI310
aI312
aI315
aI317
aI319
aI321
aI323
aI325
aI326
aI328
aI330
aI332
aI335
aI336
aI339
aI340
aI343
aI345
aI347
aI348
aI350
aI352
aI354
aI356
aI358
aI361
aI362
aI365
aI366
aI368
aI371
aI372
aI374
aI377
aI378
aI380
aI382
aI384
aI387
aI388
aI390
aI393
aI394
aI396
aI398
aI400
aI402
aI405
aI406
aI409
aI411
aI412
aI415
aI417
aI418
aI421
aI423
aI425
aI426
aI428
aI430
aI432
aI434
aI437
aI439
aI440
aI442
aI444
aI446
aI448
aI450
aI453
aI454
aI456
aI458
aI460
aI463
aI465
aI467
aI469
aI471
aI473
aI475
aI476
aI478
aI480
aI483
aI484
aI487
aI488
aI490
aI492
aI494
aI496
aI498
aI500
aI503
aI504
aI507
aI508
aI510
aI513
aI514
aI516
aI519
aI520
aI523
aI525
aI526
aI529
aI531
aI532
aI534
aI537
aI539
aI541
aI543
aI544
aI546
aI548
aI550
aI552
aI555
aI557
aI559
aI560
aI562
aI565
aI567
aI568
aI570
aI572
aI575
aI576
aI578
aI581
aI583
aI585
aI586
aI588
aI590
aI593
aI594
aI596
aI598
aI600
aI602
aI604
aI607
aI609
aI610
aI613
aI614
aI616
aI618
aI620
aI622
aI625
aI626
aI628
aI630
aI633
aI634
aI636
aI639
aI641
aI643
aI644
aI646
aI648
aI650
aI652
aI654
aI656
aI658
aI660
aI663
aI665
aI666
aI669
aI670
aI673
aI675
aI676
aI679
aI680
aI683
aI684
aI686
aI689
aI690
aI692
aI695
aI697
aI699
aI701
aI702
aI705
aI706
aI709
aI711
aI713
aI715
aI716
aI719
aI721
aI722
aI725
aI726
aI728
aI730
aI732
aI734
aI736
aI738
aI740
aI743
aI745
aI746
aI748
aI750
aI753
aI755
aI757
aI758
aI760
aI763
aI765
aI766
aI769
aI770
aI772
aI774
aI777
aI779
aI781
aI782
aI784
aI786
aI789
aI790
aI792
aI795
aI796
aI799
aI800
aI802
aI805
aI806
aI809
aI811
aI813
aI814
aI816
aI818
aI821
aI822
aI824
aI826
aI828
aI831
aI832
aI834
aI836
aI838
aI840
aI843
aI844
aI846
aI848
aI851
aI853
aI855
aI857
aI858
aI860
aI863
aI865
aI867
aI869
aI871
aI873
aI874
aI876
aI878
aI880
aI883
aI885
aI886
aI889
aI890
aI893
aI895
aI896
aI899
aI900
aI902
aI904
aI906
aI909
aI910
aI912
aI915
aI916
aI918
aI921
aI923
aI925
aI926
aI928
aI931
aI932
aI934
aI937
aI939
aI940
aI943
aI945
aI946
aI948
aI950
aI952
aI954
aI956
aI959
aI961
aI963
aI965
aI966
aI968
aI971
aI972
aI974
aI977
aI978
aI980
aI983
aI984
aI986
aI988
aI990
aI992
aI995
aI997
aI998
aI1000
aI1002
aI1005
aI1007
aI1009
aI1010
aI1012
aI1015
aI1016
aI1019
aI1021
aI1023
aI1024
aI1026
aI1029
aI1031
aI1032
aI1034
aI1036
aI1038
aI1040
aI1042
aI1045
aI1046
aI1049
aI1050
aI1052
aI1055
aI1057
aI1059
aI1060
aI1062
aI1065
aI1067
aI1068
aI1070
aI1072
aI1075
aI1076
aI1078
aI1081
aI1083
aI1084
aI1087
aI1089
aI1090
aI1092
aI1095
aI1096
aI1098
aI1100
aI1102
aI1105
aI1106
aI1108
aI1110
aI1113
aI1114
aI1117
aI1119
aI1120
aI1122
aI1124
aI1127
aI1128
aI1130
aI1133
aI1135
aI1136
aI1139
aI1140
aI1143
aI1145
aI1146
aI1148
aI1151
aI1153
aI1155
aI1156
aI1159
aI1160
aI1162
aI1164
aI1167
aI1169
aI1170
aI1172
aI1174
aI1176
aI1179
aI1180
aI1183
aI1184
aI1186
aI1189
aI1190
aI1193
aI1195
aI1197
aI1199
aa(lp367
I1
aI2
aI4
aI7
aI8
aI10
aI12
aI14
aI16
aI18
aI20
aI22
aI24
aI26
aI28
aI31
aI32
aI35
aI37
aI38
aI40
aI43
aI44
aI47
aI48
aI50
aI53
aI55
aI56
aI59
aI60
aI62
aI64
aI66
aI69
aI71
aI72
aI74
aI76
aI79
aI81
aI83
aI85
aI87
aI88
aI91
aI93
aI94
aI97
aI98
aI101
aI102
aI105
aI107
aI109
aI111
aI113
aI115
aI117
aI118
aI120
aI123
aI124
aI126
aI128
aI131
aI133
aI135
aI137
aI138
aI140
aI143
aI144
aI146
aI148
aI151
aI152
aI155
aI157
aI159
aI160
aI162
aI164
aI166
aI169
aI171
aI173
aI175
aI177
aI178
aI180
aI183
aI184
aI186
aI188
aI190
aI193
aI194
aI196
aI198
aI201
aI202
aI204
aI207
aI209
aI211
aI212
aI214
aI216
aI218
aI221
aI222
aI224
aI227
aI228
aI231
aI232
aI234
aI237
aI239
aI240
aI243
aI244
aI247
aI248
aI250
aI253
aI254
aI256
aI259
aI261
aI262
aI264
aI267
aI269
aI271
aI272
aI274
aI276
aI278
aI280
aI283
aI284
aI287
aI289
aI290
aI292
aI294
aI297
aI298
aI301
aI302
aI305
aI306
aI309
aI310
aI312
aI315
aI317
aI319
aI321
aI323
aI325
aI326
aI328
aI330
aI332
aI335
aI336
aI339
aI340
aI343
aI345
aI347
aI348
aI350
aI352
aI354
aI356
aI358
aI361
aI362
aI365
aI366
aI368
aI371
aI372
aI374
aI377
aI378
aI380
aI382
aI384
aI387
aI388
aI390
aI393
aI394
aI396
aI398
aI400
aI402
aI405
aI406
aI409
aI411
aI412
aI415
aI417
aI418
aI421
aI423
aI425
aI426
aI428
aI430
aI432
aI434
aI437
aI439
aI440
aI442
aI444
aI446
aI448
aI450
aI453
aI454
aI456
aI458
aI460
aI463
aI465
aI467
aI469
aI471
aI473
aI475
aI476
aI478
aI480
aI483
aI484
aI487
aI488
aI490
aI492
aI494
aI496
aI498
aI500
aI503
aI504
aI507
aI508
aI510
aI513
aI514
aI516
aI519
aI520
aI523
aI525
aI526
aI529
aI531
aI532
aI534
aI537
aI539
aI541
aI543
aI544
aI546
aI549
aI550
aI552
aI555
aI557
aI559
aI560
aI562
aI565
aI567
aI568
aI570
aI572
aI575
aI576
aI578
aI581
aI583
aI585
aI586
aI588
aI590
aI593
aI594
aI596
aI598
aI600
aI602
aI604
aI607
aI609
aI610
aI613
aI614
aI616
aI618
aI620
aI622
aI625
aI626
aI628
aI630
aI633
aI634
aI636
aI639
aI641
aI643
aI644
aI646
aI648
aI650
aI652
aI654
aI656
aI658
aI660
aI663
aI665
aI666
aI669
aI670
aI673
aI675
aI676
aI679
aI680
aI683
aI684
aI686
aI689
aI690
aI692
aI695
aI697
aI699
aI701
aI702
aI705
aI706
aI709
aI711
aI713
aI715
aI716
aI719
aI721
aI722
aI725
aI726
aI728
aI730
aI732
aI734
aI736
aI738
aI740
aI743
aI745
aI746
aI748
aI750
aI753
aI755
aI757
aI758
aI760
aI763
aI765
aI766
aI769
aI770
aI772
aI774
aI777
aI779
aI781
aI782
aI784
aI786
aI789
aI790
aI792
aI795
aI796
aI799
aI800
aI802
aI805
aI806
aI809
aI811
aI813
aI814
aI816
aI818
aI821
aI822
aI824
aI826
aI828
aI831
aI832
aI834
aI836
aI838
aI840
aI843
aI844
aI846
aI848
aI851
aI853
aI855
aI857
aI858
aI860
aI863
aI865
aI867
aI869
aI871
aI873
aI874
aI876
aI878
aI880
aI883
aI885
aI886
aI889
aI890
aI893
aI895
aI896
aI899
aI900
aI902
aI904
aI906
aI909
aI910
aI912
aI915
aI916
aI918
aI921
aI923
aI925
aI926
aI928
aI931
aI932
aI934
aI937
aI939
aI940
aI943
aI945
aI946
aI948
aI950
aI952
aI954
aI956
aI959
aI961
aI963
aI965
aI966
aI968
aI971
aI972
aI974
aI977
aI978
aI980
aI983
aI984
aI986
aI988
aI990
aI992
aI995
aI997
aI998
aI1000
aI1002
aI1005
aI1007
aI1009
aI1010
aI1012
aI1015
aI1016
aI1019
aI1021
aI1023
aI1024
aI1026
aI1029
aI1031
aI1032
aI1034
aI1036
aI1038
aI1040
aI1042
aI1045
aI1046
aI1049
aI1050
aI1052
aI1055
aI1057
aI1059
aI1060
aI1062
aI1065
aI1067
aI1068
aI1070
aI1072
aI1075
aI1076
aI1078
aI1081
aI1083
aI1084
aI1087
aI1089
aI1090
aI1092
aI1095
aI1096
aI1098
aI1100
aI1102
aI1105
aI1106
aI1108
aI1110
aI1113
aI1114
aI1117
aI1119
aI1120
aI1122
aI1124
aI1127
aI1128
aI1130
aI1133
aI1135
aI1136
aI1139
aI1140
aI1143
aI1145
aI1146
aI1148
aI1151
aI1153
aI1155
aI1156
aI1159
aI1160
aI1162
aI1164
aI1167
aI1169
aI1170
aI1172
aI1174
aI1176
aI1179
aI1180
aI1183
aI1184
aI1186
aI1189
aI1190
aI1193
aI1195
aI1197
aI1199
aa(lp368
I209
aI415
aI705
aI745
aI1043
aa(lp369
I47
aI415
aI745
aI1043
aa(lp370
I301
aI1043
aa(lp371
I549
aI744
aa(lp372
I1
aI2
aI4
aI7
aI8
aI10
aI12
aI14
aI16
aI18
aI20
aI22
aI24
aI26
aI28
aI31
aI32
aI35
aI37
aI38
aI40
aI43
aI44
aI47
aI48
aI50
aI53
aI55
aI56
aI59
aI60
aI62
aI64
aI66
aI69
aI71
aI72
aI74
aI76
aI79
aI81
aI83
aI85
aI87
aI88
aI91
aI93
aI94
aI97
aI98
aI101
aI102
aI105
aI107
aI109
aI111
aI113
aI115
aI117
aI118
aI120
aI123
aI124
aI126
aI128
aI131
aI133
aI135
aI137
aI138
aI140
aI143
aI144
aI146
aI148
aI151
aI152
aI155
aI157
aI159
aI160
aI162
aI164
aI166
aI169
aI171
aI173
aI175
aI176
aI178
aI180
aI183
aI184
aI186
aI188
aI190
aI193
aI194
aI196
aI198
aI201
aI202
aI204
aI207
aI208
aI211
aI212
aI214
aI216
aI218
aI221
aI222
aI224
aI227
aI228
aI231
aI232
aI234
aI237
aI239
aI240
aI243
aI244
aI247
aI248
aI250
aI253
aI254
aI256
aI259
aI261
aI262
aI264
aI267
aI269
aI271
aI272
aI274
aI276
aI278
aI280
aI283
aI284
aI287
aI289
aI290
aI292
aI294
aI297
aI298
aI301
aI302
aI305
aI306
aI309
aI310
aI312
aI315
aI317
aI319
aI321
aI323
aI325
aI326
aI328
aI330
aI332
aI335
aI336
aI339
aI340
aI343
aI345
aI347
aI348
aI350
aI352
aI354
aI356
aI358
aI361
aI362
aI365
aI366
aI368
aI371
aI372
aI374
aI377
aI378
aI380
aI382
aI384
aI387
aI388
aI390
aI393
aI394
aI396
aI398
aI400
aI402
aI405
aI406
aI409
aI411
aI412
aI415
aI417
aI418
aI421
aI423
aI425
aI426
aI428
aI430
aI432
aI434
aI437
aI439
aI440
aI442
aI444
aI446
aI448
aI450
aI453
aI454
aI456
aI458
aI460
aI463
aI465
aI467
aI469
aI471
aI473
aI475
aI476
aI478
aI480
aI483
aI484
aI487
aI488
aI490
aI492
aI494
aI496
aI498
aI500
aI503
aI504
aI507
aI508
aI510
aI513
aI514
aI516
aI519
aI520
aI523
aI525
aI526
aI529
aI531
aI532
aI534
aI537
aI539
aI541
aI543
aI544
aI546
aI549
aI550
aI552
aI555
aI557
aI559
aI560
aI562
aI565
aI567
aI568
aI570
aI572
aI575
aI576
aI578
aI581
aI583
aI585
aI586
aI588
aI590
aI593
aI594
aI596
aI598
aI600
aI602
aI604
aI607
aI609
aI610
aI613
aI614
aI616
aI618
aI620
aI622
aI625
aI626
aI628
aI630
aI633
aI634
aI636
aI639
aI641
aI643
aI644
aI646
aI648
aI650
aI652
aI654
aI656
aI658
aI660
aI663
aI665
aI666
aI669
aI670
aI673
aI675
aI676
aI679
aI680
aI683
aI684
aI686
aI689
aI690
aI692
aI695
aI697
aI699
aI701
aI702
aI705
aI706
aI709
aI711
aI713
aI715
aI716
aI719
aI721
aI722
aI725
aI726
aI728
aI730
aI732
aI734
aI736
aI738
aI740
aI743
aI745
aI746
aI748
aI750
aI753
aI755
aI757
aI758
aI760
aI763
aI765
aI766
aI769
aI770
aI772
aI774
aI777
aI779
aI781
aI782
aI784
aI786
aI789
aI790
aI792
aI795
aI796
aI799
aI800
aI802
aI805
aI806
aI809
aI811
aI813
aI814
aI816
aI818
aI821
aI822
aI824
aI826
aI828
aI831
aI832
aI834
aI836
aI838
aI840
aI843
aI844
aI846
aI848
aI851
aI853
aI855
aI857
aI858
aI860
aI863
aI865
aI867
aI869
aI871
aI873
aI874
aI876
aI878
aI880
aI883
aI885
aI886
aI889
aI890
aI893
aI895
aI896
aI899
aI900
aI902
aI904
aI906
aI909
aI910
aI912
aI915
aI916
aI918
aI921
aI923
aI925
aI926
aI928
aI931
aI932
aI934
aI937
aI939
aI940
aI943
aI945
aI946
aI948
aI950
aI952
aI954
aI956
aI959
aI961
aI963
aI965
aI966
aI968
aI971
aI972
aI974
aI977
aI978
aI980
aI983
aI984
aI986
aI988
aI990
aI992
aI995
aI997
aI998
aI1000
aI1002
aI1005
aI1007
aI1009
aI1010
aI1012
aI1015
aI1016
aI1019
aI1021
aI1023
aI1024
aI1026
aI1029
aI1031
aI1032
aI1034
aI1036
aI1038
aI1040
aI1042
aI1045
aI1046
aI1049
aI1050
aI1052
aI1055
aI1057
aI1059
aI1060
aI1062
aI1065
aI1067
aI1068
aI1070
aI1072
aI1075
aI1076
aI1078
aI1081
aI1083
aI1084
aI1087
aI1089
aI1090
aI1092
aI1095
aI1096
aI1098
aI1100
aI1102
aI1105
aI1106
aI1108
aI1110
aI1113
aI1114
aI1117
aI1119
aI1120
aI1122
aI1124
aI1127
aI1128
aI1130
aI1133
aI1135
aI1136
aI1139
aI1140
aI1143
aI1145
aI1146
aI1148
aI1151
aI1153
aI1155
aI1156
aI1159
aI1160
aI1162
aI1164
aI1167
aI1169
aI1170
aI1172
aI1174
aI1176
aI1179
aI1180
aI1183
aI1184
aI1186
aI1189
aI1190
aI1193
aI1195
aI1197
aI1199
aa(lp373
I125
aI301
aI705
aa(lp374
I125
aI301
aI1081
aa(lp375
I1
aI2
aI4
aI7
aI8
aI10
aI12
aI14
aI16
aI18
aI20
aI22
aI24
aI26
aI28
aI31
aI32
aI35
aI37
aI38
aI40
aI43
aI44
aI47
aI48
aI50
aI53
aI55
aI56
aI59
aI60
aI62
aI64
aI66
aI69
aI71
aI72
aI74
aI76
aI79
aI81
aI83
aI85
aI87
aI88
aI91
aI93
aI94
aI97
aI98
aI101
aI102
aI105
aI107
aI109
aI111
aI113
aI115
aI117
aI118
aI120
aI123
aI124
aI126
aI128
aI131
aI133
aI135
aI137
aI138
aI140
aI143
aI144
aI146
aI148
aI151
aI152
aI155
aI157
aI159
aI160
aI162
aI164
aI166
aI169
aI171
aI173
aI175
aI176
aI178
aI180
aI183
aI184
aI186
aI188
aI190
aI193
aI194
aI196
aI198
aI201
aI202
aI204
aI207
aI208
aI211
aI212
aI214
aI216
aI218
aI221
aI222
aI224
aI227
aI228
aI231
aI232
aI234
aI237
aI239
aI240
aI243
aI244
aI247
aI248
aI250
aI253
aI254
aI256
aI259
aI261
aI262
aI264
aI267
aI269
aI271
aI272
aI274
aI276
aI278
aI280
aI283
aI284
aI287
aI289
aI290
aI292
aI294
aI297
aI298
aI301
aI302
aI305
aI306
aI309
aI310
aI312
aI315
aI317
aI319
aI321
aI323
aI325
aI326
aI328
aI330
aI332
aI335
aI336
aI339
aI340
aI343
aI345
aI347
aI348
aI350
aI352
aI354
aI356
aI358
aI361
aI362
aI365
aI366
aI368
aI371
aI372
aI374
aI377
aI378
aI380
aI382
aI384
aI387
aI388
aI390
aI393
aI394
aI396
aI398
aI400
aI402
aI405
aI406
aI409
aI411
aI412
aI415
aI417
aI418
aI421
aI423
aI425
aI426
aI428
aI430
aI432
aI434
aI437
aI439
aI440
aI442
aI444
aI446
aI448
aI450
aI453
aI454
aI456
aI458
aI460
aI463
aI465
aI467
aI469
aI471
aI473
aI475
aI476
aI478
aI480
aI483
aI484
aI487
aI488
aI490
aI492
aI494
aI496
aI498
aI500
aI503
aI504
aI507
aI508
aI510
aI513
aI514
aI516
aI519
aI520
aI523
aI525
aI526
aI529
aI531
aI532
aI534
aI537
aI539
aI541
aI543
aI544
aI546
aI549
aI550
aI552
aI555
aI557
aI559
aI560
aI562
aI565
aI567
aI568
aI570
aI572
aI575
aI576
aI578
aI581
aI583
aI585
aI586
aI588
aI590
aI593
aI594
aI596
aI598
aI600
aI602
aI604
aI607
aI609
aI610
aI613
aI614
aI616
aI618
aI620
aI622
aI625
aI626
aI628
aI630
aI633
aI634
aI636
aI639
aI641
aI643
aI644
aI646
aI648
aI650
aI652
aI654
aI656
aI658
aI660
aI663
aI665
aI666
aI669
aI670
aI673
aI675
aI676
aI679
aI680
aI683
aI684
aI686
aI689
aI690
aI692
aI695
aI697
aI699
aI701
aI702
aI704
aI706
aI709
aI711
aI713
aI715
aI716
aI719
aI721
aI722
aI725
aI726
aI728
aI730
aI732
aI734
aI736
aI738
aI740
aI743
aI745
aI746
aI748
aI750
aI753
aI755
aI757
aI758
aI760
aI763
aI765
aI766
aI769
aI770
aI772
aI774
aI777
aI779
aI781
aI782
aI784
aI786
aI789
aI790
aI792
aI795
aI796
aI799
aI800
aI802
aI805
aI806
aI809
aI811
aI813
aI814
aI816
aI818
aI821
aI822
aI824
aI826
aI828
aI831
aI832
aI834
aI836
aI838
aI840
aI843
aI844
aI846
aI848
aI851
aI853
aI855
aI857
aI858
aI860
aI863
aI865
aI867
aI869
aI871
aI873
aI874
aI876
aI878
aI880
aI883
aI885
aI886
aI889
aI890
aI893
aI895
aI896
aI899
aI900
aI902
aI904
aI906
aI909
aI910
aI912
aI915
aI916
aI918
aI921
aI923
aI925
aI926
aI928
aI931
aI932
aI934
aI937
aI939
aI940
aI943
aI945
aI946
aI948
aI950
aI952
aI954
aI956
aI959
aI961
aI963
aI965
aI966
aI968
aI971
aI972
aI974
aI977
aI978
aI980
aI983
aI984
aI986
aI988
aI990
aI992
aI995
aI997
aI998
aI1000
aI1002
aI1005
aI1007
aI1009
aI1010
aI1012
aI1015
aI1016
aI1019
aI1021
aI1023
aI1024
aI1026
aI1029
aI1031
aI1032
aI1034
aI1036
aI1038
aI1040
aI1042
aI1045
aI1046
aI1049
aI1050
aI1052
aI1055
aI1057
aI1059
aI1060
aI1062
aI1065
aI1067
aI1068
aI1070
aI1072
aI1075
aI1076
aI1078
aI1081
aI1083
aI1084
aI1087
aI1089
aI1090
aI1092
aI1095
aI1096
aI1098
aI1100
aI1102
aI1105
aI1106
aI1108
aI1110
aI1113
aI1114
aI1117
aI1119
aI1120
aI1122
aI1124
aI1127
aI1128
aI1130
aI1133
aI1135
aI1136
aI1139
aI1140
aI1143
aI1145
aI1146
aI1148
aI1151
aI1153
aI1155
aI1156
aI1159
aI1160
aI1162
aI1164
aI1167
aI1169
aI1170
aI1172
aI1174
aI1176
aI1179
aI1180
aI1183
aI1184
aI1186
aI1189
aI1190
aI1193
aI1195
aI1197
aI1199
aa(lp376
I1
aI2
aI4
aI7
aI8
aI10
aI12
aI14
aI16
aI18
aI20
aI22
aI24
aI26
aI28
aI31
aI32
aI35
aI37
aI38
aI40
aI43
aI44
aI47
aI48
aI50
aI53
aI55
aI56
aI59
aI60
aI62
aI64
aI66
aI69
aI71
aI72
aI74
aI76
aI79
aI81
aI83
aI85
aI87
aI88
aI91
aI93
aI94
aI97
aI98
aI101
aI102
aI105
aI107
aI109
aI111
aI113
aI115
aI117
aI118
aI120
aI123
aI124
aI126
aI128
aI131
aI133
aI135
aI137
aI138
aI140
aI143
aI144
aI146
aI148
aI151
aI152
aI155
aI157
aI159
aI160
aI162
aI164
aI166
aI169
aI171
aI173
aI175
aI176
aI178
aI180
aI183
aI184
aI186
aI188
aI190
aI193
aI194
aI196
aI198
aI201
aI202
aI204
aI207
aI208
aI211
aI212
aI214
aI216
aI218
aI221
aI222
aI224
aI227
aI228
aI231
aI232
aI234
aI237
aI239
aI240
aI243
aI244
aI247
aI248
aI250
aI253
aI254
aI256
aI259
aI261
aI262
aI264
aI267
aI269
aI271
aI272
aI274
aI276
aI278
aI280
aI283
aI284
aI287
aI289
aI290
aI292
aI294
aI297
aI298
aI301
aI302
aI305
aI306
aI309
aI310
aI312
aI315
aI317
aI319
aI321
aI323
aI325
aI326
aI328
aI330
aI332
aI335
aI336
aI339
aI340
aI343
aI345
aI347
aI348
aI350
aI352
aI354
aI356
aI358
aI361
aI362
aI365
aI366
aI368
aI371
aI372
aI374
aI377
aI378
aI380
aI382
aI384
aI387
aI388
aI390
aI393
aI394
aI396
aI398
aI400
aI402
aI405
aI406
aI409
aI411
aI412
aI415
aI417
aI418
aI421
aI423
aI425
aI426
aI428
aI430
aI432
aI434
aI437
aI439
aI440
aI442
aI444
aI446
aI448
aI450
aI453
aI454
aI456
aI458
aI460
aI463
aI465
aI467
aI469
aI471
aI473
aI475
aI476
aI478
aI480
aI483
aI484
aI487
aI488
aI490
aI492
aI494
aI496
aI498
aI500
aI503
aI504
aI507
aI508
aI510
aI513
aI514
aI516
aI519
aI520
aI523
aI525
aI526
aI529
aI531
aI532
aI534
aI537
aI539
aI541
aI543
aI544
aI546
aI549
aI550
aI552
aI555
aI557
aI559
aI560
aI562
aI565
aI567
aI568
aI570
aI572
aI575
aI576
aI578
aI581
aI583
aI585
aI586
aI588
aI590
aI593
aI594
aI596
aI598
aI600
aI602
aI604
aI607
aI609
aI610
aI613
aI614
aI616
aI618
aI620
aI622
aI625
aI626
aI628
aI630
aI633
aI634
aI636
aI639
aI641
aI643
aI644
aI646
aI648
aI650
aI652
aI654
aI656
aI658
aI660
aI663
aI665
aI666
aI669
aI670
aI673
aI675
aI676
aI679
aI680
aI683
aI684
aI686
aI689
aI690
aI692
aI695
aI697
aI699
aI701
aI702
aI704
aI706
aI709
aI711
aI713
aI715
aI716
aI719
aI721
aI722
aI725
aI726
aI728
aI730
aI732
aI734
aI736
aI738
aI740
aI743
aI745
aI746
aI748
aI750
aI753
aI755
aI757
aI758
aI760
aI763
aI765
aI766
aI769
aI770
aI772
aI774
aI777
aI779
aI781
aI782
aI784
aI786
aI789
aI790
aI792
aI795
aI796
aI799
aI800
aI802
aI805
aI806
aI809
aI811
aI813
aI814
aI816
aI818
aI821
aI822
aI824
aI826
aI828
aI831
aI832
aI834
aI836
aI838
aI840
aI843
aI844
aI846
aI848
aI851
aI853
aI855
aI857
aI858
aI860
aI863
aI865
aI867
aI869
aI871
aI873
aI874
aI876
aI878
aI880
aI883
aI885
aI886
aI889
aI890
aI893
aI895
aI896
aI899
aI900
aI902
aI904
aI906
aI909
aI910
aI912
aI915
aI916
aI918
aI921
aI922
aI925
aI926
aI928
aI931
aI932
aI934
aI937
aI939
aI940
aI943
aI945
aI946
aI948
aI950
aI952
aI954
aI956
aI959
aI961
aI963
aI965
aI966
aI968
aI971
aI972
aI974
aI977
aI978
aI980
aI983
aI984
aI986
aI988
aI990
aI992
aI995
aI997
aI998
aI1000
aI1002
aI1005
aI1007
aI1009
aI1010
aI1012
aI1015
aI1016
aI1019
aI1021
aI1023
aI1024
aI1026
aI1029
aI1031
aI1032
aI1034
aI1036
aI1038
aI1040
aI1042
aI1045
aI1046
aI1049
aI1050
aI1052
aI1055
aI1057
aI1059
aI1060
aI1062
aI1065
aI1067
aI1068
aI1070
aI1072
aI1075
aI1076
aI1078
aI1081
aI1083
aI1084
aI1087
aI1089
aI1090
aI1092
aI1095
aI1096
aI1098
aI1100
aI1102
aI1105
aI1106
aI1108
aI1110
aI1113
aI1114
aI1117
aI1119
aI1120
aI1122
aI1124
aI1127
aI1128
aI1130
aI1133
aI1135
aI1136
aI1139
aI1140
aI1143
aI1145
aI1146
aI1148
aI1151
aI1153
aI1155
aI1156
aI1159
aI1160
aI1162
aI1164
aI1167
aI1169
aI1170
aI1172
aI1174
aI1176
aI1179
aI1180
aI1183
aI1184
aI1186
aI1189
aI1190
aI1193
aI1195
aI1197
aI1199
aa(lp377
I1
aI2
aI4
aI7
aI8
aI10
aI12
aI14
aI16
aI18
aI20
aI22
aI24
aI26
aI28
aI31
aI32
aI35
aI37
aI38
aI40
aI43
aI44
aI47
aI48
aI50
aI53
aI55
aI56
aI59
aI60
aI62
aI64
aI66
aI69
aI71
aI72
aI74
aI76
aI79
aI81
aI83
aI85
aI87
aI88
aI91
aI93
aI94
aI97
aI98
aI101
aI102
aI105
aI107
aI109
aI111
aI113
aI115
aI117
aI118
aI120
aI123
aI124
aI126
aI128
aI131
aI133
aI135
aI137
aI138
aI140
aI143
aI144
aI146
aI148
aI151
aI152
aI155
aI157
aI159
aI160
aI162
aI164
aI166
aI169
aI171
aI173
aI175
aI176
aI178
aI180
aI183
aI184
aI186
aI188
aI190
aI193
aI194
aI196
aI198
aI201
aI202
aI204
aI207
aI208
aI211
aI212
aI214
aI216
aI218
aI221
aI222
aI224
aI227
aI228
aI231
aI232
aI234
aI237
aI239
aI240
aI243
aI244
aI247
aI248
aI250
aI253
aI254
aI256
aI259
aI261
aI262
aI264
aI267
aI269
aI271
aI272
aI274
aI276
aI278
aI280
aI283
aI284
aI287
aI289
aI290
aI292
aI294
aI297
aI298
aI301
aI302
aI305
aI306
aI309
aI310
aI312
aI315
aI317
aI319
aI321
aI323
aI325
aI326
aI328
aI330
aI332
aI335
aI336
aI339
aI340
aI343
aI345
aI347
aI348
aI350
aI352
aI354
aI356
aI358
aI361
aI362
aI365
aI366
aI368
aI371
aI372
aI374
aI377
aI378
aI380
aI382
aI384
aI387
aI388
aI390
aI393
aI394
aI396
aI398
aI400
aI402
aI405
aI406
aI409
aI411
aI412
aI415
aI417
aI418
aI421
aI423
aI425
aI426
aI428
aI430
aI432
aI434
aI437
aI439
aI440
aI442
aI444
aI446
aI448
aI451
aI453
aI454
aI456
aI458
aI460
aI463
aI465
aI467
aI469
aI471
aI473
aI475
aI476
aI478
aI480
aI483
aI484
aI487
aI488
aI490
aI492
aI494
aI496
aI498
aI500
aI503
aI504
aI507
aI508
aI510
aI513
aI514
aI516
aI519
aI520
aI523
aI525
aI526
aI529
aI531
aI532
aI534
aI537
aI539
aI541
aI543
aI544
aI546
aI549
aI550
aI552
aI555
aI557
aI559
aI560
aI562
aI565
aI567
aI568
aI570
aI572
aI575
aI576
aI578
aI581
aI583
aI585
aI586
aI588
aI590
aI593
aI594
aI596
aI598
aI600
aI602
aI604
aI607
aI609
aI610
aI613
aI614
aI616
aI618
aI620
aI622
aI625
aI626
aI628
aI630
aI633
aI634
aI636
aI639
aI641
aI643
aI644
aI646
aI648
aI650
aI652
aI654
aI656
aI658
aI660
aI663
aI665
aI666
aI669
aI670
aI673
aI675
aI676
aI679
aI680
aI683
aI684
aI686
aI689
aI690
aI692
aI695
aI697
aI699
aI701
aI702
aI704
aI706
aI709
aI711
aI713
aI715
aI716
aI719
aI721
aI722
aI725
aI726
aI728
aI730
aI732
aI734
aI736
aI738
aI740
aI743
aI745
aI746
aI748
aI750
aI753
aI755
aI757
aI758
aI760
aI763
aI765
aI766
aI769
aI770
aI772
aI774
aI777
aI779
aI781
aI782
aI784
aI786
aI789
aI790
aI792
aI795
aI796
aI799
aI800
aI802
aI805
aI806
aI809
aI811
aI813
aI814
aI816
aI818
aI821
aI822
aI824
aI826
aI828
aI831
aI832
aI834
aI836
aI838
aI840
aI843
aI844
aI846
aI848
aI851
aI853
aI855
aI857
aI858
aI860
aI863
aI865
aI867
aI869
aI871
aI873
aI874
aI876
aI878
aI880
aI883
aI885
aI886
aI889
aI890
aI893
aI895
aI896
aI899
aI900
aI902
aI904
aI906
aI909
aI910
aI912
aI915
aI916
aI918
aI921
aI922
aI925
aI926
aI928
aI931
aI932
aI934
aI937
aI939
aI940
aI943
aI945
aI946
aI948
aI950
aI952
aI954
aI956
aI959
aI961
aI963
aI965
aI966
aI968
aI971
aI972
aI974
aI977
aI978
aI980
aI983
aI984
aI986
aI988
aI990
aI992
aI995
aI997
aI998
aI1000
aI1002
aI1005
aI1007
aI1009
aI1010
aI1012
aI1015
aI1016
aI1019
aI1021
aI1023
aI1024
aI1026
aI1029
aI1031
aI1032
aI1034
aI1036
aI1038
aI1040
aI1042
aI1045
aI1046
aI1049
aI1050
aI1052
aI1055
aI1057
aI1059
aI1060
aI1062
aI1065
aI1067
aI1068
aI1070
aI1072
aI1075
aI1076
aI1078
aI1081
aI1083
aI1084
aI1087
aI1089
aI1090
aI1092
aI1095
aI1096
aI1098
aI1100
aI1102
aI1105
aI1106
aI1108
aI1110
aI1113
aI1114
aI1117
aI1119
aI1120
aI1122
aI1124
aI1127
aI1128
aI1130
aI1133
aI1135
aI1136
aI1139
aI1140
aI1143
aI1145
aI1146
aI1148
aI1151
aI1153
aI1155
aI1156
aI1159
aI1160
aI1162
aI1164
aI1167
aI1169
aI1170
aI1172
aI1174
aI1176
aI1179
aI1180
aI1183
aI1184
aI1186
aI1189
aI1190
aI1193
aI1195
aI1197
aI1199
aa(lp378
I401
aI549
aa(lp379
I1
aI2
aI4
aI7
aI8
aI10
aI12
aI14
aI16
aI18
aI20
aI22
aI24
aI26
aI28
aI31
aI32
aI35
aI37
aI38
aI40
aI43
aI44
aI47
aI48
aI50
aI53
aI55
aI56
aI59
aI60
aI62
aI64
aI66
aI69
aI71
aI72
aI74
aI76
aI79
aI81
aI83
aI85
aI87
aI88
aI91
aI93
aI94
aI97
aI98
aI101
aI102
aI105
aI107
aI109
aI111
aI113
aI115
aI117
aI118
aI120
aI123
aI124
aI126
aI128
aI131
aI133
aI135
aI137
aI138
aI140
aI143
aI144
aI146
aI148
aI151
aI152
aI155
aI157
aI159
aI160
aI162
aI164
aI166
aI169
aI171
aI173
aI175
aI176
aI178
aI180
aI183
aI184
aI186
aI188
aI190
aI193
aI194
aI196
aI198
aI201
aI202
aI204
aI207
aI208
aI211
aI212
aI214
aI216
aI218
aI221
aI222
aI224
aI227
aI228
aI231
aI232
aI234
aI237
aI239
aI240
aI243
aI244
aI247
aI248
aI250
aI253
aI254
aI256
aI259
aI261
aI262
aI264
aI267
aI269
aI271
aI272
aI274
aI276
aI278
aI280
aI283
aI284
aI287
aI289
aI290
aI292
aI294
aI297
aI298
aI301
aI302
aI305
aI306
aI309
aI310
aI312
aI315
aI317
aI319
aI321
aI323
aI325
aI326
aI328
aI330
aI332
aI335
aI336
aI339
aI340
aI343
aI345
aI347
aI348
aI350
aI352
aI354
aI356
aI358
aI361
aI362
aI365
aI366
aI368
aI371
aI372
aI374
aI377
aI378
aI380
aI382
aI384
aI387
aI388
aI390
aI393
aI394
aI396
aI398
aI400
aI402
aI405
aI406
aI409
aI411
aI412
aI415
aI417
aI418
aI421
aI423
aI425
aI426
aI428
aI430
aI432
aI434
aI437
aI439
aI440
aI442
aI444
aI446
aI448
aI451
aI453
aI454
aI456
aI458
aI460
aI463
aI465
aI467
aI469
aI471
aI473
aI475
aI476
aI478
aI480
aI483
aI484
aI487
aI488
aI490
aI492
aI494
aI496
aI498
aI500
aI503
aI504
aI507
aI508
aI510
aI513
aI514
aI516
aI519
aI520
aI523
aI525
aI526
aI529
aI531
aI532
aI534
aI537
aI539
aI541
aI543
aI544
aI546
aI549
aI550
aI552
aI555
aI557
aI559
aI560
aI562
aI565
aI567
aI568
aI570
aI572
aI575
aI576
aI578
aI581
aI583
aI585
aI586
aI588
aI590
aI593
aI594
aI596
aI598
aI600
aI602
aI604
aI607
aI609
aI610
aI613
aI614
aI616
aI618
aI620
aI622
aI625
aI626
aI628
aI630
aI633
aI634
aI636
aI639
aI641
aI643
aI644
aI646
aI648
aI650
aI652
aI654
aI656
aI658
aI660
aI663
aI665
aI666
aI669
aI670
aI673
aI675
aI676
aI679
aI680
aI683
aI684
aI686
aI689
aI690
aI692
aI695
aI697
aI699
aI701
aI702
aI704
aI706
aI709
aI711
aI713
aI715
aI716
aI719
aI721
aI722
aI725
aI726
aI728
aI730
aI732
aI734
aI736
aI738
aI740
aI743
aI745
aI746
aI748
aI750
aI753
aI755
aI757
aI758
aI760
aI763
aI765
aI766
aI769
aI770
aI772
aI774
aI777
aI779
aI781
aI782
aI784
aI786
aI789
aI790
aI792
aI795
aI796
aI799
aI800
aI802
aI805
aI806
aI809
aI811
aI813
aI814
aI816
aI818
aI821
aI822
aI824
aI826
aI828
aI831
aI832
aI834
aI836
aI838
aI840
aI843
aI844
aI847
aI848
aI851
aI853
aI855
aI857
aI858
aI860
aI863
aI865
aI867
aI869
aI871
aI873
aI874
aI876
aI878
aI880
aI883
aI885
aI886
aI889
aI890
aI893
aI895
aI896
aI899
aI900
aI902
aI904
aI906
aI909
aI910
aI912
aI915
aI916
aI918
aI921
aI922
aI925
aI926
aI928
aI931
aI932
aI934
aI937
aI939
aI940
aI943
aI945
aI946
aI948
aI950
aI952
aI954
aI956
aI959
aI961
aI963
aI965
aI966
aI968
aI971
aI972
aI974
aI977
aI978
aI980
aI983
aI984
aI986
aI988
aI990
aI992
aI995
aI997
aI998
aI1000
aI1002
aI1005
aI1007
aI1009
aI1010
aI1012
aI1015
aI1016
aI1019
aI1021
aI1023
aI1024
aI1026
aI1029
aI1031
aI1032
aI1034
aI1036
aI1038
aI1040
aI1042
aI1045
aI1046
aI1049
aI1050
aI1052
aI1055
aI1057
aI1059
aI1060
aI1062
aI1065
aI1067
aI1068
aI1070
aI1072
aI1075
aI1076
aI1078
aI1081
aI1083
aI1084
aI1087
aI1089
aI1090
aI1092
aI1095
aI1096
aI1098
aI1100
aI1102
aI1105
aI1106
aI1108
aI1110
aI1113
aI1114
aI1117
aI1119
aI1120
aI1122
aI1124
aI1127
aI1128
aI1130
aI1133
aI1135
aI1136
aI1139
aI1140
aI1143
aI1145
aI1146
aI1148
aI1151
aI1153
aI1155
aI1156
aI1159
aI1160
aI1162
aI1164
aI1167
aI1169
aI1170
aI1172
aI1174
aI1176
aI1179
aI1180
aI1183
aI1184
aI1186
aI1189
aI1190
aI1193
aI1195
aI1197
aI1199
aa(lp380
I1
aI2
aI4
aI7
aI8
aI10
aI12
aI14
aI16
aI18
aI20
aI22
aI24
aI26
aI28
aI31
aI32
aI35
aI37
aI38
aI40
aI43
aI44
aI47
aI48
aI50
aI53
aI55
aI56
aI59
aI60
aI62
aI64
aI66
aI69
aI71
aI72
aI74
aI76
aI79
aI81
aI83
aI85
aI87
aI88
aI91
aI93
aI94
aI97
aI98
aI101
aI102
aI105
aI107
aI109
aI111
aI113
aI115
aI117
aI118
aI120
aI123
aI124
aI126
aI128
aI131
aI133
aI135
aI137
aI138
aI140
aI143
aI144
aI146
aI148
aI151
aI152
aI155
aI157
aI159
aI160
aI162
aI164
aI166
aI169
aI171
aI173
aI175
aI176
aI178
aI180
aI183
aI184
aI186
aI188
aI190
aI193
aI194
aI196
aI198
aI201
aI202
aI204
aI207
aI208
aI211
aI212
aI214
aI216
aI218
aI221
aI222
aI224
aI227
aI228
aI231
aI232
aI234
aI237
aI239
aI240
aI243
aI244
aI247
aI248
aI250
aI253
aI254
aI256
aI259
aI261
aI262
aI264
aI267
aI269
aI271
aI272
aI274
aI276
aI278
aI280
aI283
aI284
aI287
aI289
aI290
aI292
aI294
aI297
aI298
aI301
aI302
aI305
aI306
aI309
aI310
aI312
aI315
aI317
aI319
aI321
aI323
aI325
aI326
aI328
aI330
aI332
aI335
aI336
aI339
aI340
aI343
aI345
aI347
aI348
aI350
aI352
aI354
aI356
aI358
aI361
aI362
aI365
aI366
aI368
aI371
aI372
aI374
aI377
aI378
aI380
aI382
aI384
aI387
aI388
aI390
aI393
aI394
aI396
aI398
aI400
aI402
aI405
aI406
aI409
aI411
aI412
aI415
aI417
aI418
aI421
aI423
aI425
aI426
aI428
aI430
aI432
aI434
aI437
aI439
aI440
aI442
aI444
aI446
aI448
aI451
aI453
aI454
aI456
aI458
aI460
aI463
aI465
aI467
aI469
aI471
aI473
aI475
aI476
aI478
aI480
aI483
aI484
aI487
aI488
aI490
aI492
aI494
aI496
aI498
aI500
aI503
aI504
aI507
aI508
aI510
aI513
aI514
aI516
aI519
aI520
aI523
aI525
aI526
aI529
aI531
aI532
aI534
aI537
aI539
aI541
aI543
aI544
aI546
aI549
aI550
aI552
aI555
aI557
aI559
aI560
aI562
aI565
aI567
aI568
aI570
aI572
aI575
aI576
aI578
aI581
aI583
aI585
aI586
aI588
aI590
aI593
aI594
aI596
aI598
aI600
aI602
aI604
aI607
aI609
aI610
aI613
aI614
aI617
aI618
aI620
aI622
aI625
aI626
aI628
aI630
aI633
aI634
aI636
aI639
aI641
aI643
aI644
aI646
aI648
aI650
aI652
aI654
aI656
aI658
aI660
aI663
aI665
aI666
aI669
aI670
aI673
aI675
aI676
aI679
aI680
aI683
aI684
aI686
aI689
aI690
aI692
aI695
aI697
aI699
aI701
aI702
aI704
aI706
aI709
aI711
aI713
aI715
aI716
aI719
aI721
aI722
aI725
aI726
aI728
aI730
aI732
aI734
aI736
aI738
aI740
aI743
aI745
aI746
aI748
aI750
aI753
aI755
aI757
aI758
aI760
aI763
aI765
aI766
aI769
aI770
aI772
aI774
aI777
aI779
aI781
aI782
aI784
aI786
aI789
aI790
aI792
aI795
aI796
aI799
aI800
aI802
aI805
aI806
aI809
aI811
aI813
aI814
aI816
aI818
aI821
aI822
aI824
aI826
aI828
aI831
aI832
aI834
aI836
aI838
aI840
aI843
aI844
aI847
aI848
aI851
aI853
aI855
aI857
aI858
aI860
aI863
aI865
aI867
aI869
aI871
aI873
aI874
aI876
aI878
aI880
aI883
aI885
aI886
aI889
aI890
aI893
aI895
aI896
aI899
aI900
aI902
aI904
aI906
aI909
aI910
aI912
aI915
aI916
aI918
aI921
aI922
aI925
aI926
aI928
aI931
aI932
aI934
aI937
aI939
aI940
aI943
aI945
aI946
aI948
aI950
aI952
aI954
aI956
aI959
aI961
aI963
aI965
aI966
aI968
aI971
aI972
aI974
aI977
aI978
aI980
aI983
aI984
aI986
aI988
aI990
aI992
aI995
aI997
aI998
aI1000
aI1002
aI1005
aI1007
aI1009
aI1010
aI1012
aI1015
aI1016
aI1019
aI1021
aI1023
aI1024
aI1026
aI1029
aI1031
aI1032
aI1034
aI1036
aI1038
aI1040
aI1042
aI1045
aI1046
aI1049
aI1050
aI1052
aI1055
aI1057
aI1059
aI1060
aI1062
aI1065
aI1067
aI1068
aI1070
aI1072
aI1075
aI1076
aI1078
aI1081
aI1083
aI1084
aI1087
aI1089
aI1090
aI1092
aI1095
aI1096
aI1098
aI1100
aI1102
aI1105
aI1106
aI1108
aI1110
aI1113
aI1114
aI1117
aI1119
aI1120
aI1122
aI1124
aI1127
aI1128
aI1130
aI1133
aI1135
aI1136
aI1139
aI1140
aI1143
aI1145
aI1146
aI1148
aI1151
aI1153
aI1155
aI1156
aI1159
aI1160
aI1162
aI1164
aI1167
aI1169
aI1170
aI1172
aI1174
aI1176
aI1179
aI1180
aI1183
aI1184
aI1186
aI1189
aI1190
aI1193
aI1195
aI1197
aI1199
aa(lp381
I1
aI2
aI4
aI7
aI8
aI10
aI12
aI14
aI16
aI18
aI20
aI22
aI24
aI26
aI28
aI31
aI32
aI35
aI37
aI38
aI40
aI43
aI44
aI47
aI48
aI50
aI53
aI55
aI56
aI59
aI60
aI62
aI64
aI66
aI69
aI71
aI72
aI74
aI76
aI79
aI81
aI83
aI85
aI87
aI88
aI91
aI93
aI94
aI97
aI98
aI101
aI102
aI105
aI107
aI109
aI111
aI113
aI115
aI117
aI118
aI120
aI123
aI124
aI126
aI128
aI131
aI133
aI135
aI137
aI138
aI140
aI143
aI144
aI146
aI148
aI151
aI152
aI155
aI157
aI159
aI160
aI162
aI164
aI166
aI169
aI171
aI173
aI175
aI176
aI178
aI180
aI183
aI184
aI186
aI188
aI190
aI193
aI194
aI196
aI198
aI201
aI202
aI204
aI207
aI208
aI211
aI212
aI214
aI216
aI218
aI221
aI222
aI224
aI227
aI228
aI231
aI232
aI234
aI237
aI239
aI240
aI243
aI244
aI247
aI248
aI250
aI253
aI254
aI256
aI259
aI261
aI262
aI264
aI267
aI269
aI271
aI272
aI274
aI276
aI278
aI280
aI283
aI284
aI287
aI289
aI290
aI292
aI294
aI297
aI298
aI301
aI302
aI305
aI306
aI309
aI310
aI312
aI315
aI317
aI319
aI321
aI323
aI325
aI326
aI328
aI330
aI332
aI335
aI336
aI339
aI340
aI343
aI345
aI347
aI348
aI350
aI352
aI354
aI356
aI358
aI361
aI362
aI365
aI366
aI368
aI371
aI372
aI374
aI377
aI378
aI380
aI382
aI384
aI387
aI388
aI390
aI393
aI394
aI396
aI398
aI400
aI402
aI405
aI406
aI409
aI411
aI412
aI415
aI417
aI418
aI421
aI423
aI425
aI426
aI428
aI430
aI432
aI434
aI437
aI439
aI440
aI442
aI444
aI446
aI448
aI451
aI453
aI454
aI456
aI458
aI460
aI463
aI465
aI467
aI469
aI471
aI473
aI475
aI476
aI478
aI480
aI483
aI484
aI487
aI488
aI490
aI492
aI494
aI496
aI498
aI500
aI503
aI504
aI507
aI508
aI510
aI513
aI514
aI516
aI519
aI520
aI523
aI525
aI526
aI529
aI531
aI532
aI534
aI537
aI539
aI541
aI543
aI544
aI546
aI549
aI550
aI552
aI555
aI557
aI559
aI560
aI562
aI565
aI567
aI568
aI570
aI572
aI575
aI576
aI578
aI581
aI583
aI585
aI586
aI588
aI590
aI593
aI594
aI596
aI598
aI600
aI602
aI604
aI607
aI609
aI610
aI613
aI614
aI617
aI618
aI620
aI622
aI625
aI626
aI628
aI630
aI633
aI634
aI636
aI639
aI641
aI643
aI644
aI646
aI648
aI650
aI652
aI654
aI656
aI658
aI660
aI663
aI665
aI666
aI669
aI670
aI673
aI675
aI676
aI679
aI680
aI683
aI684
aI686
aI689
aI690
aI692
aI695
aI697
aI699
aI701
aI702
aI704
aI706
aI709
aI711
aI713
aI715
aI716
aI719
aI721
aI722
aI725
aI726
aI728
aI730
aI732
aI734
aI736
aI738
aI740
aI743
aI745
aI746
aI748
aI750
aI753
aI755
aI757
aI758
aI760
aI763
aI765
aI766
aI769
aI770
aI772
aI774
aI777
aI779
aI781
aI782
aI784
aI786
aI789
aI790
aI792
aI795
aI796
aI799
aI800
aI802
aI805
aI806
aI809
aI811
aI813
aI814
aI816
aI818
aI821
aI822
aI824
aI826
aI828
aI831
aI832
aI834
aI836
aI838
aI840
aI843
aI844
aI847
aI848
aI851
aI853
aI855
aI857
aI858
aI860
aI863
aI865
aI867
aI869
aI871
aI873
aI874
aI876
aI878
aI880
aI883
aI885
aI886
aI889
aI890
aI893
aI895
aI896
aI899
aI900
aI902
aI904
aI906
aI909
aI910
aI912
aI915
aI916
aI918
aI921
aI922
aI925
aI926
aI928
aI931
aI932
aI934
aI937
aI939
aI940
aI943
aI945
aI946
aI948
aI950
aI952
aI954
aI956
aI959
aI961
aI963
aI965
aI966
aI968
aI971
aI972
aI974
aI977
aI978
aI980
aI983
aI984
aI986
aI988
aI990
aI992
aI995
aI997
aI998
aI1000
aI1002
aI1005
aI1007
aI1009
aI1010
aI1012
aI1014
aI1016
aI1019
aI1021
aI1023
aI1024
aI1026
aI1029
aI1031
aI1032
aI1034
aI1036
aI1038
aI1040
aI1042
aI1045
aI1046
aI1049
aI1050
aI1052
aI1055
aI1057
aI1059
aI1060
aI1062
aI1065
aI1067
aI1068
aI1070
aI1072
aI1075
aI1076
aI1078
aI1081
aI1083
aI1084
aI1087
aI1089
aI1090
aI1092
aI1095
aI1096
aI1098
aI1100
aI1102
aI1105
aI1106
aI1108
aI1110
aI1113
aI1114
aI1117
aI1119
aI1120
aI1122
aI1124
aI1127
aI1128
aI1130
aI1133
aI1135
aI1136
aI1139
aI1140
aI1143
aI1145
aI1146
aI1148
aI1151
aI1153
aI1155
aI1156
aI1159
aI1160
aI1162
aI1164
aI1167
aI1169
aI1170
aI1172
aI1174
aI1176
aI1179
aI1180
aI1183
aI1184
aI1186
aI1189
aI1190
aI1193
aI1195
aI1197
aI1199
aa(lp382
I179
aI301
aI415
aI549
aa(lp383
I549
aI1189
aa(lp384
I113
aI549
aa(lp385
I1
aI2
aI4
aI7
aI8
aI10
aI12
aI14
aI16
aI18
aI20
aI22
aI24
aI26
aI28
aI31
aI32
aI35
aI37
aI38
aI40
aI43
aI44
aI47
aI48
aI50
aI53
aI55
aI56
aI59
aI60
aI62
aI64
aI66
aI69
aI71
aI72
aI74
aI76
aI79
aI81
aI83
aI85
aI87
aI88
aI91
aI93
aI94
aI97
aI98
aI101
aI102
aI105
aI107
aI109
aI111
aI112
aI115
aI117
aI118
aI120
aI123
aI124
aI126
aI128
aI131
aI133
aI135
aI137
aI138
aI140
aI143
aI144
aI146
aI148
aI151
aI152
aI155
aI157
aI159
aI160
aI162
aI164
aI166
aI169
aI171
aI173
aI175
aI176
aI179
aI180
aI183
aI184
aI186
aI188
aI190
aI193
aI194
aI196
aI198
aI201
aI202
aI204
aI207
aI208
aI211
aI212
aI214
aI216
aI218
aI221
aI222
aI224
aI227
aI228
aI231
aI232
aI234
aI237
aI239
aI240
aI243
aI244
aI247
aI248
aI250
aI253
aI254
aI256
aI259
aI261
aI262
aI264
aI267
aI269
aI271
aI272
aI274
aI276
aI278
aI280
aI283
aI284
aI287
aI289
aI290
aI292
aI294
aI297
aI298
aI301
aI302
aI305
aI306
aI309
aI310
aI312
aI315
aI317
aI319
aI321
aI323
aI325
aI326
aI328
aI330
aI332
aI335
aI336
aI339
aI340
aI343
aI345
aI347
aI348
aI350
aI352
aI354
aI356
aI358
aI361
aI362
aI365
aI366
aI368
aI371
aI372
aI374
aI377
aI378
aI380
aI382
aI384
aI387
aI388
aI390
aI393
aI394
aI396
aI398
aI400
aI402
aI405
aI406
aI409
aI411
aI412
aI414
aI417
aI418
aI421
aI423
aI425
aI426
aI428
aI430
aI432
aI434
aI437
aI439
aI440
aI442
aI444
aI446
aI448
aI451
aI453
aI454
aI456
aI458
aI460
aI463
aI465
aI467
aI469
aI471
aI473
aI475
aI476
aI478
aI480
aI483
aI484
aI487
aI488
aI490
aI492
aI494
aI496
aI498
aI500
aI503
aI504
aI507
aI508
aI510
aI513
aI514
aI516
aI519
aI520
aI523
aI525
aI526
aI529
aI531
aI532
aI534
aI537
aI539
aI541
aI543
aI544
aI546
aI549
aI550
aI552
aI555
aI557
aI559
aI560
aI562
aI565
aI567
aI568
aI570
aI572
aI575
aI576
aI578
aI581
aI583
aI585
aI586
aI588
aI590
aI593
aI594
aI596
aI598
aI600
aI602
aI604
aI607
aI609
aI610
aI613
aI614
aI617
aI618
aI620
aI622
aI625
aI626
aI628
aI630
aI633
aI634
aI636
aI639
aI641
aI643
aI644
aI646
aI648
aI650
aI652
aI654
aI656
aI658
aI660
aI663
aI665
aI666
aI669
aI670
aI673
aI675
aI676
aI679
aI680
aI683
aI684
aI686
aI689
aI690
aI692
aI695
aI697
aI699
aI701
aI702
aI704
aI706
aI709
aI711
aI713
aI715
aI716
aI719
aI721
aI722
aI725
aI726
aI728
aI730
aI732
aI734
aI736
aI738
aI740
aI743
aI745
aI746
aI748
aI750
aI753
aI755
aI757
aI758
aI760
aI763
aI765
aI766
aI769
aI770
aI772
aI774
aI777
aI779
aI781
aI782
aI784
aI786
aI789
aI790
aI792
aI795
aI796
aI799
aI800
aI802
aI805
aI806
aI809
aI811
aI813
aI814
aI816
aI818
aI821
aI822
aI824
aI826
aI828
aI831
aI832
aI834
aI836
aI838
aI840
aI843
aI844
aI847
aI848
aI851
aI853
aI855
aI857
aI858
aI860
aI863
aI865
aI867
aI869
aI871
aI873
aI874
aI876
aI878
aI880
aI883
aI885
aI886
aI889
aI890
aI893
aI895
aI896
aI899
aI900
aI902
aI904
aI906
aI909
aI910
aI912
aI915
aI916
aI918
aI921
aI922
aI925
aI926
aI928
aI931
aI932
aI934
aI937
aI939
aI940
aI943
aI945
aI946
aI948
aI950
aI952
aI954
aI956
aI959
aI961
aI963
aI965
aI966
aI968
aI971
aI972
aI974
aI977
aI978
aI980
aI983
aI984
aI986
aI988
aI990
aI992
aI995
aI997
aI998
aI1000
aI1002
aI1005
aI1007
aI1009
aI1010
aI1012
aI1014
aI1016
aI1019
aI1021
aI1023
aI1024
aI1026
aI1029
aI1031
aI1032
aI1034
aI1036
aI1038
aI1040
aI1042
aI1045
aI1046
aI1049
aI1050
aI1052
aI1055
aI1057
aI1059
aI1060
aI1062
aI1065
aI1067
aI1068
aI1070
aI1072
aI1075
aI1076
aI1078
aI1081
aI1083
aI1084
aI1087
aI1089
aI1090
aI1092
aI1095
aI1096
aI1098
aI1100
aI1102
aI1105
aI1106
aI1108
aI1110
aI1113
aI1114
aI1117
aI1119
aI1120
aI1122
aI1124
aI1127
aI1128
aI1130
aI1133
aI1135
aI1136
aI1139
aI1140
aI1143
aI1145
aI1146
aI1148
aI1151
aI1153
aI1155
aI1156
aI1159
aI1160
aI1162
aI1164
aI1167
aI1169
aI1170
aI1172
aI1174
aI1176
aI1179
aI1180
aI1183
aI1184
aI1186
aI1188
aI1190
aI1193
aI1195
aI1197
aI1199
aa(lp386
I539
aI549
aa(lp387
I469
aI539
aI1083
aa(lp388
I539
aI925
aI1025
aI1195
aa(lp389
I539
aI885
aI1025
aI1195
aa(lp390
I633
aa(lp391
I1009
aI1195
aa(lp392
I937
aI1195
aa(lp393
I301
aI848
aI1139
aa(lp394
I853
aI1105
aa(lp395
I853
aI1055
aa(lp396
I513
aI937
aa(lp397
I855
aI937
aa(lp398
I617
aI937
aa(lp399
I211
aa(lp400
I995
aI1025
aa(lp401
I531
aI885
aI1025
aa(lp402
I47
aI848
aI1139
aa(lp403
I47
aI885
aI1139
aa(lp404
I47
aI1139
aa(lp405
I1139
aa(lp406
I69
aI1179
aa(lp407
I1183
aa(lp408
I617
aI1067
aI1179
aa(lp409
I899
aI1067
aI1179
aa(lp410
I899
aI959
aI1179
aa(lp411
I704
aI899
aa(lp412
I899
aI1179
aa(lp413
I284
aI899
aa(lp414
I721
aI899
aa(lp415
I28
aI899
aa(lp416
I899
aI1186
aa(lp417
I1167
aI1186
aa(lp418
I639
aI648
aa(lp419
I169
aI648
aa(lp420
I101
aI782
aa(lp421
I227
aI663
aa(lp422
I227
aI243
aa(lp423
I117
aI227
aI1186
aa(lp424
I117
aI782
aa(lp425
I183
aI227
aa(lp426
I786
aI851
aa(lp427
I169
aI786
aa(lp428
I786
aI1029
aa(lp429
I1060
aa(lp430
I183
aI555
aa(lp431
I261
aI782
aI1187
aa(lp432
I782
aI1169
aI1187
aa(lp433
I29
aI305
aI709
aa(lp434
I1
aI2
aI4
aI7
aI8
aI10
aI12
aI14
aI16
aI18
aI20
aI22
aI24
aI26
aI28
aI31
aI32
aI35
aI37
aI38
aI40
aI43
aI44
aI46
aI48
aI50
aI53
aI55
aI56
aI59
aI60
aI62
aI64
aI66
aI68
aI71
aI72
aI74
aI76
aI79
aI81
aI83
aI85
aI87
aI88
aI91
aI93
aI94
aI97
aI98
aI100
aI102
aI105
aI107
aI109
aI111
aI112
aI115
aI116
aI118
aI120
aI123
aI124
aI126
aI128
aI131
aI133
aI135
aI137
aI138
aI140
aI143
aI144
aI146
aI148
aI151
aI152
aI155
aI157
aI159
aI160
aI162
aI164
aI166
aI168
aI171
aI173
aI175
aI176
aI179
aI180
aI182
aI184
aI186
aI188
aI190
aI193
aI194
aI196
aI198
aI201
aI202
aI204
aI207
aI208
aI210
aI212
aI214
aI216
aI218
aI221
aI222
aI224
aI226
aI228
aI231
aI232
aI234
aI237
aI239
aI240
aI242
aI244
aI247
aI248
aI250
aI253
aI254
aI256
aI259
aI260
aI262
aI264
aI267
aI269
aI271
aI272
aI274
aI276
aI278
aI280
aI283
aI285
aI287
aI289
aI290
aI292
aI294
aI297
aI298
aI300
aI302
aI305
aI306
aI309
aI310
aI312
aI315
aI317
aI319
aI321
aI323
aI325
aI326
aI328
aI330
aI332
aI335
aI336
aI339
aI340
aI343
aI345
aI347
aI348
aI350
aI352
aI354
aI356
aI358
aI361
aI362
aI365
aI366
aI368
aI371
aI372
aI374
aI377
aI378
aI380
aI382
aI384
aI387
aI388
aI390
aI393
aI394
aI396
aI398
aI400
aI402
aI405
aI406
aI409
aI411
aI412
aI414
aI417
aI418
aI421
aI423
aI425
aI426
aI428
aI430
aI432
aI434
aI437
aI439
aI440
aI442
aI444
aI446
aI448
aI451
aI453
aI454
aI456
aI458
aI460
aI463
aI465
aI467
aI469
aI471
aI473
aI475
aI476
aI478
aI480
aI483
aI484
aI487
aI488
aI490
aI492
aI494
aI496
aI498
aI500
aI503
aI504
aI507
aI508
aI510
aI512
aI514
aI516
aI519
aI520
aI523
aI525
aI526
aI529
aI531
aI532
aI534
aI537
aI538
aI541
aI543
aI544
aI546
aI548
aI550
aI552
aI555
aI557
aI559
aI560
aI562
aI565
aI567
aI568
aI570
aI572
aI575
aI576
aI578
aI581
aI583
aI585
aI586
aI588
aI590
aI593
aI594
aI596
aI598
aI600
aI602
aI604
aI607
aI609
aI610
aI613
aI614
aI616
aI618
aI620
aI622
aI625
aI626
aI628
aI630
aI632
aI634
aI636
aI638
aI641
aI643
aI644
aI646
aI649
aI650
aI652
aI654
aI656
aI658
aI660
aI662
aI665
aI666
aI669
aI670
aI673
aI675
aI676
aI679
aI680
aI683
aI684
aI686
aI689
aI690
aI692
aI695
aI697
aI699
aI701
aI702
aI705
aI706
aI709
aI711
aI713
aI715
aI716
aI719
aI720
aI722
aI725
aI726
aI728
aI730
aI732
aI734
aI736
aI738
aI740
aI743
aI745
aI746
aI748
aI750
aI753
aI755
aI757
aI758
aI760
aI763
aI765
aI766
aI769
aI770
aI772
aI774
aI777
aI779
aI781
aI782
aI784
aI787
aI789
aI790
aI792
aI795
aI796
aI799
aI800
aI802
aI805
aI806
aI809
aI811
aI813
aI814
aI816
aI818
aI821
aI822
aI824
aI826
aI828
aI831
aI832
aI834
aI836
aI838
aI840
aI843
aI844
aI847
aI849
aI850
aI852
aI854
aI857
aI858
aI860
aI863
aI865
aI867
aI869
aI871
aI873
aI874
aI876
aI878
aI880
aI883
aI884
aI886
aI889
aI890
aI893
aI895
aI896
aI898
aI900
aI902
aI904
aI906
aI909
aI910
aI912
aI915
aI916
aI918
aI921
aI922
aI924
aI926
aI928
aI931
aI932
aI934
aI936
aI939
aI940
aI943
aI945
aI946
aI948
aI950
aI952
aI954
aI956
aI958
aI961
aI963
aI965
aI966
aI968
aI971
aI972
aI974
aI977
aI978
aI980
aI983
aI984
aI986
aI988
aI990
aI992
aI994
aI997
aI998
aI1000
aI1002
aI1005
aI1007
aI1008
aI1010
aI1012
aI1014
aI1016
aI1019
aI1021
aI1023
aI1024
aI1026
aI1029
aI1031
aI1032
aI1034
aI1036
aI1038
aI1040
aI1042
aI1045
aI1046
aI1049
aI1050
aI1052
aI1055
aI1057
aI1059
aI1061
aI1062
aI1065
aI1066
aI1068
aI1070
aI1072
aI1075
aI1076
aI1078
aI1081
aI1082
aI1084
aI1087
aI1089
aI1090
aI1092
aI1095
aI1096
aI1098
aI1100
aI1102
aI1104
aI1106
aI1108
aI1110
aI1113
aI1114
aI1117
aI1119
aI1120
aI1122
aI1124
aI1127
aI1128
aI1130
aI1133
aI1135
aI1136
aI1138
aI1140
aI1143
aI1145
aI1146
aI1148
aI1151
aI1153
aI1155
aI1156
aI1159
aI1160
aI1162
aI1164
aI1166
aI1168
aI1170
aI1172
aI1174
aI1176
aI1178
aI1180
aI1182
aI1184
aI1187
aI1188
aI1190
aI1193
aI1194
aI1197
aI1199
aa(lp435
I93
aI263
aa(lp436
I263
aa(lp437
I1
aI2
aI4
aI7
aI8
aI10
aI12
aI14
aI16
aI18
aI20
aI22
aI24
aI26
aI28
aI31
aI32
aI35
aI37
aI38
aI40
aI43
aI44
aI46
aI48
aI50
aI53
aI55
aI56
aI59
aI60
aI62
aI64
aI66
aI68
aI71
aI72
aI74
aI76
aI79
aI81
aI83
aI85
aI87
aI88
aI91
aI92
aI94
aI97
aI98
aI100
aI102
aI105
aI107
aI109
aI111
aI112
aI115
aI116
aI118
aI120
aI123
aI124
aI126
aI128
aI131
aI133
aI135
aI137
aI138
aI140
aI143
aI144
aI146
aI148
aI151
aI152
aI155
aI157
aI159
aI160
aI162
aI164
aI166
aI168
aI171
aI173
aI175
aI176
aI179
aI180
aI182
aI184
aI186
aI188
aI190
aI193
aI194
aI196
aI198
aI201
aI202
aI204
aI207
aI208
aI210
aI212
aI214
aI216
aI218
aI221
aI222
aI224
aI226
aI228
aI231
aI232
aI234
aI237
aI239
aI240
aI242
aI244
aI247
aI248
aI250
aI253
aI254
aI256
aI259
aI260
aI262
aI264
aI267
aI269
aI271
aI272
aI274
aI276
aI278
aI280
aI283
aI285
aI287
aI289
aI290
aI292
aI294
aI297
aI298
aI300
aI302
aI305
aI306
aI309
aI310
aI312
aI315
aI317
aI319
aI321
aI323
aI325
aI326
aI328
aI330
aI332
aI335
aI336
aI339
aI340
aI343
aI345
aI347
aI348
aI350
aI352
aI354
aI356
aI358
aI361
aI362
aI365
aI366
aI368
aI371
aI372
aI374
aI377
aI378
aI380
aI382
aI384
aI387
aI388
aI390
aI393
aI394
aI396
aI398
aI400
aI402
aI405
aI406
aI409
aI411
aI412
aI414
aI417
aI418
aI421
aI423
aI425
aI426
aI428
aI430
aI432
aI434
aI437
aI439
aI440
aI442
aI444
aI446
aI448
aI451
aI453
aI454
aI456
aI458
aI460
aI463
aI465
aI467
aI469
aI471
aI473
aI475
aI476
aI478
aI480
aI483
aI484
aI487
aI488
aI490
aI492
aI494
aI496
aI498
aI500
aI503
aI504
aI507
aI508
aI510
aI512
aI514
aI516
aI519
aI520
aI523
aI525
aI526
aI529
aI531
aI532
aI534
aI537
aI538
aI541
aI543
aI544
aI546
aI548
aI550
aI552
aI555
aI557
aI559
aI560
aI562
aI565
aI567
aI568
aI570
aI572
aI575
aI576
aI578
aI581
aI583
aI585
aI586
aI588
aI590
aI593
aI594
aI596
aI598
aI600
aI602
aI604
aI607
aI609
aI610
aI613
aI614
aI616
aI618
aI620
aI622
aI625
aI626
aI628
aI630
aI632
aI634
aI636
aI638
aI641
aI643
aI644
aI646
aI649
aI650
aI652
aI654
aI656
aI658
aI660
aI662
aI665
aI666
aI669
aI670
aI673
aI675
aI676
aI679
aI680
aI683
aI684
aI686
aI689
aI690
aI692
aI695
aI697
aI699
aI701
aI702
aI705
aI706
aI709
aI711
aI713
aI715
aI716
aI719
aI720
aI722
aI725
aI726
aI728
aI730
aI732
aI734
aI736
aI738
aI740
aI743
aI745
aI746
aI748
aI750
aI753
aI755
aI757
aI758
aI760
aI763
aI765
aI766
aI769
aI770
aI772
aI774
aI777
aI779
aI781
aI782
aI784
aI787
aI789
aI790
aI792
aI795
aI796
aI799
aI800
aI802
aI805
aI806
aI809
aI811
aI813
aI814
aI816
aI818
aI821
aI822
aI824
aI826
aI828
aI831
aI832
aI834
aI836
aI838
aI840
aI843
aI844
aI847
aI849
aI850
aI852
aI854
aI857
aI858
aI860
aI863
aI865
aI867
aI869
aI871
aI873
aI874
aI876
aI878
aI880
aI883
aI884
aI886
aI889
aI890
aI893
aI895
aI896
aI898
aI900
aI902
aI904
aI906
aI909
aI910
aI912
aI915
aI916
aI918
aI921
aI922
aI924
aI926
aI928
aI931
aI932
aI934
aI936
aI939
aI940
aI943
aI945
aI946
aI948
aI950
aI952
aI954
aI956
aI958
aI961
aI963
aI965
aI966
aI968
aI971
aI972
aI974
aI977
aI978
aI980
aI983
aI984
aI986
aI988
aI990
aI992
aI994
aI997
aI998
aI1000
aI1002
aI1005
aI1007
aI1008
aI1010
aI1012
aI1014
aI1016
aI1019
aI1021
aI1023
aI1024
aI1026
aI1029
aI1031
aI1032
aI1034
aI1036
aI1038
aI1040
aI1042
aI1045
aI1046
aI1049
aI1050
aI1052
aI1055
aI1057
aI1059
aI1061
aI1062
aI1065
aI1066
aI1068
aI1070
aI1072
aI1075
aI1076
aI1078
aI1081
aI1082
aI1084
aI1087
aI1089
aI1090
aI1092
aI1095
aI1096
aI1098
aI1100
aI1102
aI1104
aI1106
aI1108
aI1110
aI1113
aI1114
aI1117
aI1119
aI1120
aI1122
aI1124
aI1127
aI1128
aI1130
aI1133
aI1135
aI1136
aI1138
aI1140
aI1143
aI1145
aI1146
aI1148
aI1151
aI1153
aI1155
aI1156
aI1159
aI1160
aI1162
aI1164
aI1166
aI1168
aI1170
aI1172
aI1174
aI1176
aI1178
aI1180
aI1182
aI1184
aI1187
aI1188
aI1190
aI1193
aI1194
aI1197
aI1199
aa(lp438
I1
aI2
aI4
aI7
aI8
aI10
aI12
aI14
aI16
aI18
aI20
aI22
aI24
aI26
aI28
aI31
aI32
aI35
aI37
aI38
aI40
aI43
aI44
aI46
aI48
aI50
aI53
aI55
aI56
aI59
aI60
aI62
aI64
aI66
aI68
aI71
aI72
aI74
aI76
aI79
aI81
aI83
aI85
aI87
aI88
aI91
aI92
aI94
aI97
aI98
aI100
aI102
aI105
aI107
aI109
aI111
aI112
aI115
aI116
aI118
aI120
aI123
aI124
aI126
aI128
aI131
aI133
aI135
aI137
aI139
aI140
aI143
aI144
aI146
aI148
aI151
aI152
aI155
aI157
aI159
aI160
aI162
aI164
aI166
aI168
aI171
aI173
aI175
aI176
aI179
aI180
aI182
aI184
aI186
aI188
aI190
aI193
aI194
aI196
aI198
aI201
aI202
aI204
aI207
aI208
aI210
aI212
aI214
aI216
aI218
aI221
aI222
aI224
aI226
aI228
aI231
aI232
aI234
aI237
aI239
aI240
aI242
aI244
aI247
aI248
aI250
aI253
aI254
aI256
aI259
aI260
aI262
aI264
aI267
aI269
aI271
aI272
aI274
aI276
aI278
aI280
aI283
aI285
aI287
aI289
aI290
aI292
aI294
aI297
aI298
aI300
aI302
aI305
aI306
aI309
aI310
aI312
aI315
aI317
aI319
aI321
aI323
aI325
aI326
aI328
aI330
aI332
aI335
aI336
aI339
aI340
aI343
aI345
aI347
aI348
aI350
aI352
aI354
aI356
aI358
aI361
aI362
aI365
aI366
aI368
aI371
aI372
aI374
aI377
aI378
aI380
aI382
aI384
aI387
aI388
aI390
aI393
aI394
aI396
aI398
aI400
aI402
aI405
aI406
aI409
aI411
aI412
aI414
aI417
aI418
aI421
aI423
aI425
aI426
aI428
aI430
aI432
aI434
aI437
aI439
aI440
aI442
aI444
aI446
aI448
aI451
aI453
aI454
aI456
aI458
aI460
aI463
aI465
aI467
aI469
aI471
aI473
aI475
aI476
aI478
aI480
aI483
aI484
aI487
aI488
aI490
aI492
aI494
aI496
aI498
aI500
aI503
aI504
aI507
aI508
aI510
aI512
aI514
aI516
aI519
aI520
aI523
aI525
aI526
aI529
aI531
aI532
aI534
aI537
aI538
aI541
aI543
aI544
aI546
aI548
aI550
aI552
aI555
aI557
aI559
aI560
aI562
aI565
aI567
aI568
aI570
aI572
aI575
aI576
aI578
aI581
aI583
aI585
aI586
aI588
aI590
aI593
aI594
aI596
aI598
aI600
aI602
aI604
aI607
aI609
aI610
aI613
aI614
aI616
aI618
aI620
aI622
aI625
aI626
aI628
aI630
aI632
aI634
aI636
aI638
aI641
aI643
aI644
aI646
aI649
aI650
aI652
aI654
aI656
aI658
aI660
aI662
aI665
aI666
aI669
aI670
aI673
aI675
aI676
aI679
aI680
aI683
aI684
aI686
aI689
aI690
aI692
aI695
aI697
aI699
aI701
aI702
aI705
aI706
aI709
aI711
aI713
aI715
aI716
aI719
aI720
aI722
aI725
aI726
aI728
aI730
aI732
aI734
aI736
aI738
aI740
aI743
aI745
aI746
aI748
aI750
aI753
aI755
aI757
aI758
aI760
aI763
aI765
aI766
aI769
aI770
aI772
aI774
aI777
aI779
aI781
aI782
aI784
aI787
aI789
aI790
aI792
aI795
aI796
aI799
aI800
aI802
aI805
aI806
aI809
aI811
aI813
aI814
aI816
aI818
aI821
aI822
aI824
aI826
aI828
aI831
aI832
aI834
aI836
aI838
aI840
aI843
aI844
aI847
aI849
aI850
aI852
aI854
aI857
aI858
aI860
aI863
aI865
aI867
aI869
aI871
aI873
aI874
aI876
aI878
aI880
aI883
aI884
aI886
aI889
aI890
aI893
aI895
aI896
aI898
aI900
aI902
aI904
aI906
aI909
aI910
aI912
aI915
aI916
aI918
aI921
aI922
aI924
aI926
aI928
aI931
aI932
aI934
aI936
aI939
aI940
aI943
aI945
aI946
aI948
aI950
aI952
aI954
aI956
aI958
aI961
aI963
aI965
aI966
aI968
aI971
aI972
aI974
aI977
aI978
aI980
aI983
aI984
aI986
aI988
aI990
aI992
aI994
aI997
aI998
aI1000
aI1002
aI1005
aI1007
aI1008
aI1010
aI1012
aI1014
aI1016
aI1019
aI1021
aI1023
aI1024
aI1026
aI1029
aI1031
aI1032
aI1034
aI1036
aI1038
aI1040
aI1042
aI1045
aI1046
aI1049
aI1050
aI1052
aI1055
aI1057
aI1059
aI1061
aI1062
aI1065
aI1066
aI1068
aI1070
aI1072
aI1075
aI1076
aI1078
aI1081
aI1082
aI1084
aI1087
aI1089
aI1090
aI1092
aI1095
aI1096
aI1098
aI1100
aI1102
aI1104
aI1106
aI1108
aI1110
aI1113
aI1114
aI1117
aI1119
aI1120
aI1122
aI1124
aI1127
aI1128
aI1130
aI1133
aI1135
aI1136
aI1138
aI1140
aI1143
aI1145
aI1146
aI1148
aI1151
aI1153
aI1155
aI1156
aI1159
aI1160
aI1162
aI1164
aI1166
aI1168
aI1170
aI1172
aI1174
aI1176
aI1178
aI1180
aI1182
aI1184
aI1187
aI1188
aI1190
aI1193
aI1194
aI1197
aI1199
aa(lp439
I1
aI2
aI4
aI7
aI8
aI10
aI12
aI14
aI16
aI18
aI20
aI22
aI24
aI26
aI28
aI31
aI32
aI35
aI37
aI38
aI40
aI43
aI44
aI46
aI48
aI50
aI53
aI55
aI56
aI59
aI60
aI62
aI64
aI66
aI68
aI71
aI72
aI74
aI76
aI79
aI81
aI83
aI85
aI87
aI88
aI91
aI92
aI94
aI97
aI98
aI100
aI102
aI105
aI107
aI109
aI111
aI112
aI115
aI116
aI118
aI120
aI123
aI124
aI126
aI128
aI131
aI133
aI135
aI137
aI139
aI140
aI143
aI144
aI146
aI148
aI151
aI152
aI155
aI157
aI159
aI160
aI162
aI164
aI166
aI168
aI171
aI173
aI175
aI176
aI179
aI180
aI182
aI184
aI186
aI188
aI190
aI193
aI194
aI196
aI198
aI201
aI202
aI204
aI207
aI208
aI210
aI212
aI214
aI216
aI218
aI221
aI222
aI224
aI226
aI228
aI231
aI232
aI234
aI237
aI239
aI240
aI242
aI244
aI247
aI248
aI250
aI253
aI254
aI256
aI259
aI260
aI262
aI264
aI267
aI269
aI271
aI272
aI274
aI276
aI278
aI280
aI283
aI285
aI287
aI289
aI290
aI292
aI294
aI297
aI298
aI300
aI302
aI305
aI306
aI309
aI310
aI312
aI315
aI317
aI319
aI321
aI323
aI325
aI326
aI328
aI330
aI332
aI335
aI336
aI339
aI340
aI343
aI345
aI347
aI348
aI350
aI352
aI354
aI356
aI358
aI361
aI362
aI365
aI366
aI368
aI371
aI372
aI374
aI377
aI378
aI380
aI382
aI384
aI387
aI388
aI390
aI393
aI394
aI396
aI398
aI400
aI402
aI405
aI406
aI409
aI411
aI412
aI414
aI417
aI418
aI421
aI423
aI425
aI426
aI428
aI430
aI432
aI434
aI437
aI439
aI440
aI442
aI444
aI446
aI448
aI451
aI453
aI454
aI456
aI458
aI460
aI463
aI465
aI467
aI469
aI471
aI473
aI475
aI476
aI478
aI480
aI483
aI484
aI487
aI488
aI490
aI492
aI494
aI496
aI498
aI500
aI503
aI504
aI507
aI508
aI510
aI512
aI514
aI516
aI519
aI520
aI523
aI525
aI526
aI529
aI531
aI532
aI534
aI537
aI538
aI541
aI543
aI544
aI546
aI548
aI550
aI552
aI555
aI557
aI559
aI560
aI562
aI565
aI567
aI568
aI570
aI572
aI575
aI576
aI578
aI581
aI583
aI585
aI586
aI588
aI590
aI593
aI594
aI596
aI598
aI600
aI602
aI604
aI607
aI609
aI610
aI613
aI614
aI616
aI618
aI620
aI622
aI625
aI626
aI628
aI630
aI632
aI634
aI636
aI638
aI641
aI643
aI644
aI646
aI649
aI650
aI652
aI654
aI656
aI658
aI660
aI662
aI665
aI666
aI669
aI670
aI673
aI675
aI676
aI679
aI680
aI683
aI684
aI686
aI689
aI690
aI692
aI695
aI697
aI699
aI701
aI702
aI705
aI706
aI709
aI711
aI713
aI715
aI716
aI719
aI720
aI722
aI725
aI726
aI728
aI730
aI732
aI734
aI736
aI738
aI740
aI743
aI745
aI746
aI748
aI750
aI753
aI755
aI757
aI758
aI760
aI763
aI765
aI766
aI769
aI770
aI772
aI774
aI777
aI779
aI781
aI782
aI784
aI787
aI789
aI790
aI792
aI795
aI796
aI799
aI800
aI802
aI805
aI806
aI809
aI811
aI813
aI814
aI816
aI818
aI821
aI822
aI824
aI826
aI828
aI831
aI832
aI834
aI836
aI838
aI840
aI843
aI844
aI847
aI849
aI850
aI852
aI854
aI857
aI858
aI860
aI863
aI865
aI867
aI869
aI871
aI873
aI874
aI876
aI878
aI880
aI883
aI884
aI886
aI889
aI890
aI893
aI895
aI896
aI898
aI900
aI902
aI904
aI906
aI909
aI910
aI912
aI915
aI916
aI918
aI921
aI922
aI924
aI926
aI928
aI931
aI932
aI934
aI936
aI938
aI940
aI943
aI945
aI946
aI948
aI950
aI952
aI954
aI956
aI958
aI961
aI963
aI965
aI966
aI968
aI971
aI972
aI974
aI977
aI978
aI980
aI983
aI984
aI986
aI988
aI990
aI992
aI994
aI997
aI998
aI1000
aI1002
aI1005
aI1007
aI1008
aI1010
aI1012
aI1014
aI1016
aI1019
aI1021
aI1023
aI1024
aI1026
aI1029
aI1031
aI1032
aI1034
aI1036
aI1038
aI1040
aI1042
aI1045
aI1046
aI1049
aI1050
aI1052
aI1055
aI1057
aI1059
aI1061
aI1062
aI1065
aI1066
aI1068
aI1070
aI1072
aI1075
aI1076
aI1078
aI1081
aI1082
aI1084
aI1087
aI1089
aI1090
aI1092
aI1095
aI1096
aI1098
aI1100
aI1102
aI1104
aI1106
aI1108
aI1110
aI1113
aI1114
aI1117
aI1119
aI1120
aI1122
aI1124
aI1127
aI1128
aI1130
aI1133
aI1135
aI1136
aI1138
aI1140
aI1143
aI1145
aI1146
aI1148
aI1151
aI1153
aI1155
aI1156
aI1159
aI1160
aI1162
aI1164
aI1166
aI1168
aI1170
aI1172
aI1174
aI1176
aI1178
aI1180
aI1182
aI1184
aI1187
aI1188
aI1190
aI1193
aI1194
aI1197
aI1199
aa(lp440
I1
aI2
aI4
aI7
aI8
aI10
aI12
aI14
aI16
aI18
aI20
aI22
aI24
aI26
aI28
aI31
aI32
aI35
aI37
aI38
aI40
aI43
aI44
aI46
aI48
aI50
aI53
aI55
aI56
aI59
aI60
aI62
aI64
aI66
aI68
aI71
aI72
aI74
aI76
aI79
aI81
aI83
aI85
aI87
aI88
aI91
aI92
aI94
aI97
aI98
aI100
aI102
aI105
aI107
aI109
aI111
aI112
aI115
aI116
aI118
aI120
aI123
aI124
aI126
aI128
aI131
aI133
aI135
aI137
aI139
aI140
aI143
aI144
aI146
aI148
aI151
aI152
aI155
aI157
aI159
aI160
aI162
aI164
aI166
aI168
aI171
aI173
aI175
aI176
aI179
aI180
aI182
aI184
aI186
aI188
aI190
aI193
aI194
aI196
aI198
aI201
aI202
aI204
aI207
aI208
aI210
aI212
aI214
aI216
aI218
aI221
aI222
aI224
aI226
aI228
aI231
aI232
aI234
aI237
aI239
aI240
aI242
aI244
aI247
aI248
aI250
aI253
aI254
aI256
aI258
aI260
aI262
aI264
aI267
aI269
aI271
aI272
aI274
aI276
aI278
aI280
aI283
aI285
aI287
aI289
aI290
aI292
aI294
aI297
aI298
aI300
aI302
aI305
aI306
aI309
aI310
aI312
aI315
aI317
aI319
aI321
aI323
aI325
aI326
aI328
aI330
aI332
aI335
aI336
aI339
aI340
aI343
aI345
aI347
aI348
aI350
aI352
aI354
aI356
aI358
aI361
aI362
aI365
aI366
aI368
aI371
aI372
aI374
aI377
aI378
aI380
aI382
aI384
aI387
aI388
aI390
aI393
aI394
aI396
aI398
aI400
aI402
aI405
aI406
aI409
aI411
aI412
aI414
aI417
aI418
aI421
aI423
aI425
aI426
aI428
aI430
aI432
aI434
aI437
aI439
aI440
aI442
aI444
aI446
aI448
aI451
aI453
aI454
aI456
aI458
aI460
aI463
aI465
aI467
aI469
aI471
aI473
aI475
aI476
aI478
aI480
aI483
aI484
aI487
aI488
aI490
aI492
aI494
aI496
aI498
aI500
aI503
aI504
aI507
aI508
aI510
aI512
aI514
aI516
aI519
aI520
aI523
aI525
aI526
aI529
aI531
aI532
aI534
aI537
aI538
aI541
aI543
aI544
aI546
aI548
aI550
aI552
aI555
aI557
aI559
aI560
aI562
aI565
aI567
aI568
aI570
aI572
aI575
aI576
aI578
aI581
aI583
aI585
aI586
aI588
aI590
aI593
aI594
aI596
aI598
aI600
aI602
aI604
aI607
aI609
aI610
aI613
aI614
aI616
aI618
aI620
aI622
aI625
aI626
aI628
aI630
aI632
aI634
aI636
aI638
aI641
aI643
aI644
aI646
aI649
aI650
aI652
aI654
aI656
aI658
aI660
aI662
aI665
aI666
aI669
aI670
aI673
aI675
aI676
aI679
aI680
aI683
aI684
aI686
aI689
aI690
aI692
aI695
aI697
aI699
aI701
aI702
aI705
aI706
aI709
aI711
aI713
aI715
aI716
aI719
aI720
aI722
aI725
aI726
aI728
aI730
aI732
aI734
aI736
aI738
aI740
aI743
aI745
aI746
aI748
aI750
aI753
aI755
aI757
aI758
aI760
aI763
aI765
aI766
aI769
aI770
aI772
aI774
aI777
aI779
aI781
aI782
aI784
aI787
aI789
aI790
aI792
aI795
aI796
aI799
aI800
aI802
aI805
aI806
aI809
aI811
aI813
aI814
aI816
aI818
aI821
aI822
aI824
aI826
aI828
aI831
aI832
aI834
aI836
aI838
aI840
aI843
aI844
aI847
aI849
aI850
aI852
aI854
aI857
aI858
aI860
aI863
aI865
aI867
aI869
aI871
aI873
aI874
aI876
aI878
aI880
aI883
aI884
aI886
aI889
aI890
aI893
aI895
aI896
aI898
aI900
aI902
aI904
aI906
aI909
aI910
aI912
aI915
aI916
aI918
aI921
aI922
aI924
aI926
aI928
aI931
aI932
aI934
aI936
aI938
aI940
aI943
aI945
aI946
aI948
aI950
aI952
aI954
aI956
aI958
aI961
aI963
aI965
aI966
aI968
aI971
aI972
aI974
aI977
aI978
aI980
aI983
aI984
aI986
aI988
aI990
aI992
aI994
aI997
aI998
aI1000
aI1002
aI1005
aI1007
aI1008
aI1010
aI1012
aI1014
aI1016
aI1019
aI1021
aI1023
aI1024
aI1026
aI1029
aI1031
aI1032
aI1034
aI1036
aI1038
aI1040
aI1042
aI1045
aI1046
aI1049
aI1050
aI1052
aI1055
aI1057
aI1059
aI1061
aI1062
aI1065
aI1066
aI1068
aI1070
aI1072
aI1075
aI1076
aI1078
aI1081
aI1082
aI1084
aI1087
aI1089
aI1090
aI1092
aI1095
aI1096
aI1098
aI1100
aI1102
aI1104
aI1106
aI1108
aI1110
aI1113
aI1114
aI1117
aI1119
aI1120
aI1122
aI1124
aI1127
aI1128
aI1130
aI1133
aI1135
aI1136
aI1138
aI1140
aI1143
aI1145
aI1146
aI1148
aI1151
aI1153
aI1155
aI1156
aI1159
aI1160
aI1162
aI1164
aI1166
aI1168
aI1170
aI1172
aI1174
aI1176
aI1178
aI1180
aI1182
aI1184
aI1187
aI1188
aI1190
aI1193
aI1194
aI1197
aI1199
aa(lp441
I1
aI2
aI4
aI7
aI8
aI10
aI12
aI14
aI16
aI18
aI20
aI22
aI24
aI26
aI28
aI31
aI32
aI35
aI37
aI38
aI40
aI43
aI44
aI46
aI48
aI50
aI53
aI55
aI56
aI59
aI60
aI62
aI64
aI66
aI68
aI71
aI72
aI74
aI76
aI79
aI81
aI83
aI85
aI87
aI88
aI91
aI92
aI94
aI97
aI98
aI100
aI102
aI105
aI107
aI109
aI111
aI112
aI115
aI116
aI118
aI120
aI123
aI124
aI126
aI128
aI131
aI133
aI135
aI137
aI139
aI140
aI143
aI144
aI146
aI148
aI151
aI152
aI155
aI157
aI159
aI160
aI162
aI164
aI166
aI168
aI171
aI173
aI175
aI176
aI179
aI180
aI182
aI184
aI186
aI188
aI190
aI193
aI194
aI196
aI198
aI201
aI202
aI204
aI207
aI208
aI210
aI212
aI214
aI216
aI218
aI221
aI222
aI224
aI226
aI228
aI231
aI232
aI234
aI237
aI239
aI240
aI242
aI244
aI247
aI248
aI250
aI253
aI254
aI256
aI258
aI260
aI262
aI264
aI267
aI269
aI271
aI272
aI274
aI276
aI278
aI280
aI283
aI285
aI287
aI289
aI290
aI292
aI294
aI297
aI298
aI300
aI302
aI305
aI306
aI309
aI310
aI312
aI315
aI317
aI319
aI321
aI323
aI325
aI326
aI328
aI330
aI332
aI335
aI336
aI339
aI340
aI343
aI345
aI347
aI348
aI350
aI352
aI354
aI356
aI358
aI361
aI362
aI365
aI366
aI368
aI371
aI372
aI374
aI377
aI378
aI380
aI382
aI384
aI387
aI388
aI390
aI393
aI394
aI396
aI398
aI400
aI402
aI405
aI406
aI409
aI411
aI412
aI414
aI417
aI418
aI421
aI423
aI425
aI426
aI428
aI430
aI432
aI434
aI437
aI439
aI440
aI442
aI444
aI446
aI448
aI451
aI452
aI454
aI456
aI458
aI460
aI463
aI465
aI467
aI469
aI471
aI473
aI475
aI476
aI478
aI480
aI483
aI484
aI487
aI488
aI490
aI492
aI494
aI496
aI498
aI500
aI503
aI504
aI507
aI508
aI510
aI512
aI514
aI516
aI519
aI520
aI523
aI525
aI526
aI529
aI531
aI532
aI534
aI537
aI538
aI541
aI543
aI544
aI546
aI548
aI550
aI552
aI555
aI557
aI559
aI560
aI562
aI565
aI567
aI568
aI570
aI572
aI575
aI576
aI578
aI581
aI583
aI585
aI586
aI588
aI590
aI593
aI594
aI596
aI598
aI600
aI602
aI604
aI607
aI609
aI610
aI613
aI614
aI616
aI618
aI620
aI622
aI625
aI626
aI628
aI630
aI632
aI634
aI636
aI638
aI641
aI643
aI644
aI646
aI649
aI650
aI652
aI654
aI656
aI658
aI660
aI662
aI665
aI666
aI669
aI670
aI673
aI675
aI676
aI679
aI680
aI683
aI684
aI686
aI689
aI690
aI692
aI695
aI697
aI699
aI701
aI702
aI705
aI706
aI709
aI711
aI713
aI715
aI716
aI719
aI720
aI722
aI725
aI726
aI728
aI730
aI732
aI734
aI736
aI738
aI740
aI743
aI745
aI746
aI748
aI750
aI753
aI755
aI757
aI758
aI760
aI763
aI765
aI766
aI769
aI770
aI772
aI774
aI777
aI779
aI781
aI782
aI784
aI787
aI789
aI790
aI792
aI795
aI796
aI799
aI800
aI802
aI805
aI806
aI809
aI811
aI813
aI814
aI816
aI818
aI821
aI822
aI824
aI826
aI828
aI831
aI832
aI834
aI836
aI838
aI840
aI843
aI844
aI847
aI849
aI850
aI852
aI854
aI857
aI858
aI860
aI863
aI865
aI867
aI869
aI871
aI873
aI874
aI876
aI878
aI880
aI883
aI884
aI886
aI889
aI890
aI893
aI895
aI896
aI898
aI900
aI902
aI904
aI906
aI909
aI910
aI912
aI915
aI916
aI918
aI921
aI922
aI924
aI926
aI928
aI931
aI932
aI934
aI936
aI938
aI940
aI943
aI945
aI946
aI948
aI950
aI952
aI954
aI956
aI958
aI961
aI963
aI965
aI966
aI968
aI971
aI972
aI974
aI977
aI978
aI980
aI983
aI984
aI986
aI988
aI990
aI992
aI994
aI997
aI998
aI1000
aI1002
aI1005
aI1007
aI1008
aI1010
aI1012
aI1014
aI1016
aI1019
aI1021
aI1023
aI1024
aI1026
aI1029
aI1031
aI1032
aI1034
aI1036
aI1038
aI1040
aI1042
aI1045
aI1046
aI1049
aI1050
aI1052
aI1055
aI1057
aI1059
aI1061
aI1062
aI1065
aI1066
aI1068
aI1070
aI1072
aI1075
aI1076
aI1078
aI1081
aI1082
aI1084
aI1087
aI1089
aI1090
aI1092
aI1095
aI1096
aI1098
aI1100
aI1102
aI1104
aI1106
aI1108
aI1110
aI1113
aI1114
aI1117
aI1119
aI1120
aI1122
aI1124
aI1127
aI1128
aI1130
aI1133
aI1135
aI1136
aI1138
aI1140
aI1143
aI1145
aI1146
aI1148
aI1151
aI1153
aI1155
aI1156
aI1159
aI1160
aI1162
aI1164
aI1166
aI1168
aI1170
aI1172
aI1174
aI1176
aI1178
aI1180
aI1182
aI1184
aI1187
aI1188
aI1190
aI1193
aI1194
aI1197
aI1199
aa(lp442
I21
aI531
aI709
aa(lp443
I21
aI28
aI541
aa(lp444
I28
aI32
aI541
aa(lp445
I32
aI321
aI541
aa(lp446
I32
aI111
aI541
aa(lp447
I782
aI1197
aa(lp448
I374
aI1197
aa(lp449
I111
aI1197
aa(lp450
I126
aI1197
aa(lp451
I332
aI1197
aa(lp452
I207
aI332
aa(lp453
I332
aI1113
aa(lp454
I29
aI546
aI1113
aa(lp455
I29
aI546
aI811
aa(lp456
I28
aI32
aI371
aa(lp457
I29
aI546
aI971
aa(lp458
I28
aI32
aI971
aa(lp459
I28
aI32
aI961
aa(lp460
I29
aI546
aI961
aa(lp461
I29
aI109
aI546
aa(lp462
I29
aI109
aI196
aa(lp463
I28
aI32
aI109
aa(lp464
I74
aI109
aa(lp465
I74
aI81
aa(lp466
I74
aI107
aa(lp467
I74
aI91
aa(lp468
I91
aI214
aa(lp469
I214
aI1075
aa(lp470
I32
aI1075
aa(lp471
I32
aI831
aa(lp472
I32
aI55
aa(lp473
I32
aI43
aa(lp474
I32
aI1029
aa(lp475
I32
aI507
aa(lp476
I32
aI1008
aa(lp477
I828
aa(lp478
I29
aI226
aI1009
aa(lp479
I32
aI763
aa(lp480
I32
aI1007
aa(lp481
I32
aa(lp482
I29
aI452
aI538
aa(lp483
I1184
aa(lp484
I1098
aI1187
aa(lp485
I1186
aa(lp486
I494
aa(lp487
I946
aa(lp488
I29
aI452
aa(lp489
I16
aa(lp490
I29
aI539
aI1114
aa(lp491
I336
aI538
aa(lp492
I166
aI538
aa(lp493
I412
aI538
aa(lp494
I539
aI1124
aa(lp495
I412
aI581
aI1125
aa(lp496
I412
aI1153
aI1187
aa(lp497
I1153
aI1180
aI1187
aa(lp498
I560
aI1125
aI1193
aa(lp499
I14
aI538
aa(lp500
I538
aI560
aa(lp501
I29
aI306
aI561
aa(lp502
I29
aI292
aI1009
aa(lp503
I1140
aa(lp504
I29
aI292
aa(lp505
I498
aI824
aa(lp506
I293
aI382
aI1008
aa(lp507
I29
aI358
aa(lp508
I382
aI538
aI824
aa(lp509
I382
aI538
aa(lp510
I538
aI758
aI825
aa(lp511
I446
aI1125
aI1153
aa(lp512
I538
aI826
aa(lp513
I446
aI1141
aa(lp514
I484
aI1009
aI1125
aa(lp515
I922
aI1125
aI1141
aa(lp516
I538
aI824
aI938
aa(lp517
I824
aI1009
aI1090
aa(lp518
I836
aI939
aI1125
aa(lp519
I340
aI939
aI1125
aa(lp520
I340
aI538
aI1125
aa(lp521
I204
aI538
aI825
aa(lp522
I896
aI1125
aa(lp523
I10
aI33
aa(lp524
I396
aI1125
aa(lp525
I1125
aI1160
aa(lp526
I1102
aa(lp527
I878
aI1125
aa(lp528
I8
aI33
aa(lp529
I326
aI1125
aa(lp530
I824
aI1090
aa(lp531
I29
aI204
aI1141
aa(lp532
I29
aI1008
aI1040
aa(lp533
I932
aI1008
aI1091
aa(lp534
I418
aI825
aI1008
aa(lp535
I378
aI825
aI1008
aa(lp536
I378
aI538
aI825
aa(lp537
I29
aI378
aI1009
aa(lp538
I538
aI670
aI1009
aa(lp539
I670
aI825
aI1008
aa(lp540
I400
aI1050
aI1091
aa(lp541
I460
aI825
aI1008
aa(lp542
I228
aI825
aI1008
aa(lp543
I825
aI952
aI1008
aa(lp544
I980
aI1008
aI1125
aa(lp545
I825
aI1008
aI1092
aa(lp546
I1008
aI1050
aI1125
aa(lp547
I1008
aI1120
aa(lp548
I98
aI825
aI1008
aa(lp549
I825
aI1006
aI1008
aa(lp550
I24
aI1125
aa(lp551
I298
aI1008
aI1125
aa(lp552
I250
aI1008
aI1125
aa(lp553
I734
aI1008
aI1125
aa(lp554
I1008
aI1125
aI1128
aa(lp555
I732
aI825
aI1008
aa(lp556
I40
aI825
aI1008
aa(lp557
I630
aI1125
aa(lp558
I825
aI916
aI1008
aa(lp559
I461
aI956
aI1125
aa(lp560
I310
aI461
aI825
aa(lp561
I970
aI1125
aI1156
aa(lp562
I825
aI1008
aI1074
aa(lp563
I461
aI478
aI604
aa(lp564
I461
aI478
aI1125
aa(lp565
I605
aI620
aI970
aa(lp566
I605
aI702
aI1008
aa(lp567
I590
aI604
aI917
aa(lp568
I212
aI604
aI970
aa(lp569
I184
aI605
aI1008
aa(lp570
I280
aI604
aI970
aa(lp571
I362
aI461
aa(lp572
I92
aI604
aI1051
aa(lp573
I92
aI970
aI1125
aa(lp574
I106
aI703
aI971
aa(lp575
I825
aI971
aI1052
aa(lp576
I185
aI1052
aa(lp577
I825
aI1008
aI1052
aa(lp578
I42
aI604
aI1075
aa(lp579
I42
aI185
aI1125
aa(lp580
I106
aI185
aI990
aa(lp581
I64
aI703
aI1051
aa(lp582
I185
aI910
aI1125
aa(lp583
I185
aI604
aI850
aa(lp584
I185
aI580
aI990
aa(lp585
I278
aI970
aI991
aa(lp586
I148
aI278
aI991
aa(lp587
I149
aI216
aI703
aa(lp588
I149
aI184
aI1125
aa(lp589
I278
aI991
aI1112
aa(lp590
I149
aI516
aI1125
aa(lp591
I149
aI506
aI1125
aa(lp592
I90
aI149
aI1125
aa(lp593
I148
aI605
aI1113
aa(lp594
I184
aI1113
aa(lp595
I184
aI703
aI971
aa(lp596
I184
aI971
aI991
aa(lp597
I184
aI279
aI971
aa(lp598
I184
aI217
aI971
aa(lp599
I184
aI825
aI971
aa(lp600
I517
aI604
aI850
aa(lp601
I604
aI850
aI1075
aa(lp602
I461
aI580
aI621
aa(lp603
I354
aI604
aI917
aa(lp604
I390
aI604
aI970
aa(lp605
I185
aI604
aI1028
aa(lp606
I90
aI621
aI971
aa(lp607
I148
aI390
aI604
aa(lp608
I971
aI990
aI1090
aa(lp609
I185
aI604
aI991
aa(lp610
I216
aI971
aI991
aa(lp611
I216
aI991
aI1008
aa(lp612
I991
aI1051
aI1164
aa(lp613
I185
aI1050
aI1125
aa(lp614
I216
aI906
aI991
aa(lp615
I461
aI822
aI991
aa(lp616
I216
aI600
aI1125
aa(lp617
I185
aI366
aI1125
aa(lp618
I185
aI991
aI1076
aa(lp619
I185
aI832
aI1125
aa(lp620
I480
aI1009
aI1125
aa(lp621
I185
aI248
aI1125
aa(lp622
I248
aI538
aI1125
aa(lp623
I991
aI1009
aI1078
aa(lp624
I184
aI720
aI1079
aa(lp625
I107
aI350
aI1079
aa(lp626
I703
aI904
aa(lp627
I107
aI702
aI1079
aa(lp628
I20
aI107
aI1079
aa(lp629
I20
aI91
aI1079
aa(lp630
I703
aI834
aa(lp631
I91
aI702
aI1079
aa(lp632
I496
aI703
aa(lp633
I702
aI1075
aI1079
aa(lp634
I702
aI917
aI991
aa(lp635
I538
aI1074
aa(lp636
I184
aI188
aI1079
aa(lp637
I106
aI188
aI703
aa(lp638
I4
aI185
aI1125
aa(lp639
I4
aI107
aI184
aa(lp640
I4
aI703
aa(lp641
I703
aI1046
aa(lp642
I991
aI1009
aI1024
aa(lp643
I184
aI1130
aa(lp644
I106
aI1130
aa(lp645
I94
aI703
aa(lp646
I394
aI703
aa(lp647
I106
aI598
aa(lp648
I581
aI598
aI1125
aa(lp649
I330
aI991
aI1051
aa(lp650
I461
aI1050
aI1125
aa(lp651
I107
aI460
aI703
aa(lp652
I460
aI1075
aI1125
aa(lp653
I614
aI991
aI1009
aa(lp654
I984
aI991
aI1075
aa(lp655
I658
aI703
aa(lp656
I184
aI644
aa(lp657
I106
aI644
aa(lp658
I106
aI185
aI628
aa(lp659
I216
aI490
aI1125
aa(lp660
I90
aI185
aI1125
aa(lp661
I107
aI184
aI300
aa(lp662
I300
aI1125
aa(lp663
I1068
aI1125
aa(lp664
I54
aI538
aI1125
aa(lp665
I184
aI628
aI1062
aa(lp666
I538
aI1125
aI1152
aa(lp667
I628
aI1090
aa(lp668
I90
aI538
aI629
aa(lp669
I91
aI830
aa(lp670
I444
aI581
aI629
aa(lp671
I402
aI762
aI1090
aa(lp672
I208
aI538
aI762
aa(lp673
I440
aI538
aI762
aa(lp674
I538
aI552
aI762
aa(lp675
I406
aI538
aI1146
aa(lp676
I168
aI838
aI1146
aa(lp677
I168
aI552
aI838
aa(lp678
I216
aI552
aI1014
aa(lp679
I216
aI538
aI552
aa(lp680
I2
aI514
aI538
aa(lp681
I514
aI538
aI774
aa(lp682
I774
aI986
aI1036
aa(lp683
I216
aI538
aI1036
aa(lp684
I168
aI818
aI986
aa(lp685
I106
aI818
aI986
aa(lp686
I3
aI954
aI1066
aa(lp687
I3
aI216
aI1066
aa(lp688
I216
aI775
aI1066
aa(lp689
I106
aI818
aI958
aa(lp690
I372
aI775
aI958
aa(lp691
I372
aI958
aI1090
aa(lp692
I372
aI538
aI736
aa(lp693
I2
aI538
aI736
aa(lp694
I504
aI814
aI1090
aa(lp695
I504
aI538
aI550
aa(lp696
I258
aI504
aI538
aa(lp697
I106
aI504
aI538
aa(lp698
I504
aI538
aI1090
aa(lp699
I216
aI328
aI1090
aa(lp700
I216
aI538
aI1090
aa(lp701
I302
aI634
aI1090
aa(lp702
I110
aI216
aI629
aa(lp703
I302
aI629
aa(lp704
I107
aI216
aI1090
aa(lp705
I2
aI216
aI1090
aa(lp706
I3
aI461
aI772
aa(lp707
I169
aI629
aI1074
aa(lp708
I91
aI1074
aI1125
aa(lp709
I144
aI164
aa(lp710
I91
aI144
aI629
aa(lp711
I144
aI703
aa(lp712
I774
aI1012
aa(lp713
I222
aI461
aI1090
aa.