(dp0
I0
(lp1
(dp2
S'A'
p3
(lp4
(lp5
F1.0
aF-0.0
aa(lp6
F-7.99435015859377
aF1.0
aa(lp7
F-7.9943501585938055
aF-1.0
aasS'b'
p8
(lp9
F2.9999999999999996
aF-21.983050475781305
aF-23.98305047578142
asasI1
(lp10
(dp11
g3
(lp12
(lp13
F-7.994350158593822
aF1.0
aa(lp14
F1.0
aF1.0000000000000144
aa(lp15
F7.994350158593611
aF1.0
aa(lp16
F-1.0
aF-0.9999999999999908
aasg8
(lp17
F-55.95480126875054
aF11.000000000000046
aF65.9548012687489
aF-9.99999999999998
asa(dp18
g3
(lp19
(lp20
F7.994350158593836
aF1.0
aa(lp21
F-1.0
aF-1.0000000000000036
aa(lp22
F-7.994350158593732
aF1.0
aasg8
(lp23
F65.95480126875069
aF-11.000000000000007
aF-55.95480126874988
asa(dp24
g3
(lp25
(lp26
F1.0
aF1.0000000000000013
aa(lp27
F2.3699635545583094e-15
aF-1.0
aa(lp28
F-7.994350158593753
aF1.0
aasg8
(lp29
F10.000000000000004
aF-1.9999999999999867
aF-55.95480126875004
asasI2
(lp30
(dp31
g3
(lp32
(lp33
F0.9999999999999919
aF-0.999999999999986
aa(lp34
F1.0
aF1.0000000000000022
aa(lp35
F-7.994350158593825
aF-1.0
aasg8
(lp36
F1.0
aF5.0000000000000036
aF-23.98305047578147
asa(dp37
g3
(lp38
(lp39
F-7.994350158593761
aF-1.0
aa(lp40
F-1.0
aF0.9999999999999994
aa(lp41
F7.994350158593794
aF1.0
aa(lp42
F-1.0
aF-0.9999999999999994
aasg8
(lp43
F-23.983050475781297
aF-3.0419034009854026e-15
aF25.983050475781386
aF-4.999999999999998
asa(dp44
g3
(lp45
(lp46
F0.0
aF1.0
aa(lp47
F-7.994350158593815
aF-1.0
aa(lp48
F1.0000000000000728
aF-1.0000000000000528
aa(lp49
F7.994350158593824
aF1.0
aasg8
(lp50
F6.0
aF-23.98305047578144
aF-1.0
aF25.983050475781468
asa(dp51
g3
(lp52
(lp53
F-7.9943501585935355
aF-1.0
aa(lp54
F-0.9999999999999727
aF0.9999999999999795
aa(lp55
F7.994350158593724
aF1.0
aa(lp56
F-1.0
aF-0.999999999999992
aasg8
(lp57
F-23.98305047578073
aF1.0
aF25.983050475781184
aF-5.999999999999974
asa(dp58
g3
(lp59
(lp60
F-7.994350158593869
aF-1.0
aa(lp61
F1.0
aF0.9999999999999831
aa(lp62
F7.994350158593557
aF1.0
aa(lp63
F1.0
aF-1.0000000000000069
aasg8
(lp64
F-23.98305047578159
aF5.999999999999943
aF25.983050475780697
aF-1.8268639105341317e-14
asa(dp65
g3
(lp66
(lp67
F7.994350158593789
aF-1.0
aa(lp68
F-0.9999999999999705
aF0.9999999999999549
aa(lp69
F-7.994350158593811
aF-1.0
aasg8
(lp70
F21.98305047578136
aF-1.0
aF-23.983050475781432
asasI3
(lp71
(dp72
g3
(lp73
(lp74
F-1.0
aF1.0000000000000007
aa(lp75
F-2.3699635545583015e-15
aF-1.0
aa(lp76
F-7.994350158593802
aF-1.0
aa(lp77
F1.0000000000000009
aF-1.0000000000000013
aa(lp78
F1.0
aF0.999999999999998
aasg8
(lp79
F1.068027397325058e-15
aF-2.3699635545583015e-15
aF-5.9999999999999964
aF1.0
aF2.9999999999999987
asa(dp80
g3
(lp81
(lp82
F1.0
aF1.0000000000000056
aa(lp83
F-0.9999999999999996
aF0.9999999999999996
aa(lp84
F-1.0
aF-0.9999999999999991
aa(lp85
F1.0
aF-0.9999999999999992
aa(lp86
F7.994350158593849
aF1.0
aasg8
(lp87
F6.000000000000018
aF1.0
aF-4.999999999999998
aF2.2756771546541516e-15
aF23.98305047578153
asa(dp88
g3
(lp89
(lp90
F1.0
aF1.000000000000008
aa(lp91
F-1.0
aF1.0000000000000009
aa(lp92
F-1.0
aF-0.9999999999999991
aa(lp93
F1.0000000000000022
aF-1.0000000000000036
aa(lp94
F7.994350158593842
aF1.0
aasg8
(lp95
F5.0000000000000195
aF8.881784197001248e-16
aF-2.9999999999999996
aF1.0
aF23.983050475781514
asa(dp96
g3
(lp97
(lp98
F7.994350158593778
aF1.0
aa(lp99
F-1.0
aF-1.0000000000000018
aa(lp100
F-1.0
aF0.9999999999999973
aasg8
(lp101
F23.983050475781347
aF-5.000000000000004
aF-7.549516567451044e-15
asa(dp102
g3
(lp103
(lp104
F-1.0
aF-0.9999999999999987
aa(lp105
F-0.9999999999999973
aF0.9999999999999978
aa(lp106
F1.0
aF0.9999999999999987
aa(lp107
F1.0
aF-1.0
aasg8
(lp108
F-2.9999999999999987
aF1.0
aF4.999999999999997
aF1.3322676295501867e-15
asa(dp109
g3
(lp110
(lp111
F-1.0
aF-1.000000000000001
aa(lp112
F-7.994350158593809
aF1.0
aa(lp113
F-7.994350158593797
aF-1.0
aa(lp114
F1.0
aF0.9999999999999998
aa(lp115
F0.9999999999999927
aF-0.9999999999999947
aasg8
(lp116
F-3.000000000000004
aF4.571464451192555e-15
aF-5.999999999999996
aF5.000000000000001
aF-1.0
asa(dp117
g3
(lp118
(lp119
F7.994350158593318
aF1.0
aa(lp120
F-1.0
aF-1.000000000000012
aa(lp121
F-1.000000000000027
aF1.000000000000019
aasg8
(lp122
F23.983050475780168
aF-6.000000000000041
aF1.0
asa(dp123
g3
(lp124
(lp125
F1.000000000000001
aF-0.9999999999999992
aa(lp126
F1.0
aF1.0000000000000004
aa(lp127
F-7.994350158593808
aF-1.0
aasg8
(lp128
F-1.0
aF3.0000000000000018
aF-6.0
asa(dp129
g3
(lp130
(lp131
F-7.994350158593833
aF1.0
aa(lp132
F-1.0
aF-0.999999999999998
aa(lp133
F1.0000000000000207
aF-1.0000000000000142
aa(lp134
F1.0
aF0.9999999999999992
aasg8
(lp135
F-7.993605777301127e-15
aF-4.999999999999993
aF-1.0
aF5.999999999999996
asa(dp136
g3
(lp137
(lp138
F-1.0
aF-1.0000000000000009
aa(lp139
F-0.0
aF1.0
aa(lp140
F-7.994350158593812
aF1.0
aa(lp141
F7.994350158593741
aF1.0
aa(lp142
F0.9999999999996072
aF-0.9999999999997174
aasg8
(lp143
F-6.0000000000000036
aF5.999999999999998
aF6.217248937900877e-15
aF23.983050475781255
aF-1.0
asa(dp144
g3
(lp145
(lp146
F-7.99435015859381
aF-1.0
aa(lp147
F-1.0
aF0.9999999999999993
aa(lp148
F1.0
aF0.9999999999999988
aa(lp149
F1.0
aF-1.0000000000000004
aasg8
(lp150
F-6.000000000000002
aF1.0
aF2.9999999999999987
aF-1.7775278619936333e-16
asa(dp151
g3
(lp152
(lp153
F-1.0000000000000007
aF1.000000000000001
aa(lp154
F2.2204460492503136e-16
aF-1.0
aa(lp155
F7.994350158593816
aF-1.0
aa(lp156
F1.0
aF0.9999999999999997
aasg8
(lp157
F-1.0
aF2.2204460492503136e-16
aF21.98305047578144
aF3.0
asa(dp158
g3
(lp159
(lp160
F-1.0
aF-0.9999999999999993
aa(lp161
F-1.0
aF0.9999999999999997
aa(lp162
F7.994350158593804
aF1.0
aa(lp163
F7.994350158593778
aF-1.0
aasg8
(lp164
F-3.0
aF-1.0
aF23.98305047578141
aF21.983050475781333
asasI4
(lp165
(dp166
g3
(lp167
(lp168
F7.994350158593817
aF1.0
aa(lp169
F-1.0
aF-0.9999999999999953
aa(lp170
F-7.99435015859377
aF1.0
aasg8
(lp171
F23.98305047578145
aF-2.999999999999994
aF-21.98305047578131
asa(dp172
g3
(lp173
(lp174
F1.0
aF1.0000000000000009
aa(lp175
F1.2639805624310974e-14
aF-1.0
aa(lp176
F-7.9943501585938
aF1.0
aasg8
(lp177
F3.000000000000001
aF3.791941687293292e-14
aF-21.983050475781393
asasI5
(lp178
(dp179
g3
(lp180
(lp181
F-7.99435015859389
aF-1.0
aa(lp182
F1.0
aF1.0000000000000207
aa(lp183
F7.994350158595019
aF1.0
aa(lp184
F1.0000000000000295
aF-1.000000000000036
aasg8
(lp185
F-45.97175079296946
aF10.0000000000001
aF47.97175079297563
aF1.0
asa(dp186
g3
(lp187
(lp188
F-7.99435015859385
aF-1.0
aa(lp189
F1.0
aF1.0000000000000224
aa(lp190
F7.994350158593539
aF1.0
aa(lp191
F1.0
aF-1.0000000000000084
aasg8
(lp192
F-45.971750792969246
aF11.000000000000123
aF47.9717507929676
aF-4.467580525686649e-14
asa(dp193
g3
(lp194
(lp195
F-7.994350158593692
aF-1.0
aa(lp196
F-1.0
aF0.9999999999999949
aa(lp197
F7.994350158593797
aF1.0
aa(lp198
F-1.0
aF-0.9999999999999964
aasg8
(lp199
F-45.97175079296844
aF-3.2508191652924333e-14
aF47.971750792968976
aF-9.999999999999982
asa(dp200
g3
(lp201
(lp202
F7.994350158593777
aF1.0
aa(lp203
F-1.0
aF-1.0
aa(lp204
F-1.0
aF1.0
aasg8
(lp205
F47.97175079296888
aF-11.0
aF1.0
asa(dp206
g3
(lp207
(lp208
F7.994350158593845
aF1.0
aa(lp209
F1.0000000000000528
aF-1.000000000000045
aa(lp210
F-7.994350158593795
aF1.0
aasg8
(lp211
F47.97175079296923
aF-1.0
aF-33.971750792968976
asa(dp212
g3
(lp213
(lp214
F-1.0
aF1.0
aa(lp215
F-7.994350158593802
aF-1.0
aa(lp216
F-0.0
aF-1.0
aa(lp217
F7.994350158593802
aF1.0
aasg8
(lp218
F-1.0
aF-45.971750792969
aF-2.0000000000000018
aF47.971750792969004
asasI6
(lp219
(dp220
g3
(lp221
(lp222
F7.994350158593489
aF-1.0
aa(lp223
F-1.5799757030388644e-15
aF1.0
aa(lp224
F-1.0
aF-1.0
aasg8
(lp225
F33.97175079296736
aF7.999999999999992
aF-13.0
asa(dp226
g3
(lp227
(lp228
F7.9943501585939405
aF-1.0
aa(lp229
F1.0
aF1.0000000000000062
aa(lp230
F-7.9943501585937815
aF-1.0
aasg8
(lp231
F33.97175079296972
aF13.000000000000055
aF-47.971750792968905
asasI7
(lp232
(dp233
g3
(lp234
(lp235
F7.994350158593682
aF1.0
aa(lp236
F-1.0
aF-1.0000000000000189
aa(lp237
F-1.0
aF0.999999999999992
aasg8
(lp238
F45.97175079296839
aF-10.000000000000094
aF-4.174438572590555e-14
asa(dp239
g3
(lp240
(lp241
F-7.994350158593802
aF1.0
aa(lp242
F-1.0000000000000133
aF1.0000000000000182
aa(lp243
F7.994350158593646
aF1.0
aa(lp244
F-1.4433683947256199e-15
aF-1.0
aasg8
(lp245
F-33.971750792969
aF-1.0
aF45.971750792968145
aF-2.0000000000000067
asa(dp246
g3
(lp247
(lp248
F1.0
aF1.0000000000000244
aa(lp249
F-1.0
aF0.9999999999999565
aa(lp250
F-7.994350158593777
aF1.0
aa(lp251
F0.9999999999999646
aF-0.9999999999999567
aa(lp252
F7.994350158593897
aF1.0
aasg8
(lp253
F10.000000000000119
aF-2.202682480856201e-13
aF-33.97175079296889
aF1.0
aF45.9717507929695
asa(dp254
g3
(lp255
(lp256
F1.0
aF0.9999999999999717
aa(lp257
F1.0
aF-1.000000000000025
aa(lp258
F-7.994350158593581
aF1.0
aasg8
(lp259
F9.999999999999858
aF-1.2007815343095742e-13
aF-33.97175079296793
asa(dp260
g3
(lp261
(lp262
F-1.0
aF-0.999999999999992
aa(lp263
F-7.994350158593834
aF1.0
aa(lp264
F7.994350158593814
aF1.0
aa(lp265
F1.0
aF-0.9999999999999911
aasg8
(lp266
F-9.99999999999996
aF-33.97175079296917
aF45.97175079296907
aF4.593437933301453e-14
asasI8
(lp267
(dp268
g3
(lp269
(lp270
F1.0
aF1.0
aa(lp271
F-0.0
aF-1.0
aa(lp272
F-1.0
aF1.0
aasg8
(lp273
F5.999999999999998
aF-2.0
aF-1.0
asa(dp274
g3
(lp275
(lp276
F-7.994350158593822
aF1.0
aa(lp277
F-3.04477318422355e-15
aF1.0
aa(lp278
F1.0
aF1.0000000000000058
aa(lp279
F1.0000000000000027
aF-1.0000000000000018
aasg8
(lp280
F-21.983050475781464
aF5.999999999999987
aF10.000000000000032
aF-1.0
asa(dp281
g3
(lp282
(lp283
F7.994350158593814
aF-1.0
aa(lp284
F-1.0000000000000082
aF1.0000000000000069
aa(lp285
F-1.0
aF-1.0
aasg8
(lp286
F33.971750792969075
aF1.0
aF-10.0
asa(dp287
g3
(lp288
(lp289
F1.0
aF-1.0
aa(lp290
F-8.881784197001244e-16
aF1.0
aa(lp291
F-1.0
aF-1.0
aasg8
(lp292
F-1.0
aF5.999999999999996
aF-10.0
asa(dp293
g3
(lp294
(lp295
F1.0
aF-0.9999999999999966
aa(lp296
F-0.9999999999999885
aF0.9999999999999908
aa(lp297
F-7.994350158593812
aF1.0
aa(lp298
F1.0
aF0.9999999999999941
aa(lp299
F7.994350158593759
aF-1.0
aasg8
(lp300
F1.689307001884556e-14
aF1.0
aF-21.983050475781432
aF9.99999999999997
aF33.971750792968805
asa(dp301
g3
(lp302
(lp303
F1.0
aF1.0000000000000044
aa(lp304
F0.9999999999999917
aF-0.9999999999999866
aa(lp305
F-7.99435015859383
aF1.0
aasg8
(lp306
F6.000000000000012
aF1.0
aF-21.98305047578149
asa(dp307
g3
(lp308
(lp309
F-1.0
aF-1.0
aa(lp310
F-0.0
aF-1.0
aa(lp311
F7.994350158593784
aF-1.0
aa(lp312
F-0.9999999999999956
aF0.9999999999999949
aasg8
(lp313
F-5.999999999999998
aF-2.0
aF33.97175079296892
aF-1.0
asa(dp314
g3
(lp315
(lp316
F1.0000000000000273
aF-1.0000000000000346
aa(lp317
F-1.0
aF-0.9999999999999919
aa(lp318
F-7.99435015859386
aF1.0
aa(lp319
F-1.0
aF0.9999999999999992
aa(lp320
F7.994350158593755
aF-1.0
aasg8
(lp321
F1.0
aF-5.999999999999978
aF-21.98305047578158
aF-1.9746590924361664e-15
aF33.971750792968784
asasI9
(lp322
(dp323
g3
(lp324
(lp325
F1.0
aF1.0000000000000024
aa(lp326
F-1.0
aF-0.9999999999999983
aa(lp327
F-1.0000000000000044
aF1.0000000000000056
aa(lp328
F7.994350158593739
aF-1.0
aa(lp329
F7.994350158593788
aF1.0
aasg8
(lp330
F13.000000000000012
aF-10.999999999999991
aF-1.0
aF55.95480126874992
aF65.9548012687503
asa(dp331
g3
(lp332
(lp333
F1.7801310516593813e-15
aF1.0
aa(lp334
F-1.0
aF1.0
aa(lp335
F-1.0
aF-0.9999999999999964
aa(lp336
F1.0
aF-0.9999999999999964
aa(lp337
F7.994350158593893
aF1.0
aasg8
(lp338
F8.000000000000012
aF1.0
aF-12.999999999999975
aF2.629090345665848e-14
aF65.95480126875108
asa(dp339
g3
(lp340
(lp341
F-1.0
aF-0.9999999999999982
aa(lp342
F-1.0
aF1.0000000000000009
aa(lp343
F1.0
aF1.0000000000000036
aa(lp344
F1.0000000000000049
aF-1.0000000000000058
aasg8
(lp345
F-10.999999999999991
aF3.5527136788004994e-15
aF13.000000000000021
aF1.0
asa(dp346
g3
(lp347
(lp348
F-1.0
aF-1.0000000000000016
aa(lp349
F-1.0
aF0.9999999999999982
aa(lp350
F7.994350158593874
aF1.0
aa(lp351
F0.9999999999999623
aF-0.9999999999999565
aasg8
(lp352
F-13.000000000000007
aF-1.4210854715201978e-14
aF65.95480126875096
aF1.0
asa(dp353
g3
(lp354
(lp355
F-0.9999999999999762
aF0.9999999999999797
aa(lp356
F-1.0
aF-0.9999999999999911
aa(lp357
F-7.994350158593775
aF-1.0
aa(lp358
F1.0
aF-0.99999999999999
aa(lp359
F1.0
aF0.9999999999999976
aasg8
(lp360
F1.0
aF-10.999999999999948
aF-47.97175079296888
aF6.661338147750877e-14
aF12.99999999999998
asa(dp361
g3
(lp362
(lp363
F-7.994350158593838
aF-1.0
aa(lp364
F-7.994350158593993
aF1.0
aa(lp365
F1.0
aF0.9999999999999977
aa(lp366
F1.0000000000000047
aF-1.0000000000000047
aasg8
(lp367
F-47.971750792969196
aF-33.97175079297
aF12.99999999999998
aF-1.0
asa(dp368
g3
(lp369
(lp370
F-7.994350158593611
aF1.0
aa(lp371
F-1.0
aF-1.0000000000000087
aa(lp372
F1.0000000000001597
aF-1.000000000000141
aa(lp373
F-1.7412758098663807e-15
aF1.0
aasg8
(lp374
F-33.97175079296801
aF-13.000000000000062
aF-1.0
aF7.999999999999989
asa(dp375
g3
(lp376
(lp377
F4.7773432435579945e-15
aF-1.0
aa(lp378
F-7.994350158593777
aF-1.0
aa(lp379
F-1.0
aF1.0
aa(lp380
F1.0
aF1.0000000000000018
aa(lp381
F7.994350158592322
aF-1.0
aasg8
(lp382
F-1.999999999999981
aF-47.97175079296886
aF-1.0
aF10.000000000000005
aF55.95480126873956
asa(dp383
g3
(lp384
(lp385
F1.000000000000094
aF-1.0000000000001161
aa(lp386
F1.0
aF0.9999999999999648
aa(lp387
F-7.994350158593844
aF-1.0
aasg8
(lp388
F1.0
aF9.999999999999837
aF-47.97175079296924
asa(dp389
g3
(lp390
(lp391
F-1.0
aF1.0
aa(lp392
F-1.0
aF-1.0000000000000004
aa(lp393
F7.994350158593925
aF-1.0
aa(lp394
F1.0
aF0.9999999999999984
aasg8
(lp395
F-1.0
aF-10.000000000000002
aF55.9548012687513
aF10.999999999999993
asa(dp396
g3
(lp397
(lp398
F-1.0
aF0.9999999999999554
aa(lp399
F-1.0
aF-1.000000000000066
aa(lp400
F-7.994350158593749
aF-1.0
aa(lp401
F1.0000000000001243
aF-1.000000000000149
aa(lp402
F1.0
aF1.0000000000000002
aasg8
(lp403
F-2.429571998058197e-13
aF-10.000000000000304
aF-47.97175079296872
aF1.0
aF11.000000000000002
asa(dp404
g3
(lp405
(lp406
F1.0
aF-1.0000000000000417
aa(lp407
F1.0
aF0.999999999999993
aa(lp408
F-7.9943501585939485
aF-1.0
aasg8
(lp409
F-2.3118465847489976e-13
aF10.99999999999996
aF-47.97175079296979
asa(dp410
g3
(lp411
(lp412
F7.994350158593881
aF1.0
aa(lp413
F-1.0
aF-0.9999999999999964
aa(lp414
F-0.9999999999999991
aF0.9999999999999991
aasg8
(lp415
F65.954801268751
aF-12.999999999999977
aF-1.0
asasI10
(lp416
(dp417
g3
(lp418
(lp419
F7.994350158593806
aF-1.0
aa(lp420
F-1.481227221598937e-16
aF1.0
aa(lp421
F-1.0
aF-0.9999999999999994
aasg8
(lp422
F-1.0658141036401484e-14
aF6.000000000000001
aF-5.999999999999997
asa(dp423
g3
(lp424
(lp425
F-7.994350158593811
aF-1.0
aa(lp426
F-1.0
aF-1.0000000000000016
aa(lp427
F7.99435015859377
aF-1.0
aa(lp428
F1.0
aF1.0000000000000027
aasg8
(lp429
F-6.0
aF-5.000000000000008
aF-3.552713678800482e-14
aF6.000000000000014
asa(dp430
g3
(lp431
(lp432
F7.994350158593813
aF-1.0
aa(lp433
F1.0
aF1.000000000000001
aa(lp434
F-7.994350158593805
aF-1.0
aasg8
(lp435
F-3.2987434315120253e-15
aF5.000000000000006
aF-5.999999999999998
asasI11
(lp436
(dp437
g3
(lp438
(lp439
F7.9943501585938055
aF1.0
aa(lp440
F-2.9624544431978784e-16
aF-1.0
aa(lp441
F-1.0
aF0.9999999999999998
aasg8
(lp442
F5.999999999999998
aF0.0
aF-0.0
asa(dp443
g3
(lp444
(lp445
F7.994350158593793
aF1.0
aa(lp446
F-1.0
aF-1.0000000000000082
aa(lp447
F-7.994350158593855
aF1.0
aasg8
(lp448
F5.999999999999995
aF-3.000000000000022
aF-1.2434497875801753e-14
asa(dp449
g3
(lp450
(lp451
F-7.994350158593815
aF1.0
aa(lp452
F1.0
aF1.0000000000000067
aa(lp453
F7.9943501585938135
aF1.0
aa(lp454
F1.0000000000000016
aF-0.9999999999999992
aasg8
(lp455
F8.881784197001252e-16
aF3.000000000000019
aF6.000000000000004
aF-1.0
asa(dp456
g3
(lp457
(lp458
F-7.9943501585938215
aF1.0
aa(lp459
F-0.9999999999999982
aF0.9999999999999984
aa(lp460
F7.994350158593824
aF1.0
aa(lp461
F1.0
aF-0.9999999999999998
aasg8
(lp462
F-0.0
aF1.0
aF6.0000000000000115
aF0.0
asasI12
(lp463
(dp464
g3
(lp465
(lp466
F-1.0
aF-1.0000000000000002
aa(lp467
F1.0
aF0.9999999999999938
aa(lp468
F-1.0
aF-0.0
aa(lp469
F7.994350158593812
aF1.0
aa(lp470
F7.994350158593859
aF-1.0
aasg8
(lp471
F-3.0000000000000018
aF4.999999999999972
aF0.0
aF6.000000000000002
aF1.4198906743104852e-14
asa(dp472
g3
(lp473
(lp474
F-0.9999999999999938
aF0.9999999999999978
aa(lp475
F-1.0
aF-0.0
aa(lp476
F7.9943501585938215
aF-1.0
aasg8
(lp477
F1.0
aF0.0
aF0.0
asa(dp478
g3
(lp479
(lp480
F0.9999999999999925
aF-0.9999999999999978
aa(lp481
F-1.0
aF-0.0
aa(lp482
F1.0
aF1.0000000000000016
aa(lp483
F7.994350158593817
aF-1.0
aasg8
(lp484
F-1.0
aF0.0
aF3.0000000000000053
aF-6.663430979784023e-16
asa(dp485
g3
(lp486
(lp487
F7.99435015859381
aF1.0
aa(lp488
F-1.0
aF-0.0
aa(lp489
F-1.0
aF-0.999999999999996
aasg8
(lp490
F6.0
aF0.0
aF-4.999999999999982
asasI13
(lp491
(dp492
g3
(lp493
(lp494
F1.0
aF-1.0000000000000184
aa(lp495
F-1.0
aF-1.0000000000000104
aa(lp496
F-7.994350158593812
aF-1.0
aa(lp497
F-0.9999999999999825
aF0.9999999999999869
aa(lp498
F7.994350158593839
aF-1.0
aasg8
(lp499
F-5.597332591908652e-14
aF-6.000000000000032
aF-25.983050475781436
aF1.0
aF21.983050475781518
asa(dp500
g3
(lp501
(lp502
F-7.9943501585938295
aF-1.0
aa(lp503
F-1.0
aF0.9999999999999645
aa(lp504
F1.0
aF0.999999999999967
aa(lp505
F7.994350158593838
aF-1.0
aasg8
(lp506
F-25.98305047578149
aF-1.0302869668521114e-13
aF5.999999999999904
aF21.983050475781518
asa(dp507
g3
(lp508
(lp509
F-7.994350158593819
aF-1.0
aa(lp510
F1.0000000000000178
aF-1.0000000000000129
aa(lp511
F7.994350158593815
aF-1.0
aa(lp512
F1.8317502965621294e-15
aF1.0
aasg8
(lp513
F-25.983050475781454
aF-1.0
aF21.983050475781443
aF6.000000000000008
asa(dp514
g3
(lp515
(lp516
F1.0
aF-0.9999999999999902
aa(lp517
F1.0
aF1.0000000000000044
aa(lp518
F-7.994350158593748
aF-1.0
aasg8
(lp519
F2.844466769630885e-14
aF6.000000000000011
aF-25.98305047578125
asa(dp520
g3
(lp521
(lp522
F7.994350158593861
aF-1.0
aa(lp523
F-1.0
aF0.9999999999999952
aa(lp524
F-1.0
aF-1.0
aasg8
(lp525
F21.983050475781585
aF-1.5799757030388644e-14
aF-5.999999999999999
asasI14
(lp526
(dp527
g3
(lp528
(lp529
F1.0
aF-0.0
aa(lp530
F1.0
aF0.9999999999999969
aa(lp531
F-7.994350158593814
aF-1.0
aasg8
(lp532
F8.0
aF10.999999999999988
aF-65.95480126875051
asa(dp533
g3
(lp534
(lp535
F-7.994350158593805
aF1.0
aa(lp536
F-1.0
aF-1.0000000000000229
aa(lp537
F1.0
aF9.260578672013935e-17
aa(lp538
F-0.9999999999994417
aF0.9999999999993628
aasg8
(lp539
F-55.954801268750444
aF-13.000000000000112
aF8.000000000000002
aF-1.0
asa(dp540
g3
(lp541
(lp542
F-1.0
aF-1.0000000000000036
aa(lp543
F-7.994350158593851
aF-1.0
aa(lp544
F-7.99435015859378
aF1.0
aa(lp545
F1.0
aF0.9999999999999918
aa(lp546
F1.0
aF5.924908886395682e-16
aasg8
(lp547
F-10.999999999999996
aF-65.9548012687508
aF-55.95480126875024
aF12.999999999999961
aF8.000000000000002
asa(dp548
g3
(lp549
(lp550
F1.0
aF-0.0
aa(lp551
F-7.994350158593777
aF1.0
aa(lp552
F1.0000000000000426
aF-1.0000000000000488
aasg8
(lp553
F8.0
aF-55.95480126875022
aF1.0
asasI15
(lp554
(dp555
g3
(lp556
(lp557
F-7.99435015859377
aF-1.0
aa(lp558
F1.0000000000000249
aF-1.0000000000000289
aa(lp559
F7.994350158593715
aF-1.0
aa(lp560
F-1.0
aF0.9999999999999913
aasg8
(lp561
F-65.95480126875019
aF1.0
aF55.95480126874972
aF-6.823926837332837e-14
asa(dp562
g3
(lp563
(lp564
F7.994350158593268
aF-1.0
aa(lp565
F1.0
aF0.999999999999915
aa(lp566
F-7.994350158593674
aF-1.0
aasg8
(lp567
F55.95480126874633
aF12.999999999999543
aF-65.95480126874945
asa(dp568
g3
(lp569
(lp570
F-7.994350158593841
aF-1.0
aa(lp571
F-1.0
aF-1.0000000000000508
aa(lp572
F7.994350158593769
aF-1.0
aa(lp573
F-0.9999999999993404
aF0.9999999999992428
aasg8
(lp574
F-65.95480126875071
aF-13.00000000000027
aF55.95480126875015
aF-1.0
asa(dp575
g3
(lp576
(lp577
F1.0
aF-1.0000000000000122
aa(lp578
F1.1849817772791508e-14
aF1.0
aa(lp579
F-7.994350158593822
aF-1.0
aasg8
(lp580
F-9.599106111157624e-14
aF8.00000000000009
aF-65.95480126875057
asasI16
(lp581
(dp582
g3
(lp583
(lp584
F7.994350158593781
aF1.0
aa(lp585
F-1.0
aF-0.0
aa(lp586
F7.994350158593795
aF-1.0
aasg8
(lp587
F47.971750792968905
aF-5.0
aF33.971750792968976
asas.