(lp0
(lp1
I5
aI6
aI2
aI4
aI0
aI0
aI0
aI0
aa(lp2
I5
aI2
aI2
aI4
aI0
aI0
aI0
aI5
aa(lp3
I5
aI2
aI2
aI2
aI0
aI0
aI0
aI5
aa(lp4
I5
aI6
aI2
aI4
aI0
aI0
aI0
aI5
aa(lp5
I5
aI6
aI2
aI2
aI0
aI0
aI0
aI5
aa(lp6
I3
aI3
aI3
aI3
aI4
aI1
aI1
aI7
aa(lp7
I3
aI3
aI3
aI3
aI4
aI1
aI7
aI7
aa(lp8
I7
aI3
aI3
aI3
aI4
aI1
aI1
aI7
aa(lp9
I7
aI3
aI3
aI3
aI4
aI1
aI7
aI7
aa(lp10
I7
aI3
aI3
aI6
aI1
aI1
aI1
aI7
aa(lp11
I7
aI3
aI3
aI3
aI1
aI1
aI1
aI7
aa(lp12
I7
aI3
aI3
aI6
aI4
aI1
aI1
aI7
aa(lp13
I3
aI6
aI6
aI6
aI4
aI1
aI1
aI7
aa(lp14
I7
aI3
aI6
aI6
aI4
aI1
aI1
aI7
aa(lp15
I3
aI6
aI6
aI6
aI4
aI1
aI1
aI1
aa(lp16
I7
aI6
aI6
aI6
aI4
aI1
aI1
aI1
aa(lp17
I7
aI3
aI6
aI6
aI1
aI1
aI1
aI7
aa(lp18
I7
aI6
aI2
aI2
aI4
aI0
aI1
aI1
aa(lp19
I7
aI6
aI2
aI2
aI1
aI1
aI1
aI1
aa(lp20
I7
aI6
aI2
aI2
aI4
aI0
aI5
aI1
aa(lp21
I7
aI6
aI2
aI2
aI4
aI0
aI5
aI5
aa(lp22
I7
aI6
aI2
aI2
aI4
aI1
aI1
aI1
aa(lp23
I5
aI6
aI2
aI2
aI0
aI0
aI5
aI5
aa(lp24
I3
aI2
aI2
aI2
aI4
aI0
aI0
aI5
aa(lp25
I3
aI2
aI2
aI4
aI4
aI0
aI0
aI5
aa(lp26
I7
aI2
aI2
aI2
aI4
aI0
aI0
aI5
aa(lp27
I7
aI2
aI2
aI4
aI4
aI0
aI0
aI5
aa(lp28
I5
aI2
aI2
aI2
aI0
aI0
aI5
aI5
aa(lp29
I7
aI2
aI2
aI2
aI4
aI0
aI5
aI5
aa(lp30
I7
aI6
aI6
aI2
aI1
aI1
aI1
aI1
aa(lp31
I3
aI6
aI2
aI2
aI4
aI0
aI1
aI1
aa(lp32
I2
aI2
aI2
aI2
aI4
aI0
aI1
aI1
aa(lp33
I3
aI6
aI6
aI2
aI4
aI0
aI1
aI1
aa(lp34
I3
aI2
aI2
aI2
aI4
aI0
aI1
aI1
aa(lp35
I3
aI6
aI6
aI6
aI4
aI0
aI1
aI1
aa(lp36
I7
aI3
aI3
aI3
aI1
aI1
aI7
aI7
aa(lp37
I3
aI2
aI4
aI4
aI4
aI4
aI0
aI0
aa(lp38
I2
aI2
aI2
aI2
aI4
aI0
aI0
aI5
aa(lp39
I2
aI2
aI2
aI4
aI4
aI0
aI0
aI5
aa(lp40
I2
aI2
aI2
aI4
aI4
aI4
aI0
aI5
aa(lp41
I2
aI2
aI2
aI2
aI4
aI4
aI0
aI5
aa(lp42
I7
aI2
aI4
aI4
aI4
aI4
aI0
aI0
aa(lp43
I3
aI2
aI4
aI4
aI4
aI0
aI0
aI0
aa(lp44
I7
aI2
aI4
aI4
aI4
aI0
aI0
aI0
aa(lp45
I3
aI3
aI3
aI6
aI4
aI1
aI1
aI7
aa(lp46
I3
aI3
aI3
aI3
aI6
aI1
aI1
aI7
aa(lp47
I3
aI3
aI3
aI6
aI6
aI1
aI1
aI7
aa(lp48
I3
aI2
aI2
aI4
aI4
aI0
aI0
aI0
aa(lp49
I7
aI2
aI2
aI4
aI4
aI0
aI0
aI0
aa(lp50
I7
aI7
aI3
aI6
aI1
aI1
aI1
aI7
aa(lp51
I7
aI7
aI3
aI6
aI1
aI1
aI7
aI7
aa(lp52
I2
aI2
aI2
aI2
aI4
aI0
aI5
aI1
aa(lp53
I3
aI6
aI6
aI6
aI6
aI1
aI1
aI1
aa(lp54
I5
aI5
aI2
aI4
aI0
aI0
aI0
aI0
aa(lp55
I5
aI5
aI2
aI4
aI0
aI0
aI0
aI5
aa(lp56
I3
aI2
aI2
aI2
aI4
aI0
aI5
aI1
aa(lp57
I7
aI6
aI6
aI6
aI1
aI1
aI1
aI1
aa(lp58
I7
aI2
aI2
aI2
aI4
aI0
aI5
aI1
aa(lp59
I2
aI2
aI4
aI4
aI4
aI4
aI0
aI0
aa(lp60
I2
aI2
aI4
aI4
aI4
aI0
aI0
aI0
aa(lp61
I2
aI2
aI2
aI4
aI4
aI0
aI0
aI0
aa(lp62
I3
aI6
aI2
aI2
aI4
aI0
aI5
aI1
aa(lp63
I3
aI6
aI6
aI6
aI6
aI0
aI1
aI1
aa(lp64
I3
aI2
aI2
aI2
aI4
aI0
aI0
aI1
aa(lp65
I2
aI2
aI2
aI2
aI4
aI0
aI0
aI1
aa(lp66
I3
aI6
aI6
aI2
aI4
aI1
aI1
aI1
aa(lp67
I7
aI6
aI6
aI2
aI4
aI1
aI1
aI1
aa(lp68
I5
aI5
aI2
aI4
aI0
aI0
aI5
aI5
aa(lp69
I7
aI3
aI3
aI6
aI1
aI1
aI1
aI1
aa(lp70
I7
aI7
aI3
aI6
aI1
aI1
aI1
aI1
aa(lp71
I7
aI3
aI3
aI6
aI1
aI1
aI7
aI7
aa(lp72
I3
aI2
aI2
aI2
aI4
aI0
aI5
aI5
aa(lp73
I5
aI5
aI2
aI2
aI0
aI0
aI0
aI5
aa(lp74
I7
aI7
aI3
aI3
aI4
aI1
aI7
aI7
aa(lp75
I5
aI2
aI4
aI4
aI0
aI0
aI0
aI0
aa(lp76
I5
aI2
aI2
aI4
aI0
aI0
aI0
aI0
aa(lp77
I3
aI6
aI6
aI6
aI6
aI1
aI1
aI7
aa(lp78
I7
aI7
aI3
aI3
aI1
aI1
aI7
aI7
aa(lp79
I7
aI6
aI6
aI2
aI4
aI0
aI1
aI1
aa(lp80
I5
aI5
aI2
aI2
aI0
aI0
aI5
aI5
aa(lp81
I2
aI2
aI2
aI4
aI4
aI4
aI0
aI0
aa(lp82
I2
aI2
aI4
aI4
aI4
aI4
aI0
aI5
aa.