(lp0
(lp1
I27
aI39
aI45
aa(lp2
I45
aa(lp3
I21
aI25
aa(lp4
I41
aI59
aa(lp5
I21
aI35
aI59
aa(lp6
I21
aI28
aI59
aa(lp7
I7
aI50
aI59
aa(lp8
I33
aI59
aa(lp9
I47
aI56
aa(lp10
I9
aI56
aI59
aa(lp11
I17
aI56
aI59
aa(lp12
I19
aI56
aI59
aa(lp13
I59
aa(lp14
I15
aI56
aa(lp15
I50
aa(lp16
I39
aI56
aa(lp17
I28
aI56
aa(lp18
I11
aI56
aa(lp19
I18
aI56
aa(lp20
I31
aI56
aa(lp21
I3
aI56
aa(lp22
I6
aI56
aa(lp23
I16
aI56
aa(lp24
I56
aa(lp25
I2
aa.