(lp0
(lp1
I41
aI47
aI59
aa(lp2
I45
aI47
aI59
aa(lp3
I15
aI21
aI45
aa(lp4
I25
aI45
aa(lp5
I27
aI45
aI51
aa(lp6
I9
aI11
aI45
aa(lp7
I39
aI45
aa(lp8
I45
aI49
aa(lp9
I31
aI45
aa(lp10
I45
aI55
aa(lp11
I28
aI45
aa(lp12
I40
aI45
aa(lp13
I3
aI45
aa(lp14
I45
aa(lp15
I12
aI25
aI35
aa(lp16
I6
aI41
aI47
aa(lp17
I6
aI12
aI41
aa(lp18
I6
aI35
aa(lp19
I6
aI12
aI48
aa(lp20
I6
aI12
aI30
aa(lp21
I2
aI6
aI12
aa(lp22
I12
aI37
aa(lp23
I12
aI18
aI33
aa(lp24
I12
aI14
aI18
aa(lp25
I12
aI46
aa(lp26
I12
aI18
aI38
aa(lp27
I6
aI12
aI38
aa(lp28
I6
aI38
aI47
aa.