(lp0
(lp1
I33
aI45
aI59
aa(lp2
I7
aI45
aI59
aa(lp3
I17
aI45
aI59
aa(lp4
I19
aI45
aI59
aa(lp5
I45
aI53
aI59
aa(lp6
I6
aI25
aI45
aa(lp7
I6
aI45
aI57
aa(lp8
I6
aI9
aI45
aa(lp9
I6
aI45
aI55
aa(lp10
I3
aI6
aI45
aa(lp11
I3
aI16
aI45
aa(lp12
I3
aI32
aI45
aa(lp13
I3
aI18
aI45
aa(lp14
I3
aI11
aI45
aa(lp15
I1
aI3
aI45
aa(lp16
I3
aI27
aI33
aa(lp17
I7
aI21
aI28
aa(lp18
I1
aI28
aI41
aa(lp19
I7
aI28
aI35
aa(lp20
I33
aI35
aI40
aa(lp21
I15
aI33
aI35
aa(lp22
I3
aI33
aI35
aa(lp23
I33
aI35
aI39
aa(lp24
I33
aI35
aI49
aa(lp25
I35
aI47
aa(lp26
I31
aI33
aI35
aa(lp27
I33
aI35
aa(lp28
I8
aI33
aa(lp29
I33
aI37
aa(lp30
I33
aI41
aa(lp31
I33
aI40
aI56
aa(lp32
I33
aI54
aa(lp33
I33
aI48
aa(lp34
I30
aI33
aa(lp35
I2
aI33
aa(lp36
I13
aI33
aa(lp37
I1
aI33
aa(lp38
I33
aI46
aa(lp39
I14
aI33
aa(lp40
I33
aI38
aa(lp41
I33
aa.