(lp0
(lp1
I33
aI89
aI93
aa(lp2
I7
aI89
aI93
aa(lp3
I17
aI89
aI93
aa(lp4
I19
aI89
aI93
aa(lp5
I87
aI89
aI93
aa(lp6
I93
aI103
aI105
aa(lp7
I6
aI93
aI105
aa(lp8
I16
aI93
aI105
aa(lp9
I16
aI69
aI93
aa(lp10
I45
aI102
aI129
aa(lp11
I59
aI93
aI102
aa(lp12
I7
aI77
aI129
aa(lp13
I16
aI25
aI93
aa(lp14
I93
aI102
aI129
aa(lp15
I7
aI93
aI129
aa(lp16
I75
aI93
aI129
aa(lp17
I87
aI93
aI129
aa(lp18
I93
aI103
aI107
aa(lp19
I16
aI87
aI93
aa(lp20
I6
aI93
aI107
aa(lp21
I74
aI93
aI107
aa(lp22
I93
aI107
aI123
aa(lp23
I93
aI111
aI123
aa(lp24
I83
aI93
aI123
aa(lp25
I83
aI93
aI101
aa(lp26
I18
aI83
aI93
aa(lp27
I27
aI83
aI93
aa(lp28
I32
aI83
aI93
aa(lp29
I32
aI93
aI139
aa(lp30
I3
aI32
aI93
aa(lp31
I3
aI11
aI93
aa(lp32
I3
aI61
aI93
aa(lp33
I3
aI21
aI93
aa(lp34
I1
aI3
aI93
aa(lp35
I3
aI93
aI95
aa(lp36
I49
aI93
aI95
aa(lp37
I15
aI93
aI115
aa(lp38
I55
aI95
aI137
aa(lp39
I39
aI93
aI115
aa(lp40
I55
aI93
aI115
aa(lp41
I55
aI93
aI95
aa(lp42
I67
aI93
aI95
aa(lp43
I0
aI93
aa(lp44
I31
aI93
aI95
aa(lp45
I47
aI93
aa(lp46
I5
aI93
aa(lp47
I57
aI93
aa(lp48
I60
aI93
aa(lp49
I61
aI93
aI119
aa(lp50
I93
aI127
aa(lp51
I33
aI93
aa(lp52
I23
aI32
aI93
aa(lp53
I87
aI93
aa(lp54
I9
aI32
aI93
aa(lp55
I0
aI32
aI85
aa(lp56
I0
aI32
aI118
aa(lp57
I9
aI118
aa(lp58
I9
aI133
aa(lp59
I9
aI35
aa(lp60
I9
aI41
aI95
aa(lp61
I9
aI66
aI95
aa(lp62
I9
aI66
aa(lp63
I9
aI22
aI40
aa(lp64
I9
aI22
aa(lp65
I9
aI41
aa(lp66
I9
aI40
aI71
aa(lp67
I9
aI40
aI126
aa(lp68
I9
aI110
aa(lp69
I9
aI37
aI40
aa(lp70
I4
aa(lp71
I56
aa(lp72
I54
aa.