(lp0
(lp1
I7
aI9
aI11
aa(lp2
I1
aI3
aI5
aI6
aI9
aI11
aI13
aI15
aI17
aI19
aI21
aa(lp3
I2
aI6
aI9
aa(lp4
I1
aI2
aI5
aI6
aI8
aI11
aI13
aI15
aI17
aI19
aI21
aI23
aI25
aI27
aI28
aI31
aI33
aI35
aI37
aI39
aI45
aa(lp5
I1
aI2
aI5
aI6
aI8
aI11
aI12
aI15
aI17
aI19
aI21
aI23
aI25
aI27
aI28
aI31
aI33
aI35
aI37
aI39
aI45
aa(lp6
I2
aI8
aI12
aa(lp7
I2
aI8
aI15
aa(lp8
I1
aI2
aI5
aI6
aI8
aI11
aI13
aI14
aI17
aI21
aI23
aI25
aI27
aI28
aI31
aI33
aI35
aI37
aI39
aI45
aa(lp9
I1
aI2
aI5
aI8
aI11
aI13
aI14
aI17
aI21
aI23
aI25
aI27
aI28
aI31
aI33
aI34
aI37
aI39
aI45
aa(lp10
I0
aI2
aI11
aa(lp11
I1
aI2
aI5
aI8
aI11
aI13
aI14
aI17
aI21
aI23
aI25
aI27
aI28
aI31
aI33
aI34
aI36
aI39
aI45
aa(lp12
I1
aI2
aI4
aI8
aI11
aI13
aI14
aI17
aI18
aI34
aI36
aa(lp13
I1
aI2
aI5
aI8
aI11
aI13
aI14
aI17
aI21
aI23
aI25
aI26
aI28
aI31
aI33
aI34
aI36
aI39
aI45
aa(lp14
I1
aI2
aI5
aI8
aI11
aI13
aI16
aI18
aI21
aI23
aI25
aI26
aI28
aI31
aI33
aI34
aI36
aI39
aI45
aa(lp15
I1
aI2
aI5
aI8
aI11
aI13
aI14
aI19
aI21
aI23
aI25
aI26
aI28
aI31
aI33
aI34
aI36
aI39
aI45
aa(lp16
I1
aI2
aI5
aI8
aI11
aI13
aI14
aI16
aI21
aI23
aI25
aI26
aI28
aI31
aI33
aI34
aI37
aI39
aI45
aa(lp17
I1
aI2
aI5
aI8
aI11
aI13
aI14
aI17
aI21
aI23
aI25
aI26
aI28
aI31
aI33
aI34
aI37
aI39
aI45
aa(lp18
I1
aI2
aI5
aI8
aI11
aI13
aI14
aI17
aI20
aI23
aI25
aI26
aI28
aI31
aI33
aI34
aI37
aI39
aI45
aa(lp19
I1
aI2
aI5
aI8
aI11
aI13
aI14
aI17
aI20
aI26
aI34
aI36
aa(lp20
I1
aI2
aI5
aI8
aI11
aI13
aI14
aI18
aI26
aI34
aI36
aa(lp21
I1
aI2
aI5
aI8
aI11
aI13
aI14
aI19
aI26
aI34
aI36
aa(lp22
I1
aI2
aI5
aI8
aI11
aI13
aI14
aI16
aI20
aI23
aI25
aI26
aI28
aI31
aI33
aI34
aI37
aI39
aI45
aI49
aa(lp23
I1
aI2
aI5
aI8
aI11
aI13
aI14
aI20
aI23
aI25
aI26
aI28
aI31
aI33
aI34
aI37
aI39
aI45
aa(lp24
I1
aI2
aI5
aI6
aI8
aI11
aI13
aI14
aI20
aI23
aI25
aI26
aI28
aI31
aI33
aI34
aI37
aI39
aI48
aa(lp25
I1
aI2
aI5
aI6
aI8
aI11
aI13
aI14
aI20
aI23
aI25
aI26
aI28
aI31
aI33
aI34
aI37
aI39
aI43
aa(lp26
I1
aI2
aI5
aI6
aI8
aI11
aI13
aI14
aI20
aI25
aI28
aI31
aa(lp27
I1
aI2
aI5
aI7
aI8
aI11
aI13
aI14
aI20
aI25
aI28
aI31
aa(lp28
I1
aI2
aI5
aI8
aI11
aI13
aI14
aI18
aI21
aI23
aI25
aI26
aI28
aI31
aI33
aI34
aI37
aI39
aI42
aa(lp29
I1
aI2
aI5
aI8
aI11
aI13
aI14
aI18
aI21
aI23
aI25
aI26
aI28
aI31
aI33
aI34
aI37
aI39
aI49
aa(lp30
I1
aI2
aI5
aI8
aI11
aI13
aI14
aI18
aI26
aI31
aI34
aa(lp31
I1
aI2
aI5
aI8
aI11
aI13
aI14
aI19
aI26
aI31
aI34
aa(lp32
I1
aI2
aI5
aI8
aI11
aI13
aI14
aI16
aI19
aI34
aI36
aa(lp33
I1
aI2
aI5
aI8
aI11
aI13
aI14
aI17
aI19
aI34
aI36
aa(lp34
I1
aI2
aI5
aI6
aI8
aI11
aI13
aI14
aI19
aI31
aI33
aI34
aa(lp35
I1
aI2
aI5
aI7
aI8
aI11
aI13
aI14
aI16
aI19
aI27
aa(lp36
I1
aI2
aI5
aI7
aI8
aI11
aI13
aI14
aI17
aI19
aI34
aa(lp37
I1
aI2
aI5
aI7
aI8
aI11
aI13
aI14
aI16
aI18
aI27
aa(lp38
I1
aI2
aI5
aI6
aI8
aI11
aI13
aI14
aI16
aI27
aI33
aI34
aa(lp39
I1
aI2
aI5
aI6
aI8
aI11
aI13
aI14
aI19
aI21
aI23
aI25
aI27
aI28
aI31
aI32
aI34
aI37
aI39
aI44
aa(lp40
I1
aI2
aI5
aI6
aI8
aI11
aI13
aI14
aI16
aI19
aI34
aI38
aa(lp41
I1
aI2
aI5
aI6
aI8
aI11
aI13
aI14
aI19
aI21
aI23
aI25
aI27
aI28
aI31
aI32
aI34
aI37
aI39
aI48
aa(lp42
I1
aI2
aI5
aI6
aI8
aI11
aI13
aI14
aI19
aI32
aI34
aa(lp43
I1
aI2
aI5
aI6
aI8
aI11
aI13
aI14
aI16
aI32
aI34
aa(lp44
I1
aI2
aI5
aI7
aI8
aI11
aI13
aI14
aI17
aI18
aI27
aa(lp45
I1
aI2
aI5
aI6
aI8
aI11
aI13
aI14
aI17
aI28
aI32
aI34
aa(lp46
I1
aI2
aI5
aI8
aI11
aI13
aI14
aI17
aI27
aI29
aI34
aa(lp47
I1
aI2
aI5
aI8
aI11
aI13
aI14
aI17
aI18
aI22
aI28
aa(lp48
I1
aI2
aI5
aI8
aI11
aI13
aI14
aI17
aI21
aI23
aI25
aI27
aI28
aI31
aI33
aI34
aI37
aI39
aI47
aI49
aa(lp49
I1
aI2
aI5
aI6
aI8
aI11
aI13
aI14
aI17
aI27
aI33
aI34
aa(lp50
I1
aI2
aI5
aI7
aI8
aI11
aI13
aI14
aI16
aI19
aI21
aI23
aI25
aI26
aI29
aI30
aI32
aI34
aI37
aI39
aI48
aa(lp51
I1
aI2
aI5
aI7
aI8
aI11
aI13
aI14
aI19
aI32
aI34
aa(lp52
I1
aI2
aI5
aI7
aI8
aI11
aI13
aI14
aI30
aI32
aI34
aa(lp53
I1
aI2
aI5
aI7
aI8
aI11
aI13
aI14
aI21
aI23
aI25
aI26
aI29
aI30
aI33
aI34
aI37
aI39
aI41
aI43
aa(lp54
I1
aI2
aI5
aI7
aI8
aI11
aI13
aI14
aI21
aI23
aI25
aI26
aI29
aI30
aI33
aI34
aI37
aI39
aI41
aa(lp55
I1
aI2
aI5
aI7
aI8
aI11
aI13
aI14
aI21
aI25
aI34
aa(lp56
I1
aI2
aI5
aI7
aI8
aI11
aI13
aI14
aI20
aI23
aI25
aI26
aI29
aI30
aI33
aI34
aI37
aI39
aI40
aa(lp57
I1
aI2
aI5
aI7
aI8
aI11
aI13
aI14
aI16
aI25
aI34
aa(lp58
I1
aI2
aI5
aI7
aI8
aI11
aI13
aI14
aI16
aI20
aI23
aI24
aI26
aI29
aI30
aI33
aI34
aI37
aI39
aI47
aa(lp59
I1
aI2
aI5
aI7
aI8
aI11
aI13
aI14
aI18
aI24
aI29
aI34
aa(lp60
I1
aI2
aI5
aI7
aI8
aI11
aI13
aI14
aI16
aI20
aI23
aI24
aI26
aI28
aI30
aI33
aI34
aI37
aI39
aI59
aa(lp61
I1
aI2
aI5
aI7
aI8
aI11
aI13
aI14
aI18
aI20
aI23
aI24
aI26
aI28
aI30
aI33
aI34
aI37
aI39
aI58
aa(lp62
I1
aI2
aI5
aI7
aI8
aI11
aI13
aI14
aI18
aI21
aI23
aI24
aI26
aI28
aI30
aI33
aI34
aI37
aI39
aI59
aa(lp63
I1
aI2
aI5
aI7
aI8
aI11
aI13
aI14
aI18
aI21
aI23
aI24
aI26
aI28
aI30
aI33
aI34
aI37
aI39
aI58
aa(lp64
I1
aI2
aI5
aI7
aI8
aI11
aI13
aI14
aI18
aI28
aI34
aI38
aa(lp65
I1
aI2
aI5
aI7
aI8
aI11
aI13
aI14
aI22
aI28
aI34
aa(lp66
I1
aI2
aI5
aI7
aI8
aI11
aI13
aI14
aI19
aI34
aI38
aa(lp67
I1
aI2
aI5
aI7
aI8
aI11
aI13
aI14
aI19
aI24
aI34
aa(lp68
I1
aI2
aI5
aI7
aI8
aI11
aI13
aI14
aI17
aI18
aI20
aI22
aI25
aI26
aI29
aI30
aI33
aI34
aI37
aI39
aI58
aa(lp69
I1
aI2
aI5
aI7
aI8
aI11
aI13
aI14
aI17
aI20
aI22
aI25
aI26
aI29
aI30
aI33
aI34
aI37
aI39
aI46
aa(lp70
I1
aI2
aI5
aI7
aI8
aI11
aI13
aI14
aI17
aI22
aI25
aa(lp71
I1
aI2
aI5
aI7
aI8
aI11
aI13
aI14
aI17
aI20
aI25
aI34
aa(lp72
I1
aI2
aI5
aI7
aI8
aI11
aI13
aI14
aI17
aI20
aI28
aI30
aa(lp73
I1
aI2
aI5
aI8
aI11
aI13
aI14
aI17
aI20
aI30
aI32
aI34
aa(lp74
I1
aI2
aI5
aI8
aI11
aI13
aI14
aI17
aI30
aI32
aI34
aa(lp75
I1
aI2
aI5
aI8
aI11
aI13
aI14
aI17
aI19
aI30
aI34
aa(lp76
I1
aI2
aI5
aI6
aI8
aI11
aI13
aI14
aI19
aI29
aI34
aa(lp77
I1
aI2
aI5
aI8
aI11
aI13
aI14
aI19
aI21
aI23
aI25
aI26
aI28
aI30
aI33
aI34
aI37
aI39
aI42
aa(lp78
I1
aI2
aI5
aI6
aI8
aI11
aI13
aI14
aI19
aI21
aI23
aI25
aI26
aI28
aI30
aI33
aI34
aI37
aI39
aI47
aa(lp79
I1
aI2
aI5
aI8
aI11
aI13
aI14
aI19
aI21
aI23
aI25
aI26
aI28
aI30
aI33
aI34
aI37
aI39
aI49
aa(lp80
I1
aI2
aI5
aI6
aI8
aI11
aI13
aI14
aI19
aI21
aI26
aI34
aa(lp81
I1
aI2
aI5
aI6
aI8
aI11
aI13
aI14
aI19
aI20
aI23
aI25
aI26
aI28
aI30
aI33
aI34
aI37
aI39
aI48
aa(lp82
I1
aI2
aI5
aI6
aI8
aI11
aI13
aI14
aI19
aI20
aI23
aI25
aI26
aI28
aI30
aI33
aI34
aI37
aI39
aI46
aa(lp83
I1
aI2
aI5
aI8
aI11
aI13
aI14
aI16
aI19
aI20
aI23
aI25
aI26
aI28
aI30
aI33
aI34
aI37
aI39
aI47
aa(lp84
I1
aI2
aI5
aI6
aI8
aI11
aI13
aI14
aI19
aI24
aI34
aa(lp85
I1
aI2
aI5
aI6
aI8
aI11
aI13
aI14
aI19
aI22
aI34
aa(lp86
I1
aI2
aI5
aI6
aI8
aI11
aI13
aI14
aI21
aI22
aI24
aI26
aI29
aI30
aI33
aI34
aI37
aI38
aI43
aa(lp87
I1
aI2
aI5
aI6
aI8
aI11
aI13
aI14
aI21
aI22
aI24
aI26
aI29
aI30
aI33
aI34
aI37
aI38
aI59
aa(lp88
I1
aI2
aI5
aI6
aI8
aI11
aI13
aI14
aI21
aI22
aI24
aI26
aI29
aI30
aI33
aI34
aI37
aI38
aI53
aa(lp89
I1
aI2
aI5
aI6
aI8
aI11
aI13
aI14
aI21
aI22
aI24
aI26
aI29
aI30
aI33
aI34
aI37
aI38
aI55
aa(lp90
I1
aI2
aI5
aI6
aI8
aI11
aI13
aI14
aI21
aI22
aI30
aa(lp91
I1
aI2
aI5
aI6
aI8
aI11
aI13
aI14
aI18
aI22
aI30
aa(lp92
I1
aI2
aI5
aI8
aI11
aI13
aI14
aI18
aI20
aI23
aI24
aI26
aI29
aI30
aI33
aI34
aI37
aI38
aI52
aa(lp93
I1
aI2
aI5
aI6
aI8
aI11
aI13
aI14
aI18
aI20
aI23
aI24
aI26
aI29
aI30
aI33
aI34
aI37
aI38
aI54
aa(lp94
I1
aI2
aI5
aI6
aI8
aI11
aI13
aI14
aI18
aI20
aI38
aa(lp95
I1
aI2
aI5
aI8
aI11
aI13
aI14
aI18
aI20
aI23
aI24
aI26
aI29
aI30
aI33
aI34
aI37
aI39
aI58
aa(lp96
I1
aI2
aI5
aI6
aI8
aI11
aI13
aI14
aI18
aI20
aI23
aI24
aI26
aI29
aI30
aI33
aI34
aI37
aI39
aI46
aa(lp97
I1
aI2
aI5
aI6
aI8
aI11
aI13
aI14
aI18
aI24
aI29
aI34
aa(lp98
I1
aI2
aI5
aI6
aI8
aI11
aI13
aI14
aI18
aI29
aI34
aa(lp99
I1
aI2
aI5
aI8
aI11
aI13
aI14
aI16
aI18
aI20
aI23
aI25
aI26
aI28
aI30
aI33
aI34
aI37
aI39
aI42
aa(lp100
I1
aI2
aI5
aI6
aI8
aI11
aI13
aI14
aI16
aI18
aI20
aI23
aI25
aI26
aI28
aI30
aI33
aI34
aI37
aI39
aI43
aa(lp101
I1
aI2
aI5
aI8
aI11
aI13
aI14
aI18
aI21
aI23
aI25
aI26
aI28
aI30
aI33
aI34
aI37
aI39
aI42
aa(lp102
I1
aI2
aI5
aI6
aI8
aI11
aI13
aI14
aI21
aI23
aI25
aI26
aI28
aI30
aI33
aI34
aI37
aI39
aI43
aa(lp103
I1
aI2
aI5
aI8
aI11
aI13
aI14
aI21
aI23
aI25
aI26
aI28
aI30
aI33
aI34
aI37
aI38
aI43
aa(lp104
I1
aI2
aI5
aI8
aI11
aI13
aI14
aI21
aI25
aI30
aI38
aa(lp105
I1
aI2
aI5
aI8
aI11
aI13
aI14
aI18
aI21
aI23
aI24
aI26
aI28
aI30
aI33
aI34
aI37
aI38
aI47
aa(lp106
I1
aI2
aI5
aI8
aI11
aI13
aI14
aI18
aI28
aI30
aI34
aI38
aa(lp107
I1
aI2
aI5
aI8
aI11
aI13
aI14
aI18
aI21
aI23
aI24
aI26
aI28
aI30
aI33
aI34
aI37
aI39
aI46
aa(lp108
I1
aI2
aI5
aI6
aI8
aI11
aI13
aI14
aI18
aI21
aI24
aI34
aa(lp109
I1
aI2
aI5
aI6
aI8
aI11
aI13
aI14
aI16
aI18
aI24
aI34
aa(lp110
I1
aI2
aI5
aI8
aI11
aI13
aI14
aI17
aI20
aI24
aI28
aI30
aa(lp111
I1
aI2
aI5
aI8
aI11
aI13
aI14
aI17
aI20
aI28
aI30
aI34
aa(lp112
I1
aI2
aI5
aI7
aI8
aI11
aI13
aI14
aI17
aI19
aI20
aI23
aI24
aI26
aI29
aI31
aI32
aI35
aI37
aI39
aI43
aa(lp113
I1
aI2
aI5
aI7
aI8
aI11
aI13
aI14
aI17
aI19
aI20
aI24
aa(lp114
I1
aI2
aI5
aI7
aI8
aI11
aI13
aI14
aI17
aI19
aI32
aI37
aa(lp115
I1
aI2
aI5
aI7
aI8
aI11
aI13
aI14
aI17
aI19
aI21
aI23
aI24
aI26
aI29
aI31
aI32
aI35
aI36
aI39
aI42
aa(lp116
I1
aI2
aI5
aI7
aI8
aI11
aI13
aI14
aI17
aI19
aI31
aI32
aa(lp117
I1
aI2
aI5
aI7
aI8
aI11
aI13
aI14
aI17
aI19
aI32
aa(lp118
I1
aI2
aI5
aI7
aI8
aI11
aI13
aI14
aI17
aI19
aI24
aI30
aa(lp119
I1
aI2
aI5
aI7
aI8
aI11
aI13
aI14
aI17
aI19
aI30
aa(lp120
I1
aI2
aI5
aI7
aI8
aI11
aI13
aI14
aI17
aI19
aI25
aa(lp121
I1
aI2
aI5
aI7
aI8
aI11
aI13
aI14
aI17
aI19
aI21
aI23
aI24
aI26
aI29
aI31
aI33
aI35
aI36
aI39
aI43
aa(lp122
I1
aI2
aI5
aI7
aI8
aI11
aI13
aI14
aI17
aI19
aI21
aI23
aI24
aI26
aI29
aI31
aI33
aI35
aI36
aI39
aI42
aa(lp123
I1
aI2
aI5
aI7
aI8
aI11
aI13
aI14
aI17
aI19
aI21
aI23
aI24
aI26
aI29
aI31
aI33
aI35
aI37
aI39
aI43
aa(lp124
I1
aI2
aI5
aI7
aI8
aI11
aI13
aI14
aI17
aI19
aI29
aI37
aa(lp125
I1
aI2
aI5
aI7
aI8
aI11
aI13
aI14
aI17
aI19
aI27
aa(lp126
I1
aI2
aI5
aI7
aI8
aI11
aI13
aI14
aI17
aI19
aI22
aa(lp127
I1
aI2
aI5
aI7
aI8
aI11
aI13
aI14
aI17
aI19
aI29
aI38
aa(lp128
I1
aI2
aI5
aI7
aI8
aI11
aI13
aI14
aI17
aI19
aI21
aI23
aI24
aI26
aI28
aI31
aI33
aI35
aI36
aI38
aI47
aa(lp129
I1
aI2
aI5
aI7
aI8
aI11
aI13
aI14
aI17
aI19
aI38
aa(lp130
I1
aI2
aI5
aI7
aI8
aI11
aI13
aI14
aI17
aI19
aI28
aa(lp131
I1
aI2
aI5
aI7
aI8
aI11
aI13
aI14
aI16
aI19
aI21
aI23
aI24
aI26
aI29
aI31
aI33
aI35
aI36
aI39
aI46
aa(lp132
I1
aI2
aI5
aI7
aI8
aI11
aI13
aI14
aI19
aI21
aI23
aI24
aI26
aI29
aI31
aI33
aI35
aI36
aI39
aI42
aa(lp133
I1
aI2
aI5
aI7
aI8
aI11
aI13
aI14
aI16
aI19
aI21
aI23
aI24
aI26
aI29
aI31
aI33
aI35
aI36
aI39
aI43
aa(lp134
I1
aI2
aI5
aI7
aI8
aI11
aI13
aI14
aI19
aI21
aI23
aI24
aI26
aI29
aI31
aI33
aI35
aI37
aI39
aI46
aa(lp135
I1
aI2
aI5
aI7
aI8
aI11
aI13
aI14
aI19
aI29
aI31
aI37
aa(lp136
I1
aI2
aI5
aI7
aI8
aI11
aI13
aI14
aI19
aI21
aI23
aI25
aI26
aI29
aI31
aI33
aI35
aI36
aI39
aI42
aa(lp137
I2
aI11
aa(lp138
I1
aI2
aI5
aI7
aI8
aI10
aI13
aI14
aI16
aI19
aI21
aI23
aI25
aI26
aI29
aI31
aI33
aI35
aI36
aI39
aI43
aa(lp139
I1
aI2
aI5
aI7
aI8
aI10
aI13
aI14
aI16
aI19
aI36
aa(lp140
I2
aI16
aa.