(lp0
(lp1
I19
aI41
aa(lp2
I35
aI41
aa(lp3
I7
aI41
aa(lp4
I37
aI41
aa(lp5
I37
aI47
aa(lp6
I25
aI39
aa(lp7
I39
aI45
aa(lp8
I37
aI45
aa(lp9
I9
aI37
aa(lp10
I37
aI57
aa(lp11
I28
aI53
aI55
aa(lp12
I21
aI53
aa(lp13
I1
aI21
aa(lp14
I27
aI37
aa(lp15
I1
aI28
aa(lp16
I1
aI17
aa(lp17
I1
aI33
aa(lp18
I50
aa(lp19
I35
aI36
aI59
aa(lp20
I35
aa(lp21
I1
aI36
aI54
aa(lp22
I1
aI36
aa(lp23
I1
aI15
aa(lp24
I1
aI54
aa(lp25
I39
aa(lp26
I42
aI55
aI58
aa(lp27
I42
aa(lp28
I14
aI55
aI59
aa(lp29
I12
aI37
aa(lp30
I5
aI22
aI58
aa(lp31
I14
aI53
aa(lp32
I19
aa(lp33
I30
aa(lp34
I48
aI58
aa(lp35
I1
aI2
aI55
aa(lp36
I25
aI58
aa(lp37
I4
aI55
aa(lp38
I10
aI37
aa(lp39
I10
aa(lp40
I22
aa(lp41
I45
aa(lp42
I9
aa(lp43
I2
aI53
aa(lp44
I4
aa(lp45
I2
aa(lp46
I27
aI32
aa(lp47
I17
aI32
aa(lp48
I41
aa(lp49
I47
aa(lp50
I32
aI57
aa(lp51
I28
aI32
aa(lp52
I14
aI36
aI59
aa(lp53
I33
aI37
aa(lp54
I17
aa(lp55
I21
aa(lp56
I26
aI57
aa(lp57
I53
aa(lp58
I28
aa(lp59
I33
aI55
aa(lp60
I55
aI59
aa(lp61
I25
aa(lp62
I14
aI36
aI54
aa(lp63
I12
aa(lp64
I20
aI48
aa.