(lp0
(lp1
I61
aI667
aI1015
aa(lp2
I381
aI653
aI1015
aa(lp3
I513
aI667
aI1015
aa(lp4
I667
aI1015
aI1107
aa(lp5
I227
aI667
aI975
aa(lp6
I667
aI975
aI1015
aa(lp7
I653
aI831
aI905
aa(lp8
I21
aI653
aI831
aa(lp9
I303
aI653
aI831
aa(lp10
I653
aI703
aI831
aa(lp11
I211
aI666
aI831
aa(lp12
I302
aI975
aI1015
aa(lp13
I707
aI747
aI1015
aa(lp14
I707
aI747
aI769
aa(lp15
I707
aI747
aI829
aa(lp16
I475
aI707
aI747
aa(lp17
I477
aI707
aI747
aa(lp18
I241
aI303
aI1183
aa(lp19
I303
aI1097
aI1183
aa(lp20
I37
aI904
aI975
aa(lp21
I795
aI904
aI975
aa(lp22
I477
aI666
aI1139
aa(lp23
I129
aI667
aI1097
aa(lp24
I477
aI667
aI707
aa(lp25
I667
aI707
aI989
aa(lp26
I667
aI707
aI1097
aa(lp27
I195
aI667
aI707
aa(lp28
I597
aI667
aI707
aa(lp29
I667
aI707
aI795
aa(lp30
I37
aI667
aI707
aa(lp31
I667
aI707
aI1159
aa(lp32
I133
aI667
aI707
aa(lp33
I325
aI667
aI707
aa(lp34
I625
aI667
aI707
aa(lp35
I321
aI667
aI707
aa(lp36
I667
aI707
aI713
aa(lp37
I667
aI707
aI1151
aa(lp38
I533
aI667
aI707
aa(lp39
I283
aI667
aI707
aa(lp40
I667
aI707
aI1031
aa(lp41
I667
aI707
aI1067
aa(lp42
I315
aI667
aI707
aa(lp43
I667
aI707
aI815
aa(lp44
I667
aI707
aI967
aa(lp45
I667
aI707
aI861
aa(lp46
I667
aI707
aI757
aa(lp47
I60
aI667
aI919
aa(lp48
I61
aI667
aI1123
aa(lp49
I61
aI667
aI813
aa(lp50
I61
aI667
aI907
aa(lp51
I61
aI173
aI667
aa(lp52
I61
aI329
aI667
aa(lp53
I61
aI345
aI667
aa(lp54
I61
aI87
aI667
aa(lp55
I380
aI667
aI919
aa(lp56
I61
aI357
aI667
aa(lp57
I61
aI403
aI667
aa(lp58
I61
aI565
aI667
aa(lp59
I61
aI159
aI667
aa(lp60
I61
aI667
aI821
aa(lp61
I61
aI113
aI1182
aa(lp62
I61
aI417
aI667
aa(lp63
I61
aI593
aI667
aa(lp64
I61
aI451
aI667
aa(lp65
I61
aI615
aI667
aa(lp66
I61
aI501
aI667
aa(lp67
I61
aI667
aI997
aa(lp68
I61
aI111
aI667
aa(lp69
I61
aI425
aI667
aa(lp70
I61
aI473
aI667
aa(lp71
I61
aI79
aI667
aa(lp72
I61
aI667
aI825
aa(lp73
I61
aI667
aI935
aa(lp74
I61
aI667
aI869
aa(lp75
I61
aI667
aI943
aa(lp76
I61
aI1011
aI1182
aa(lp77
I61
aI279
aI1011
aa(lp78
I61
aI703
aI1011
aa(lp79
I61
aI703
aI949
aa(lp80
I61
aI585
aI949
aa(lp81
I61
aI585
aI663
aa(lp82
I61
aI585
aI841
aa(lp83
I61
aI585
aI901
aa(lp84
I61
aI183
aI585
aa(lp85
I61
aI233
aI667
aa(lp86
I61
aI399
aI667
aa(lp87
I380
aI569
aI667
aa(lp88
I128
aI569
aI667
aa(lp89
I61
aI163
aI667
aa(lp90
I128
aI667
aI1111
aa(lp91
I61
aI611
aI667
aa(lp92
I61
aI746
aI1073
aa(lp93
I128
aI667
aI1149
aa(lp94
I61
aI77
aI667
aa(lp95
I61
aI667
aI727
aa(lp96
I61
aI545
aI667
aa(lp97
I61
aI275
aI667
aa(lp98
I61
aI667
aI927
aa(lp99
I61
aI585
aI709
aa(lp100
I61
aI709
aI1033
aa(lp101
I61
aI387
aI709
aa(lp102
I61
aI709
aI1025
aa(lp103
I61
aI709
aI969
aa(lp104
I61
aI709
aI1079
aa(lp105
I61
aI629
aI709
aa(lp106
I61
aI128
aI709
aa(lp107
I61
aI63
aI667
aa(lp108
I61
aI667
aI1003
aa(lp109
I61
aI263
aI951
aa(lp110
I61
aI459
aI667
aa(lp111
I61
aI667
aI951
aa(lp112
I61
aI667
aI941
aa(lp113
I61
aI667
aI807
aa(lp114
I61
aI213
aI885
aa(lp115
I61
aI667
aI859
aa(lp116
I61
aI667
aI793
aa(lp117
I61
aI213
aI667
aa(lp118
I61
aI667
aI875
aa(lp119
I61
aI667
aI1001
aa(lp120
I61
aI667
aI691
aa(lp121
I61
aI667
aI817
aa(lp122
I61
aI667
aI877
aa(lp123
I61
aI579
aI667
aa(lp124
I3
aI61
aI101
aa(lp125
I61
aI128
aI541
aa(lp126
I61
aI667
aI1171
aa(lp127
I61
aI235
aI667
aa(lp128
I61
aI667
aI791
aa(lp129
I61
aI667
aI973
aa(lp130
I61
aI657
aI667
aa(lp131
I61
aI667
aI1101
aa(lp132
I61
aI667
aI771
aa(lp133
I61
aI119
aI667
aa(lp134
I61
aI125
aI667
aa(lp135
I61
aI103
aI667
aa(lp136
I61
aI571
aI667
aa(lp137
I27
aI61
aI667
aa(lp138
I61
aI667
aI1017
aa(lp139
I61
aI667
aI1085
aa(lp140
I61
aI667
aI717
aa(lp141
I128
aI619
aI667
aa(lp142
I61
aI667
aI1035
aa(lp143
I61
aI187
aI667
aa(lp144
I3
aI128
aI549
aa(lp145
I3
aI128
aI667
aa(lp146
I61
aI667
aI1173
aa(lp147
I61
aI73
aI128
aa(lp148
I61
aI667
aI677
aa(lp149
I61
aI667
aI785
aa(lp150
I61
aI667
aI845
aa(lp151
I61
aI655
aI667
aa(lp152
I61
aI667
aI1071
aa(lp153
I61
aI667
aI801
aa(lp154
I61
aI429
aI667
aa(lp155
I61
aI667
aI1043
aa(lp156
I61
aI661
aI667
aa(lp157
I61
aI443
aI667
aa(lp158
I128
aI603
aI903
aa(lp159
I61
aI667
aI937
aa(lp160
I61
aI257
aI667
aa(lp161
I61
aI441
aI667
aa(lp162
I61
aI667
aI839
aa(lp163
I61
aI667
aI751
aa(lp164
I128
aI667
aI707
aa(lp165
I128
aI603
aI667
aa(lp166
I61
aI667
aI803
aa(lp167
I19
aI61
aI746
aa(lp168
I57
aI61
aI667
aa(lp169
I61
aI623
aI667
aa(lp170
I61
aI667
aI685
aa(lp171
I51
aI61
aI667
aa(lp172
I128
aI199
aI667
aa(lp173
I61
aI667
aI729
aa(lp174
I128
aI667
aI925
aa(lp175
I61
aI667
aI979
aa(lp176
I128
aI243
aI667
aa(lp177
I61
aI295
aI667
aa(lp178
I128
aI667
aI1163
aa(lp179
I128
aI667
aI929
aa(lp180
I61
aI667
aI731
aa(lp181
I61
aI667
aI1175
aa(lp182
I61
aI179
aI667
aa(lp183
I23
aI61
aI128
aa(lp184
I61
aI67
aI667
aa(lp185
I61
aI225
aI667
aa(lp186
I39
aI128
aI667
aa(lp187
I61
aI147
aI667
aa(lp188
I61
aI121
aI667
aa(lp189
I128
aI527
aI667
aa(lp190
I128
aI667
aI775
aa(lp191
I61
aI667
aI1027
aa(lp192
I61
aI435
aI667
aa(lp193
I61
aI449
aI667
aa(lp194
I61
aI667
aI799
aa(lp195
I61
aI667
aI913
aa(lp196
I61
aI667
aI1189
aa(lp197
I61
aI128
aI389
aa(lp198
I61
aI128
aI313
aa(lp199
I61
aI291
aI667
aa(lp200
I61
aI128
aI681
aa(lp201
I61
aI667
aI687
aa(lp202
I128
aI351
aI667
aa(lp203
I61
aI457
aI667
aa(lp204
I61
aI573
aI667
aa(lp205
I61
aI427
aI667
aa(lp206
I61
aI128
aI1063
aa(lp207
I61
aI667
aI761
aa(lp208
I61
aI521
aI667
aa(lp209
I49
aI61
aI128
aa(lp210
I128
aI667
aI991
aa(lp211
I61
aI277
aI667
aa(lp212
I61
aI128
aI1139
aa(lp213
I61
aI128
aI667
aa(lp214
I128
aI666
aI1167
aa(lp215
I471
aI637
aI666
aa(lp216
I128
aI637
aI666
aa(lp217
I61
aI107
aI666
aa(lp218
I61
aI203
aI1183
aa(lp219
I61
aI203
aI349
aa(lp220
I61
aI203
aI904
aa(lp221
I20
aI128
aI431
aa(lp222
I61
aI181
aI666
aa(lp223
I20
aI61
aI203
aa(lp224
I61
aI203
aI1113
aa(lp225
I61
aI203
aI1083
aa(lp226
I61
aI203
aI853
aa(lp227
I21
aI128
aI633
aa(lp228
I21
aI61
aI539
aa(lp229
I128
aI141
aI666
aa(lp230
I61
aI647
aI702
aa(lp231
I61
aI97
aI647
aa(lp232
I61
aI97
aI203
aa(lp233
I61
aI161
aI703
aa(lp234
I61
aI203
aI702
aa(lp235
I61
aI203
aI968
aa(lp236
I128
aI589
aI703
aa(lp237
I61
aI1197
aa(lp238
I61
aI1195
aI1196
aa(lp239
I61
aI177
aa(lp240
I253
aI1039
aI1196
aa(lp241
I253
aI509
aI1196
aa(lp242
I309
aI881
aI1196
aa(lp243
I881
aI1089
aI1196
aa(lp244
I465
aI881
aI1196
aa(lp245
I553
aI881
aI1196
aa(lp246
I607
aI881
aI1196
aa(lp247
I512
aI881
aI1196
aa(lp248
I115
aI881
aI1196
aa(lp249
I881
aI983
aI1196
aa(lp250
I509
aI699
aI1196
aa(lp251
I61
aI1177
aI1196
aa(lp252
I61
aI153
aI1196
aa(lp253
I61
aI117
aa(lp254
I61
aI69
aa(lp255
I61
aI891
aa(lp256
I116
aI278
aI749
aa(lp257
I699
aI749
aI1196
aa(lp258
I411
aI749
aI1196
aa(lp259
I407
aI749
aI1196
aa(lp260
I483
aI749
aI1196
aa(lp261
I409
aI749
aI1196
aa(lp262
I666
aI749
aa(lp263
I61
aI824
aa(lp264
I61
aI825
aI1024
aa(lp265
I61
aI628
aI1196
aa(lp266
I61
aI350
aI1196
aa(lp267
I61
aI602
aI1196
aa(lp268
I61
aI535
aI1196
aa(lp269
I61
aI91
aI1196
aa(lp270
I61
aI489
aI1196
aa(lp271
I61
aI172
aa(lp272
I61
aI614
aa(lp273
I2
aI61
aI173
aa(lp274
I61
aI386
aa(lp275
I61
aI584
aa(lp276
I61
aI173
aI990
aa(lp277
I61
aI173
aI371
aa(lp278
I61
aI165
aI173
aa(lp279
I61
aI173
aI627
aa(lp280
I61
aI353
aa(lp281
I61
aI1078
aa(lp282
I61
aI173
aI1179
aa(lp283
I61
aI173
aI517
aa(lp284
I61
aI173
aI774
aa(lp285
I173
aI693
aI983
aa(lp286
I61
aI173
aI1075
aa(lp287
I61
aI173
aI618
aa(lp288
I61
aI173
aI921
aa(lp289
I61
aI173
aI242
aa(lp290
I61
aI1032
aa(lp291
I61
aI173
aI1099
aa(lp292
I61
aI173
aI695
aa(lp293
I61
aI173
aI983
aa(lp294
I349
aI381
aI1196
aa(lp295
I252
aI349
aI1196
aa(lp296
I308
aI349
aI1196
aa(lp297
I349
aI1088
aI1196
aa(lp298
I349
aI513
aI1196
aa(lp299
I349
aI464
aI1196
aa(lp300
I349
aI606
aI1196
aa(lp301
I349
aI615
aI756
aa(lp302
I114
aI349
aI1196
aa(lp303
I114
aI349
aI757
aa(lp304
I349
aI698
aI757
aa(lp305
I96
aI349
aI757
aa(lp306
I349
aI552
aI757
aa(lp307
I243
aI349
aI757
aa(lp308
I173
aI349
aI1191
aa(lp309
I173
aI349
aI470
aa(lp310
I349
aI757
aI920
aa(lp311
I173
aI349
aI410
aa(lp312
I349
aI482
aI757
aa(lp313
I349
aI408
aI757
aa(lp314
I173
aI261
aI349
aa(lp315
I173
aI349
aI538
aa(lp316
I173
aI349
aI971
aa(lp317
I349
aI757
aI1098
aa(lp318
I349
aI694
aI757
aa(lp319
I173
aI349
aI855
aa(lp320
I349
aI703
aI757
aa(lp321
I21
aI349
aI757
aa(lp322
I173
aI349
aI905
aa(lp323
I349
aI615
aI905
aa(lp324
I349
aI825
aI905
aa(lp325
I349
aI905
aI1194
aa(lp326
I349
aI757
aI905
aa(lp327
I279
aI349
aI756
aa(lp328
I349
aI756
aI1033
aa(lp329
I349
aI756
aI1025
aa(lp330
I349
aI619
aI756
aa(lp331
I349
aI756
aI1079
aa(lp332
I3
aI349
aI756
aa(lp333
I349
aI629
aI756
aa(lp334
I116
aI349
aI603
aa(lp335
I116
aI164
aI349
aa(lp336
I176
aI349
aI905
aa(lp337
I116
aI349
aI905
aa(lp338
I116
aI349
aI797
aa(lp339
I349
aI516
aI756
aa(lp340
I349
aI756
aI775
aa(lp341
I116
aI349
aI991
aa(lp342
I116
aI349
aI351
aa(lp343
I60
aI349
aI969
aa(lp344
I349
aI756
aI1178
aa(lp345
I116
aI349
aI534
aa(lp346
I349
aI585
aI756
aa(lp347
I666
aI853
aI1038
aa(lp348
I585
aI666
aI853
aa(lp349
I349
aI511
aI757
aa(lp350
I349
aI369
aI757
aa(lp351
I349
aI585
aI1062
aa(lp352
I245
aI666
aI757
aa(lp353
I349
aI406
aI757
aa(lp354
I349
aI621
aI757
aa(lp355
I349
aI605
aI757
aa(lp356
I177
aI433
aI904
aa(lp357
I177
aI203
aI591
aa(lp358
I29
aI177
aI203
aa(lp359
I160
aI177
aI590
aa(lp360
I177
aI203
aI1112
aa(lp361
I440
aI590
aI666
aa(lp362
I177
aI255
aI590
aa(lp363
I106
aI177
aI203
aa(lp364
I177
aI590
aI626
aa(lp365
I36
aI177
aI203
aa(lp366
I177
aI203
aI666
aa(lp367
I303
aI370
aI667
aa(lp368
I105
aI370
aI667
aa(lp369
I37
aI205
aI667
aa(lp370
I370
aI667
aI781
aa(lp371
I145
aI370
aI667
aa(lp372
I370
aI667
aI1095
aa(lp373
I311
aI370
aI667
aa(lp374
I370
aI667
aI1115
aa(lp375
I370
aI667
aI955
aa(lp376
I37
aI667
aI1009
aa(lp377
I370
aI529
aI667
aa(lp378
I89
aI370
aI667
aa(lp379
I37
aI359
aI667
aa(lp380
I370
aI575
aI667
aa(lp381
I37
aI667
aI689
aa(lp382
I37
aI488
aI667
aa(lp383
I247
aI370
aI667
aa(lp384
I247
aI667
aI1074
aa(lp385
I667
aI843
aI1074
aa(lp386
I37
aI379
aI667
aa(lp387
I667
aI773
aI1074
aa(lp388
I667
aI735
aI1074
aa(lp389
I139
aI667
aI1074
aa(lp390
I139
aI203
aI667
aa(lp391
I203
aI667
aI671
aa(lp392
I203
aI343
aI667
aa(lp393
I203
aI667
aI711
aa(lp394
I37
aI667
aI884
aa(lp395
I203
aI547
aI667
aa(lp396
I41
aI203
aI667
aa(lp397
I37
aI197
aI667
aa(lp398
I203
aI667
aI1187
aa(lp399
I203
aI667
aI948
aa(lp400
I203
aI229
aI667
aa(lp401
I201
aI203
aI667
aa(lp402
I203
aI667
aI900
aa(lp403
I203
aI667
aI1119
aa(lp404
I37
aI72
aI667
aa(lp405
I37
aI65
aI667
aa(lp406
I37
aI48
aI667
aa(lp407
I37
aI583
aI667
aa(lp408
I112
aI667
aI887
aa(lp409
I37
aI388
aI667
aa(lp410
I37
aI588
aI667
aa(lp411
I112
aI203
aI667
aa(lp412
I177
aI203
aI373
aa(lp413
I177
aI182
aI372
aa(lp414
I177
aI372
aI1135
aa(lp415
I177
aI262
aI372
aa(lp416
I177
aI372
aI487
aa(lp417
I177
aI372
aI665
aa(lp418
I177
aI372
aI419
aa(lp419
I177
aI372
aI662
aa(lp420
I177
aI372
aI708
aa(lp421
I177
aI372
aI1010
aa(lp422
I177
aI372
aI540
aa(lp423
I177
aI189
aI372
aa(lp424
I177
aI307
aI372
aa(lp425
I177
aI372
aI497
aa(lp426
I177
aI372
aI987
aa(lp427
I177
aI281
aI372
aa(lp428
I177
aI372
aI453
aa(lp429
I177
aI372
aI1165
aa(lp430
I177
aI289
aI372
aa(lp431
I177
aI372
aI1155
aa(lp432
I177
aI372
aI883
aa(lp433
I177
aI372
aI525
aa(lp434
I177
aI365
aI372
aa(lp435
I177
aI372
aI840
aa(lp436
I7
aI177
aI372
aa(lp437
I177
aI372
aI1072
aa(lp438
I177
aI372
aI1059
aa(lp439
I100
aI177
aI372
aa(lp440
I83
aI177
aI372
aa(lp441
I177
aI372
aI851
aa(lp442
I299
aI372
aI1182
aa(lp443
I22
aI372
aI1183
aa(lp444
I372
aI1005
aI1183
aa(lp445
I90
aI372
aI1183
aa(lp446
I372
aI613
aI1183
aa(lp447
I299
aI372
aI1082
aa(lp448
I299
aI372
aI746
aa(lp449
I299
aI372
aI1166
aa(lp450
I68
aI299
aI372
aa(lp451
I299
aI372
aI852
aa(lp452
I299
aI372
aI880
aa(lp453
I299
aI372
aI585
aa(lp454
I152
aI372
aI1183
aa(lp455
I152
aI372
aI1167
aa(lp456
I721
aI831
aI1167
aa(lp457
I331
aI1167
aI1182
aa(lp458
I1153
aI1167
aI1182
aa(lp459
I505
aI1167
aI1182
aa(lp460
I500
aI504
aI1167
aa(lp461
I504
aI739
aI1182
aa(lp462
I162
aI504
aI1167
aa(lp463
I504
aI1150
aI1182
aa(lp464
I162
aI177
aI504
aa(lp465
I504
aI726
aI1182
aa(lp466
I177
aI372
aI767
aa(lp467
I177
aI203
aI505
aa(lp468
I177
aI504
aa(lp469
I177
aI372
aa(lp470
I37
aI747
aa(lp471
I177
aI1152
aa(lp472
I177
aI330
aI455
aa(lp473
I177
aI373
aI741
aa(lp474
I177
aI330
aa(lp475
I177
aI1151
aa(lp476
I177
aI501
aa(lp477
I302
aI853
aa(lp478
I177
aI373
aI514
aa(lp479
I373
aI585
aI881
aa(lp480
I45
aI177
aI373
aa(lp481
I177
aI373
aI415
aa(lp482
I163
aI177
aa(lp483
I177
aI1058
aa(lp484
I177
aI1004
aa(lp485
I177
aI373
aI723
aa(lp486
I302
aI1083
aa(lp487
I37
aI303
aI524
aa(lp488
I303
aI524
aI1182
aa(lp489
I303
aI585
aI1183
aa(lp490
I36
aI524
aI719
aa(lp491
I36
aI524
aI585
aa(lp492
I373
aI563
aI1182
aa(lp493
I37
aI667
aa(lp494
I177
aI524
aI666
aa(lp495
I524
aI666
aI1039
aa(lp496
I69
aI524
aI666
aa(lp497
I524
aI617
aI666
aa(lp498
I386
aI524
aa(lp499
I524
aI942
aa(lp500
I110
aI524
aa(lp501
I524
aI1197
aa(lp502
I524
aI1195
aa(lp503
I324
aI524
aa(lp504
I23
aI1059
aI1196
aa(lp505
I524
aI831
aa(lp506
I226
aI524
aI830
aa(lp507
I524
aI830
aI1153
aa(lp508
I524
aI830
aI868
aa(lp509
I666
aI798
aI830
aa(lp510
I524
aI830
aI1150
aa(lp511
I344
aI666
aI830
aa(lp512
I524
aI830
aI899
aa(lp513
I282
aI524
aI830
aa(lp514
I191
aI666
aI830
aa(lp515
I493
aI666
aI830
aa(lp516
I666
aI830
aI995
aa(lp517
I447
aI524
aI830
aa(lp518
I207
aI830
aI1059
aa(lp519
I207
aI830
aI1005
aa(lp520
I162
aI524
aI830
aa(lp521
I524
aI830
aI876
aa(lp522
I524
aI1014
aa(lp523
I314
aI666
aI1015
aa(lp524
I349
aI828
aI1015
aa(lp525
I666
aI768
aI1015
aa(lp526
I474
aI666
aI1015
aa(lp527
I666
aI794
aI1015
aa(lp528
I132
aI666
aI1015
aa(lp529
I666
aI1015
aI1158
aa(lp530
I320
aI349
aI1015
aa(lp531
I587
aI666
aI1015
aa(lp532
I349
aI624
aI1015
aa(lp533
I666
aI712
aI1015
aa(lp534
I666
aI1015
aI1030
aa(lp535
I349
aI814
aI1015
aa(lp536
I349
aI906
aI1015
aa(lp537
I328
aI349
aI1015
aa(lp538
I86
aI666
aI1015
aa(lp539
I158
aI349
aI1015
aa(lp540
I349
aI402
aI1015
aa(lp541
I666
aI996
aI1015
aa(lp542
I349
aI564
aI1015
aa(lp543
I666
aI820
aI1015
aa(lp544
I592
aI666
aI1015
aa(lp545
I666
aI812
aI1015
aa(lp546
I450
aI666
aI1015
aa(lp547
I373
aI1015
aI1137
aa(lp548
I331
aI1015
aI1137
aa(lp549
I505
aI1015
aI1137
aa(lp550
I666
aI1015
aI1109
aa(lp551
I372
aI424
aI1015
aa(lp552
I330
aI760
aI1015
aa(lp553
I330
aI424
aI1015
aa(lp554
I472
aI666
aI1015
aa(lp555
I666
aI1015
aI1169
aa(lp556
I78
aI666
aI1015
aa(lp557
I416
aI666
aI1015
aa(lp558
I217
aI666
aI1015
aa(lp559
I265
aI666
aI1015
aa(lp560
I372
aI581
aI1015
aa(lp561
I330
aI581
aI1015
aa(lp562
I330
aI847
aI1015
aa(lp563
I330
aI349
aa(lp564
I172
aI373
aI1015
aa(lp565
I172
aI372
aa(lp566
I330
aI1066
aa(lp567
I330
aI1015
aI1161
aa(lp568
I371
aI373
aI1015
aa(lp569
I373
aI627
aI1015
aa(lp570
I373
aI811
aI1015
aa(lp571
I232
aI330
aI1015
aa(lp572
I373
aI639
aI1015
aa(lp573
I330
aI1113
aa(lp574
I330
aI686
aI1015
aa(lp575
I373
aI595
aI1015
aa(lp576
I81
aI373
aI1015
aa(lp577
I373
aI720
aI1015
aa(lp578
I101
aI1005
aI1015
aa(lp579
I101
aI1069
aa(lp580
I101
aI373
aI1068
aa(lp581
I524
aI806
aI1068
aa(lp582
I524
aI544
aI1068
aa(lp583
I373
aI524
aI1068
aa(lp584
I373
aI999
aI1068
aa(lp585
I373
aI1068
aI1179
aa(lp586
I373
aI476
aI1068
aa(lp587
I373
aI651
aI1068
aa(lp588
I330
aI1034
aI1068
aa(lp589
I109
aI373
aI1068
aa(lp590
I219
aI373
aI1068
aa(lp591
I178
aI666
aI1068
aa(lp592
I169
aI373
aI1068
aa(lp593
I373
aI517
aI1068
aa(lp594
I76
aI330
aI1068
aa(lp595
I118
aI330
aI1068
aa(lp596
I666
aI1029
aI1068
aa(lp597
I330
aI610
aI1068
aa(lp598
I251
aI330
aI1068
aa(lp599
I373
aI993
aI1068
aa(lp600
I271
aI330
aI1068
aa(lp601
I149
aI373
aI1068
aa(lp602
I330
aI988
aa(lp603
I82
aI373
aI989
aa(lp604
I373
aI389
aI989
aa(lp605
I263
aI373
aI989
aa(lp606
I55
aI373
aI989
aa(lp607
I373
aI989
aI1170
aa(lp608
I373
aI961
aI989
aa(lp609
I330
aI792
aI989
aa(lp610
I373
aI461
aI989
aa(lp611
I330
aI989
aI1002
aa(lp612
I330
aI505
aI989
aa(lp613
I330
aI989
aI1093
aa(lp614
I330
aI398
aI989
aa(lp615
I330
aI939
aI989
aa(lp616
I373
aI718
aI989
aa(lp617
I330
aI656
aI989
aa(lp618
I330
aI989
aI1070
aa(lp619
I146
aI330
aI989
aa(lp620
I330
aI874
aI989
aa(lp621
I330
aI989
aI1051
aa(lp622
I330
aI373
aI989
aa(lp623
I373
aI1068
aI1113
aa(lp624
I504
aI760
aI1068
aa(lp625
I302
aI760
aI1068
aa(lp626
I841
aI988
aa(lp627
I988
aI1004
aa(lp628
I185
aI373
aI1068
aa(lp629
I153
aI373
aI1068
aa(lp630
I589
aI1068
aa(lp631
I342
aI988
aa(lp632
I988
aI1011
aa(lp633
I343
aI612
aI1068
aa(lp634
I343
aI1068
aI1075
aa(lp635
I13
aI358
aa(lp636
I12
aI373
aI824
aa(lp637
I12
aI666
aI988
aa(lp638
I507
aI825
aI1058
aa(lp639
I825
aI1007
aI1058
aa(lp640
I988
aI1058
aa(lp641
I505
aI824
aI989
aa(lp642
I359
aI824
aI989
aa(lp643
I302
aI989
aI1000
aa(lp644
I274
aI302
aI989
aa(lp645
I302
aI989
aI1084
aa(lp646
I373
aI989
aI1041
aa(lp647
I302
aI570
aI989
aa(lp648
I302
aI660
aI989
aa(lp649
I302
aI989
aI1172
aa(lp650
I302
aI458
aI989
aa(lp651
I91
aI373
aI989
aa(lp652
I302
aI770
aI989
aa(lp653
I43
aI302
aI989
aa(lp654
I373
aI917
aI989
aa(lp655
I62
aI302
aI989
aa(lp656
I186
aI302
aI989
aa(lp657
I302
aI578
aI989
aa(lp658
I302
aI989
aa(lp659
I303
aI968
aI989
aa(lp660
I104
aI989
aa(lp661
I105
aI378
aI989
aa(lp662
I105
aI885
aI989
aa(lp663
I772
aI989
aa(lp664
I85
aI105
aI1134
aa(lp665
I105
aI504
aI614
aa(lp666
I780
aI989
aa(lp667
I144
aI989
aa(lp668
I73
aI105
aI989
aa(lp669
I105
aI596
aI1154
aa(lp670
I105
aI614
aI1154
aa(lp671
I310
aI989
aa(lp672
I670
aI989
aa(lp673
I954
aI989
aa(lp674
I989
aI1058
aa(lp675
I177
aI303
aI1068
aa(lp676
I204
aI591
aI989
aa(lp677
I204
aI989
aI1153
aa(lp678
I204
aI989
aI1150
aa(lp679
I162
aI204
aI989
aa(lp680
I989
aI1114
aa(lp681
I842
aI989
aa(lp682
I574
aI989
aa(lp683
I6
aI85
aI105
aa(lp684
I84
aI105
aI614
aa(lp685
I989
aI1094
aa(lp686
I710
aI989
aa(lp687
I113
aI989
aa(lp688
I528
aI728
aI989
aa(lp689
I40
aI989
aa(lp690
I989
aI1186
aa(lp691
I183
aI989
aa(lp692
I138
aI728
aI989
aa(lp693
I138
aI989
aa(lp694
I200
aI989
aa(lp695
I196
aI989
aa(lp696
I989
aI1118
aa(lp697
I582
aI989
aa(lp698
I663
aI989
aa(lp699
I228
aI989
aa(lp700
I541
aI989
aa(lp701
I664
aI989
aa(lp702
I529
aI986
aI989
aa(lp703
I486
aI989
aa(lp704
I546
aI989
aa(lp705
I188
aI989
aa(lp706
I989
aI1164
aa(lp707
I882
aI989
aa(lp708
I280
aI989
aa(lp709
I364
aI989
aa(lp710
I496
aI989
aa(lp711
I452
aI989
aa(lp712
I288
aI989
aa(lp713
I547
aI614
aI989
aa(lp714
I306
aI989
aa(lp715
I105
aI838
aI989
aa(lp716
I418
aI676
aI989
aa(lp717
I418
aI989
aa(lp718
I107
aI989
aa(lp719
I597
aI709
aa(lp720
I709
aI989
aa(lp721
I901
aI989
aa(lp722
I105
aI985
aI989
aa(lp723
I204
aI989
aa(lp724
I205
aI688
aI989
aa(lp725
I205
aI989
aI1078
aa(lp726
I205
aI489
aI989
aa(lp727
I205
aI800
aI989
aa(lp728
I64
aI989
aa(lp729
I205
aI950
aI989
aa(lp730
I246
aI989
aa(lp731
I28
aI989
aa(lp732
I949
aI989
aa(lp733
I989
aI1008
aa(lp734
I448
aI989
aa(lp735
I604
aI989
aa(lp736
I989
aI1024
aa(lp737
I270
aI278
aa(lp738
I26
aI989
aa(lp739
I278
aI989
aa(lp740
I620
aI989
aa(lp741
I989
aI1032
aa(lp742
I355
aI989
aa(lp743
I989
aI1016
aI1141
aa(lp744
I763
aI989
aI1141
aa(lp745
I628
aI989
aI1141
aa(lp746
I434
aI989
aI1141
aa(lp747
I912
aI989
aI1141
aa(lp748
I102
aI989
aI1141
aa(lp749
I350
aI989
aI1141
aa(lp750
I774
aI989
aI1141
aa(lp751
I622
aI989
aI1141
aa(lp752
I579
aI989
aI1141
aa(lp753
I846
aI989
aI1141
aa(lp754
I2
aI989
aI1141
aa(lp755
I989
aI1141
aa(lp756
I3
aI936
aI989
aa(lp757
I847
aI936
aI989
aa(lp758
I578
aI936
aI989
aa(lp759
I775
aI936
aI989
aa(lp760
I623
aI936
aI989
aa(lp761
I435
aI936
aI989
aa(lp762
I351
aI936
aI989
aa(lp763
I722
aI936
aI989
aa(lp764
I13
aI20
aI682
aa(lp765
I20
aI491
aI682
aa(lp766
I20
aI469
aI682
aa(lp767
I85
aI468
aI905
aa(lp768
I12
aI71
aI905
aa(lp769
I469
aI682
aI702
aa(lp770
I2
aI12
aI703
aa(lp771
I434
aI682
aI750
aa(lp772
I682
aI750
aI774
aa(lp773
I622
aI682
aI750
aa(lp774
I622
aI682
aa(lp775
I350
aI682
aa(lp776
I682
aI730
aa(lp777
I2
aI682
aa(lp778
I33
aI682
aa(lp779
I442
aI682
aa(lp780
I294
aI654
aI682
aa(lp781
I294
aI596
aI682
aa(lp782
I85
aI294
aI682
aa(lp783
I432
aI682
aa(lp784
I294
aI682
aa(lp785
I535
aI682
aa(lp786
I602
aI682
aa(lp787
I682
aI990
aa(lp788
I56
aI682
aa(lp789
I120
aI682
aI1091
aa(lp790
I120
aI618
aI682
aa(lp791
I618
aI682
aa(lp792
I682
aI1073
aa(lp793
I212
aI682
aa(lp794
I682
aI1174
aa(lp795
I163
aI682
aa(lp796
I567
aI682
aI1103
aa(lp797
I567
aI682
aI933
aa(lp798
I567
aI682
aI1061
aa(lp799
I1060
aI1125
aa(lp800
I567
aI682
aI1129
aa(lp801
I44
aI49
aI682
aa(lp802
I44
aI682
aI846
aa(lp803
I649
aI682
aI846
aa(lp804
I161
aI649
aI682
aa(lp805
I13
aI161
aI682
aa(lp806
I490
aI703
aI1037
aa(lp807
I468
aI847
aI1037
aa(lp808
I468
aI847
aI897
aa(lp809
I13
aI682
aI702
aa(lp810
I682
aI702
aI787
aa(lp811
I468
aI703
aI897
aa(lp812
I301
aI682
aI702
aa(lp813
I300
aI905
aI1105
aa(lp814
I97
aI469
aI682
aa(lp815
I300
aI905
aI1055
aa(lp816
I300
aI303
aI1055
aa(lp817
I300
aI303
aI423
aa(lp818
I131
aI300
aI303
aa(lp819
I12
aI96
aI904
aa(lp820
I13
aI96
aI846
aa(lp821
I96
aI1147
aI1151
aa(lp822
I13
aI96
aI1151
aa(lp823
I13
aI471
aI682
aa(lp824
I13
aI682
aI1152
aa(lp825
I13
aI590
aI682
aa(lp826
I13
aI682
aI1063
aa(lp827
I13
aI682
aI734
aa(lp828
I96
aI165
aI490
aa(lp829
I13
aI96
aI1160
aa(lp830
I13
aI407
aI682
aa(lp831
I13
aI96
aI727
aa(lp832
I13
aI368
aI682
aa(lp833
I13
aI539
aI682
aa(lp834
I13
aI298
aI538
aa(lp835
I470
aI490
aI897
aa(lp836
I13
aI538
aI580
aa(lp837
I13
aI553
aI682
aa(lp838
I13
aI552
aI807
aa(lp839
I13
aI552
aa(lp840
I13
aI538
aa(lp841
I13
aI96
aa(lp842
I96
aI1153
aa(lp843
I96
aI469
aa(lp844
I421
aI468
aI470
aa(lp845
I468
aI591
aI860
aa(lp846
I468
aI591
aI753
aa(lp847
I194
aI468
aI591
aa(lp848
I194
aI468
aI470
aa(lp849
I96
aI194
aI468
aa(lp850
I96
aI468
aI519
aa(lp851
I96
aI468
aI532
aa(lp852
I96
aI237
aI468
aa(lp853
I96
aI468
aI755
aa(lp854
I96
aI468
aI725
aa(lp855
I96
aI468
aI673
aa(lp856
I96
aI468
aI485
aa(lp857
I96
aI231
aI468
aa(lp858
I96
aI468
aI1049
aa(lp859
I299
aI468
aI471
aa(lp860
I299
aI468
aI1129
aa(lp861
I468
aI470
aI1129
aa(lp862
I96
aI468
aI1129
aa(lp863
I96
aI259
aI468
aa(lp864
I96
aI468
aI923
aa(lp865
I59
aI96
aI468
aa(lp866
I96
aI551
aa(lp867
I96
aI131
aa(lp868
I96
aI1096
aa(lp869
I96
aI909
aa(lp870
I1
aI96
aa(lp871
I0
aI96
aI966
aa(lp872
I0
aI471
aI1161
aa(lp873
I0
aI96
aI865
aa(lp874
I0
aI471
aI735
aa(lp875
I0
aI735
aI1193
aa(lp876
I0
aI735
aa(lp877
I240
aI470
aa(lp878
I96
aI240
aa(lp879
I96
aI1150
aa(lp880
I96
aI1199
aa(lp881
I96
aI339
aa(lp882
I96
aI743
aa(lp883
I471
aI726
aI742
aa(lp884
I471
aI581
aI742
aa(lp885
I437
aI581
aI742
aa(lp886
I437
aI742
aI806
aa(lp887
I590
aI742
aI816
aa(lp888
I254
aI591
aI742
aa(lp889
I287
aI590
aI742
aa(lp890
I253
aI742
aI926
aa(lp891
I590
aI742
aI1023
aa(lp892
I437
aI591
aI742
aa(lp893
I591
aI742
aa(lp894
I456
aI590
aI742
aa(lp895
I426
aI590
aI742
aa(lp896
I327
aI470
aI742
aa(lp897
I471
aI742
aI847
aa(lp898
I471
aI742
aI844
aa(lp899
I742
aI844
aI846
aa(lp900
I470
aI742
aI784
aa(lp901
I742
aI784
aI1062
aa(lp902
I301
aI1062
aa(lp903
I271
aI300
aI471
aa(lp904
I471
aI742
aI833
aa(lp905
I96
aI742
aI1188
aa(lp906
I471
aI742
aa(lp907
I301
aI470
aa(lp908
I271
aI300
aI1148
aa(lp909
I271
aI300
aI779
aa(lp910
I271
aI300
aI690
aa(lp911
I300
aI512
aI641
aa(lp912
I300
aI470
aI599
aa(lp913
I300
aI470
aI690
aa(lp914
I300
aI470
aI523
aa(lp915
I249
aI300
aI470
aa(lp916
I93
aI300
aI512
aa(lp917
I300
aI513
aI977
aa(lp918
I300
aI470
aI965
aa(lp919
I300
aI470
aI537
aa(lp920
I300
aI385
aI470
aa(lp921
I300
aI512
aa(lp922
I300
aI513
aI1013
aa(lp923
I505
aI513
aI1063
aa(lp924
I504
aI513
aI568
aa(lp925
I504
aI513
aI940
aa(lp926
I300
aI397
aI513
aa(lp927
I5
aI300
aI513
aa(lp928
I300
aI513
aI543
aa(lp929
I300
aI513
aI981
aa(lp930
I267
aI300
aI513
aa(lp931
I300
aI513
aI940
aa(lp932
I273
aI300
aI513
aa(lp933
I300
aI513
aI849
aa(lp934
I300
aI513
aI745
aa(lp935
I11
aI300
aI513
aa(lp936
I778
aI1147
aI1151
aa(lp937
I469
aI471
aI569
aa(lp938
I469
aI471
aI778
aa(lp939
I471
aI778
aI1153
aa(lp940
I471
aI778
aI1147
aa(lp941
I194
aI471
aI778
aa(lp942
I471
aI725
aI778
aa(lp943
I59
aI471
aI778
aa(lp944
I231
aI471
aI1149
aa(lp945
I421
aI471
aI1149
aa(lp946
I59
aI471
aI1149
aa(lp947
I471
aI519
aI1149
aa(lp948
I471
aI755
aI1149
aa(lp949
I436
aI471
aI755
aa(lp950
I97
aI270
aI1150
aa(lp951
I97
aI941
aI1150
aa(lp952
I241
aI471
aI755
aa(lp953
I471
aI755
aI1012
aa(lp954
I237
aI471
aI1012
aa(lp955
I237
aI471
aI976
aa(lp956
I237
aI471
aI941
aa(lp957
I237
aI471
aI691
aa(lp958
I259
aI471
aI691
aa(lp959
I471
aI691
aI865
aa(lp960
I471
aI691
aI1049
aa(lp961
I240
aI396
aI471
aa(lp962
I406
aI640
aI1049
aa(lp963
I406
aI485
aI640
aa(lp964
I369
aI485
aI640
aa(lp965
I164
aI485
aI640
aa(lp966
I164
aI287
aI640
aa(lp967
I92
aI97
aI287
aa(lp968
I0
aI471
aI816
aa(lp969
I287
aI471
aI536
aa(lp970
I162
aI240
aI536
aa(lp971
I426
aI471
aI536
aa(lp972
I240
aI271
aI536
aa(lp973
I163
aI241
aa(lp974
I164
aI270
aa(lp975
I241
aI846
aa(lp976
I162
aI240
aI272
aa(lp977
I240
aI271
aI272
aa(lp978
I240
aI271
aI848
aa(lp979
I241
aI847
aa(lp980
I240
aI744
aI847
aa(lp981
I240
aI266
aI847
aa(lp982
I240
aI266
aI271
aa(lp983
I162
aI240
aI270
aa(lp984
I165
aI255
aI505
aa(lp985
I240
aI504
aI1072
aa(lp986
I270
aI927
aa(lp987
I240
aI266
aI1072
aa(lp988
I240
aI266
aI641
aa(lp989
I97
aI640
aI802
aa(lp990
I640
aI703
aa(lp991
I160
aI640
aa(lp992
I48
aI702
aI980
aa(lp993
I266
aI702
aI716
aa(lp994
I266
aI702
aa(lp995
I161
aI271
aI964
aa(lp996
I161
aI271
aI832
aa(lp997
I161
aI542
aI1072
aa(lp998
I471
aI542
aa(lp999
I4
aI165
aa(lp1000
I97
aI598
aa(lp1001
I164
aI271
aa(lp1002
I163
aI1097
aa(lp1003
I162
aI165
aI384
aa(lp1004
I471
aI522
aa(lp1005
I846
aI1097
aa(lp1006
I0
aI471
aa(lp1007
I162
aI248
aI1096
aa(lp1008
I163
aI864
aa(lp1009
I846
aI864
aa(lp1010
I338
aI471
aa(lp1011
I846
aI865
aI1022
aa(lp1012
I162
aI468
aa(lp1013
I162
aI1198
aa(lp1014
I469
aI703
aa(lp1015
I163
aI468
aa(lp1016
I469
aI484
aI702
aa(lp1017
I550
aI702
aa(lp1018
I672
aI702
aa(lp1019
I551
aI702
aI1048
aa(lp1020
I130
aI702
aa(lp1021
I131
aI160
aa(lp1022
I469
aI1072
aa(lp1023
I724
aI1073
aa(lp1024
I195
aI1073
aa(lp1025
I908
aI1073
aa(lp1026
I194
aI1073
aI1128
aa(lp1027
I230
aI1073
aa(lp1028
I967
aI1073
aa(lp1029
I258
aI1073
aa(lp1030
I533
aI1073
aa(lp1031
I58
aI1073
aa(lp1032
I59
aI1060
aI1073
aa(lp1033
I59
aI717
aI1192
aa(lp1034
I786
aI1073
aa(lp1035
I754
aI1073
aa(lp1036
I787
aI922
aI1073
aa(lp1037
I787
aI1073
aI1192
aa(lp1038
I12
aa(lp1039
I490
aa(lp1040
I1054
aI1073
aa(lp1041
I422
aa(lp1042
I752
aa(lp1043
I648
aa(lp1044
I518
aI1073
aa(lp1045
I236
aa(lp1046
I1104
aa(lp1047
I861
aa(lp1048
I619
aa(lp1049
I618
aI1102
aI1105
aa(lp1050
I286
aI618
aa(lp1051
I213
aa(lp1052
I48
aI1105
aa(lp1053
I457
aI905
aI1105
aa(lp1054
I49
aI932
aI1105
aa(lp1055
I45
aI49
aa(lp1056
I845
aI1146
aa(lp1057
I991
aa(lp1058
I1090
aa(lp1059
I603
aa(lp1060
I57
aa(lp1061
I1175
aa(lp1062
I803
aI1146
aa(lp1063
I1146
aa.