(lp0
(lp1
I7
aI9
aa(lp2
I1
aI3
aI5
aI6
aI9
aI15
aa(lp3
I1
aI2
aI5
aI6
aI9
aI15
aa(lp4
I1
aI2
aI4
aI6
aI9
aI15
aa(lp5
I1
aI2
aI4
aI6
aI8
aI15
aa(lp6
I4
aI7
aa(lp7
I1
aI2
aI4
aI6
aI8
aI11
aI13
aI14
aI17
aI19
aI27
aa(lp8
I1
aI2
aI4
aI6
aI8
aI11
aI13
aI14
aI16
aI19
aI27
aa(lp9
I1
aI2
aI4
aI6
aI8
aI11
aI13
aI14
aI16
aI18
aI29
aa(lp10
I0
aI2
aI4
aI6
aI8
aI11
aI13
aI14
aI16
aI19
aI27
aa(lp11
I0
aI3
aI4
aI6
aI8
aI11
aI13
aI14
aI16
aI19
aI27
aa(lp12
I0
aI3
aI4
aI6
aI8
aI17
aa(lp13
I0
aI2
aI4
aI6
aI8
aI17
aa(lp14
I0
aI2
aI4
aI6
aI9
aI17
aa(lp15
I0
aI2
aI5
aI6
aI9
aI17
aa(lp16
I0
aI2
aI5
aI6
aI8
aI17
aa(lp17
I0
aI2
aI5
aI6
aI8
aI11
aI13
aI14
aI16
aI19
aI27
aa(lp18
I2
aI7
aa(lp19
I0
aI2
aI5
aI6
aI8
aI10
aI13
aI14
aI16
aI19
aI27
aa(lp20
I0
aI3
aI5
aI6
aI8
aI10
aI13
aI14
aI16
aI19
aI27
aa(lp21
I0
aI3
aI4
aI6
aI8
aI10
aI13
aI14
aI16
aI19
aI27
aa(lp22
I0
aI3
aI4
aI6
aI8
aI10
aI13
aI14
aI16
aI19
aI21
aI23
aI25
aI26
aI29
aI31
aa(lp23
I0
aI3
aI4
aI6
aI8
aI10
aI13
aI14
aI16
aI19
aI21
aI22
aI25
aI26
aI29
aI31
aa(lp24
I0
aI3
aI4
aI6
aI8
aI10
aI13
aI14
aI16
aI19
aI21
aI22
aI25
aI26
aI29
aI33
aa(lp25
I0
aI3
aI4
aI6
aI8
aI10
aI13
aI14
aI16
aI19
aI21
aI22
aI24
aI26
aI29
aI35
aa(lp26
I3
aI4
aI6
aI10
aI13
aI14
aI16
aI19
aI21
aI22
aI24
aI26
aI29
aI33
aa(lp27
I3
aI4
aI6
aI10
aI13
aI14
aI16
aI19
aI22
aI29
aa(lp28
I3
aI4
aI6
aI10
aI13
aI14
aI19
aI24
aI26
aI29
aa(lp29
I0
aI3
aI4
aI6
aI10
aI13
aI14
aI16
aI19
aI29
aa(lp30
I3
aI4
aI6
aI10
aI13
aI14
aI16
aI19
aI21
aI23
aI25
aI26
aI28
aI30
aa(lp31
I3
aI4
aI6
aI10
aI13
aI14
aI16
aI19
aI21
aI23
aI25
aI26
aI28
aI32
aa(lp32
I3
aI4
aI6
aI10
aI13
aI14
aI19
aI21
aI22
aI25
aI26
aI28
aI32
aI39
aa(lp33
I3
aI4
aI6
aI10
aI13
aI14
aI19
aI21
aI22
aI25
aI26
aI28
aI32
aa(lp34
I0
aI3
aI4
aI6
aI8
aI10
aI13
aI14
aI16
aI19
aI21
aI23
aI25
aI26
aI28
aI38
aa(lp35
I0
aI3
aI4
aI6
aI10
aI13
aI14
aI16
aI19
aI25
aa(lp36
I1
aI4
aa(lp37
I0
aI3
aI4
aI6
aI10
aI13
aI14
aI16
aI19
aI21
aa(lp38
I0
aI3
aI4
aI6
aI10
aI13
aa(lp39
I0
aI2
aI4
aI6
aI8
aI10
aI13
aI14
aI16
aI19
aI20
aa(lp40
I0
aI4
aI6
aI9
aI10
aI13
aI14
aI16
aI19
aI23
aa(lp41
I0
aI2
aI4
aI6
aI9
aI10
aI13
aa(lp42
I0
aI4
aI6
aI10
aI13
aI14
aI16
aI19
aI21
aI22
aa(lp43
I0
aI2
aI4
aI6
aI8
aI10
aI13
aI14
aI16
aI19
aI21
aa(lp44
I0
aI2
aI4
aI6
aI9
aI11
aI13
aI14
aI16
aI19
aI23
aa(lp45
I0
aI2
aI4
aI6
aI9
aI19
aa(lp46
I2
aI4
aI6
aI8
aI11
aI13
aI14
aI16
aI19
aI22
aa(lp47
I0
aI2
aI4
aI6
aI8
aI19
aa(lp48
I0
aI3
aI4
aI6
aI9
aI11
aI13
aI14
aI16
aI19
aI23
aa(lp49
I0
aI3
aI4
aI6
aI9
aI11
aI13
aI14
aI16
aI19
aI20
aI22
aI24
aI26
aI28
aI39
aa(lp50
I0
aI3
aI4
aI6
aI9
aI19
aa(lp51
I3
aI4
aI6
aI11
aI13
aI14
aI16
aI19
aI20
aI22
aI24
aI26
aI28
aI38
aa(lp52
I4
aa(lp53
I0
aI3
aI5
aI6
aI8
aI11
aI13
aI14
aI16
aI19
aI22
aa(lp54
I0
aI3
aI5
aI6
aI8
aI13
aI19
aa(lp55
I0
aI2
aI6
aI8
aI11
aI13
aI14
aI16
aI19
aI23
aa(lp56
I0
aI2
aI5
aI11
aI13
aI14
aI16
aI19
aI22
aa(lp57
I0
aI3
aI5
aI6
aI9
aI19
aa(lp58
I5
aI6
aI9
aI11
aI13
aI14
aI16
aI19
aI20
aa(lp59
I0
aI5
aI6
aI9
aI10
aI13
aI14
aI16
aI19
aI20
aa(lp60
I0
aI2
aI5
aI8
aI10
aI13
aa(lp61
I0
aI2
aI5
aI6
aI9
aI19
aa(lp62
I1
aI3
aI5
aI6
aI9
aI19
aa(lp63
I2
aI5
aI6
aI9
aI10
aI13
aI14
aI16
aI19
aI20
aa(lp64
I1
aI9
aa(lp65
I1
aI2
aI5
aI6
aI8
aI19
aa(lp66
I0
aI2
aI5
aI8
aI11
aI12
aI14
aI16
aI19
aI21
aa(lp67
I0
aI2
aI5
aI6
aI8
aI10
aI12
aI14
aI16
aI19
aI21
aa(lp68
I0
aI2
aI5
aI6
aI11
aI12
aI14
aI16
aI19
aI23
aa(lp69
I0
aI2
aI5
aI6
aI8
aI19
aa(lp70
I0
aI2
aI5
aI6
aI9
aI11
aI14
aI16
aI18
aI20
aI22
aI24
aI26
aI28
aI37
aa(lp71
I2
aa(lp72
I1
aI3
aI5
aI8
aI11
aI12
aI14
aI16
aI18
aI20
aI22
aI24
aI26
aI28
aI36
aa(lp73
I1
aI3
aI5
aI8
aI11
aI12
aI14
aI16
aI18
aI22
aa(lp74
I1
aI3
aI5
aI8
aI12
aI18
aa(lp75
I1
aI3
aI6
aI8
aI11
aI13
aI14
aI16
aI18
aI20
aa(lp76
I1
aI3
aI5
aI6
aI8
aI18
aa(lp77
I1
aI5
aI6
aI8
aI11
aI13
aI14
aI16
aI19
aI21
aa(lp78
I1
aI3
aI5
aI6
aI8
aI13
aa(lp79
I1
aI3
aI5
aI6
aI8
aI11
aa(lp80
I1
aI3
aI5
aI6
aI8
aI10
aI12
aI14
aI16
aI19
aI23
aa(lp81
I1
aI3
aI5
aI6
aI8
aI10
aI12
aI14
aI16
aI19
aI20
aI22
aI24
aI26
aI28
aI39
aa(lp82
I3
aI5
aI6
aI8
aI10
aI12
aI14
aI16
aI19
aI24
aI26
aI28
aI33
aI35
aI37
aI38
aa(lp83
I3
aI5
aI6
aI8
aI12
aI14
aI16
aI19
aI20
aI22
aI24
aI26
aI28
aI33
aI35
aa(lp84
I1
aI3
aI5
aI8
aI10
aI12
aI14
aI16
aI19
aI20
aI22
aI24
aI26
aI28
aI33
aI36
aa(lp85
I1
aI3
aI5
aI8
aI10
aI12
aI14
aI16
aI19
aI20
aI22
aI24
aI26
aI28
aI35
aI37
aa(lp86
I1
aI3
aI5
aI6
aI8
aI10
aI12
aI14
aI16
aI19
aI20
aI22
aI24
aI26
aI28
aI35
aa(lp87
I1
aI3
aI5
aI6
aI8
aI10
aI12
aI14
aI16
aI19
aI20
aI22
aI24
aI26
aI28
aI36
aa(lp88
I3
aI5
aI6
aI8
aI10
aI14
aI16
aI19
aI20
aI22
aI26
aI29
aI33
aI37
aa(lp89
I3
aI5
aI6
aI8
aI10
aI14
aI16
aI19
aI20
aI22
aI24
aI26
aI29
aI33
aa(lp90
I3
aI5
aI6
aI8
aI10
aI12
aI14
aI19
aI20
aI22
aI24
aI26
aI29
aI34
aa(lp91
I1
aI3
aI6
aI8
aI10
aI12
aI14
aI16
aI19
aI26
aI29
aa(lp92
I3
aI5
aI6
aI8
aI10
aI12
aI14
aI16
aI19
aI20
aI25
aI26
aI28
aI35
aI38
aa(lp93
I1
aI3
aI6
aI8
aI12
aI14
aI16
aI20
aI22
aI25
aI26
aI28
aI36
aa(lp94
I1
aI3
aI6
aI8
aI12
aI14
aI16
aI19
aI20
aI22
aI25
aI26
aI28
aI35
aa(lp95
I1
aI3
aI5
aI6
aI8
aI12
aI14
aI16
aI19
aI20
aI22
aI25
aI26
aI28
aI32
aa(lp96
I3
aI6
aI8
aI10
aI12
aI14
aI16
aI19
aI22
aI25
aa(lp97
I3
aI5
aI6
aI8
aI10
aI12
aI14
aI16
aI19
aI20
aI22
aI24
aI27
aI28
aI39
aa(lp98
I1
aI3
aI5
aI6
aI8
aI10
aI12
aI16
aI19
aI20
aI22
aI24
aI27
aI28
aI37
aa(lp99
I1
aI3
aI5
aI6
aI8
aI10
aI12
aI16
aI19
aI20
aI22
aI24
aI27
aI28
aI33
aa(lp100
I1
aI3
aI5
aI6
aI8
aI10
aI12
aI14
aI16
aI19
aI20
aI22
aI24
aI27
aI28
aI34
aa(lp101
I1
aI3
aI5
aI6
aI8
aI10
aI12
aI14
aI16
aI19
aI27
aa(lp102
I3
aI5
aI6
aI8
aI10
aI12
aI14
aI16
aI19
aI21
aI22
aI24
aI26
aI28
aI35
aa(lp103
I3
aI5
aI6
aI8
aI10
aI12
aI14
aI19
aI21
aI24
aI26
aI28
aI32
aI36
aa(lp104
I3
aI5
aI6
aI8
aI10
aI14
aI16
aI19
aI21
aI22
aI24
aI26
aI28
aI32
aa(lp105
I1
aI3
aI5
aI8
aI10
aI12
aI14
aI16
aI19
aI21
aI22
aI24
aI26
aI28
aI38
aa(lp106
I1
aI3
aI5
aI6
aI8
aI10
aI12
aI14
aI16
aI19
aI21
aI22
aa(lp107
I1
aI3
aI5
aI6
aI8
aI17
aa(lp108
I1
aI3
aI5
aI6
aI8
aI15
aa(lp109
I0
aI3
aI5
aI6
aI8
aI17
aa(lp110
I0
aI3
aI5
aI6
aI8
aI11
aI12
aI15
aI16
aI19
aI23
aa(lp111
I3
aI5
aI6
aI8
aI11
aI12
aI15
aI16
aI19
aI20
aI22
aI24
aI27
aI28
aI33
aa(lp112
I3
aI5
aI6
aI8
aI11
aI12
aI15
aI16
aI19
aI20
aI22
aI24
aI27
aI28
aI39
aa(lp113
I3
aI5
aI6
aI8
aI11
aI15
aI16
aI19
aI20
aI22
aI24
aI27
aI28
aI37
aa(lp114
I3
aI5
aI6
aI8
aI11
aI12
aI15
aI16
aI19
aI28
aa(lp115
I3
aI5
aI6
aI8
aI15
aI19
aa(lp116
I0
aI3
aI6
aI8
aI11
aI12
aI14
aI16
aI19
aI29
aa(lp117
I0
aI5
aI6
aI8
aI11
aI12
aI14
aI19
aI20
aI22
aI24
aI27
aI28
aI36
aa(lp118
I5
aI6
aI8
aI11
aI12
aI14
aI16
aI19
aI20
aI22
aI24
aI27
aI28
aI32
aa(lp119
I3
aI5
aI6
aI8
aI11
aI12
aI14
aI16
aI19
aI27
aa(lp120
I0
aI3
aI5
aI8
aI11
aI12
aI14
aI19
aI20
aI22
aI24
aI26
aI28
aI36
aa(lp121
I3
aI5
aI6
aI8
aI11
aI12
aI14
aI16
aI19
aI20
aI22
aI24
aI26
aI28
aI32
aa(lp122
I3
aI5
aI6
aI8
aI11
aI12
aI14
aI16
aI19
aI20
aI22
aI25
aI26
aI28
aI38
aa(lp123
I3
aI6
aI8
aI11
aI12
aI14
aI16
aI19
aI22
aI25
aa(lp124
I0
aI3
aI5
aI6
aI8
aI11
aI12
aI14
aI16
aI19
aI23
aa(lp125
I0
aI3
aI5
aI6
aI8
aI11
aI12
aI14
aI16
aI19
aI21
aa(lp126
I0
aI3
aI5
aI6
aI8
aI10
aI12
aI14
aI16
aI19
aI23
aa(lp127
I0
aI3
aI5
aI6
aI8
aI10
aI12
aI14
aI16
aI19
aI20
aI22
aI24
aI26
aI33
aI36
aa(lp128
I0
aI3
aI5
aI6
aI8
aI10
aI12
aI14
aI16
aI19
aI20
aI22
aI24
aI26
aI28
aI32
aa(lp129
I0
aI3
aI6
aI8
aI10
aI12
aI14
aI16
aI19
aI20
aI22
aI24
aI26
aI29
aI37
aa(lp130
I3
aI5
aI6
aI8
aI10
aI12
aI14
aI16
aI19
aI26
aI29
aa(lp131
I0
aI3
aI5
aI6
aI8
aI10
aI12
aI14
aI16
aI19
aI29
aa(lp132
I0
aI5
aI6
aI8
aI10
aI12
aI14
aI16
aI19
aI20
aI22
aI24
aI27
aI28
aI35
aa(lp133
I0
aI3
aI5
aI6
aI8
aI10
aI12
aI14
aI16
aI19
aI20
aI22
aI24
aI27
aI28
aI36
aa(lp134
I0
aI3
aI5
aI6
aI8
aI10
aI12
aI14
aI16
aI19
aI27
aa(lp135
I3
aI5
aI6
aI8
aI10
aI12
aI14
aI16
aI19
aI21
aI22
aI24
aI26
aI28
aI38
aa(lp136
I0
aI3
aI5
aI6
aI8
aI10
aI12
aI14
aI16
aI19
aI21
aa(lp137
I1
aI3
aI5
aI7
aI8
aI11
aa(lp138
I0
aI7
aa(lp139
I1
aI3
aI5
aI7
aI8
aI13
aa(lp140
I1
aI3
aI5
aI7
aI8
aI15
aa(lp141
I1
aI3
aI5
aI7
aI8
aI17
aa(lp142
I1
aI3
aI5
aI7
aI8
aI10
aI12
aI14
aI16
aI19
aI27
aa(lp143
I3
aI5
aI7
aI8
aI10
aI12
aI14
aI16
aI19
aI20
aI22
aI24
aI26
aI28
aI39
aa(lp144
I1
aI3
aI5
aI7
aI8
aI10
aI12
aI14
aI16
aI19
aI20
aI24
aI26
aI28
aI33
aI37
aa(lp145
I1
aI3
aI5
aI7
aI8
aI10
aI12
aI14
aI16
aI19
aI20
aI22
aI24
aI26
aI28
aI37
aa(lp146
I1
aI3
aI5
aI7
aI8
aI10
aI12
aI14
aI16
aI19
aI20
aI22
aI24
aI26
aI28
aI34
aa(lp147
I7
aa(lp148
I3
aI5
aI6
aI8
aI10
aI12
aI14
aI16
aI18
aI20
aI22
aI24
aI26
aI28
aI35
aa(lp149
I0
aI3
aI6
aI8
aI10
aI12
aI14
aI16
aI18
aI20
aI22
aI24
aI26
aI28
aI32
aI36
aa(lp150
I0
aI3
aI5
aI6
aI8
aI10
aI12
aI14
aI16
aI18
aI20
aI22
aI24
aI26
aI28
aI36
aa(lp151
I0
aI3
aI5
aI6
aI8
aI10
aI18
aa(lp152
I3
aI5
aI6
aI8
aI11
aI12
aI14
aI16
aI20
aI22
aI24
aI26
aI28
aI35
aI37
aI39
aa(lp153
I3
aI5
aI6
aI8
aI11
aI12
aI14
aI16
aI18
aI20
aI22
aI24
aI26
aI28
aI35
aI37
aa(lp154
I3
aI5
aI6
aI8
aI11
aI12
aI14
aI16
aI18
aI20
aI22
aI24
aI26
aI28
aI32
aI37
aa(lp155
I0
aI3
aI5
aI6
aI8
aI11
aI12
aI14
aI16
aI18
aI20
aI22
aI24
aI26
aI28
aI36
aI38
aa(lp156
I0
aI3
aI5
aI6
aI8
aI11
aI12
aI14
aI16
aI18
aI20
aI24
aI26
aI28
aI32
aI39
aa(lp157
I3
aI6
aI8
aI11
aI12
aI14
aI16
aI18
aI22
aI25
aa(lp158
I3
aI6
aI8
aI11
aI12
aI14
aI18
aI20
aI22
aI26
aI29
aI37
aI39
aa(lp159
I3
aI6
aI8
aI11
aI12
aI14
aI18
aI20
aI22
aI26
aI29
aI33
aI37
aa(lp160
I3
aI6
aI8
aI11
aI12
aI14
aI18
aI20
aI22
aI24
aI26
aI29
aI33
aa(lp161
I0
aI3
aI5
aI6
aI8
aI11
aI14
aI16
aI18
aI20
aI22
aI24
aI26
aI29
aI34
aa(lp162
I3
aI5
aI6
aI8
aI11
aI12
aI14
aI16
aI18
aI26
aI29
aa(lp163
I3
aI5
aI6
aI8
aI11
aI14
aI16
aI18
aI20
aI23
aI25
aI26
aI28
aI38
aa(lp164
I3
aI5
aI6
aI8
aI11
aI12
aI14
aI16
aI20
aI23
aI25
aI26
aI28
aI35
aa(lp165
I3
aI5
aI6
aI8
aI11
aI12
aI14
aI16
aI20
aI23
aI25
aI28
aI32
aI36
aa(lp166
I0
aI3
aI6
aI8
aI11
aI12
aI14
aI16
aI20
aI23
aI25
aI26
aI28
aI32
aa(lp167
I0
aI3
aI5
aI8
aI11
aI12
aI14
aI18
aI20
aI25
aa(lp168
I0
aI3
aI5
aI6
aI8
aI11
aI12
aI14
aI16
aI18
aI20
aI23
aI24
aI26
aI28
aI37
aa(lp169
I0
aI3
aI5
aI6
aI8
aI11
aI12
aI14
aI16
aI18
aI23
aa(lp170
I0
aI3
aI5
aI6
aI8
aI11
aI12
aI14
aI16
aI18
aI27
aa(lp171
I3
aI5
aI6
aI8
aI11
aI14
aI16
aI18
aI21
aI22
aI24
aI26
aI28
aI36
aa(lp172
I0
aI3
aI5
aI6
aI8
aI11
aI12
aI14
aI16
aI18
aI21
aa(lp173
I0
aI5
aI6
aI8
aI11
aI13
aI14
aI16
aI18
aI20
aI23
aI24
aI27
aI28
aI37
aa(lp174
I3
aI5
aI6
aI8
aI11
aI13
aI14
aI16
aI18
aI27
aa(lp175
I0
aI3
aI5
aI6
aI8
aI13
aa(lp176
I3
aI5
aI6
aI8
aI11
aI12
aI15
aI16
aI23
aI26
aa(lp177
I0
aI3
aI5
aI6
aI8
aI11
aI15
aI16
aI20
aI22
aI24
aI26
aI28
aI33
aa(lp178
I3
aI5
aI6
aI8
aI11
aI12
aI15
aI16
aI20
aI22
aI24
aI26
aI28
aI39
aa(lp179
I3
aI5
aI6
aI8
aI11
aI12
aI15
aI16
aI18
aI26
aa(lp180
I3
aI5
aI6
aI8
aI11
aI12
aI15
aI16
aI18
aI20
aI22
aI24
aI27
aI28
aI34
aa(lp181
I0
aI3
aI5
aI6
aI8
aI11
aI12
aI15
aI16
aI18
aI28
aa(lp182
I0
aI3
aI5
aI6
aI8
aI11
aI15
aa(lp183
I0
aI3
aI5
aI6
aI9
aI10
aa(lp184
I0
aI3
aI5
aI6
aI9
aI17
aa(lp185
I0
aI3
aI5
aI6
aI9
aI11
aI13
aI15
aI16
aI18
aI29
aa(lp186
I3
aI5
aI6
aI9
aI13
aI15
aa(lp187
I0
aI3
aI5
aI6
aI9
aI15
aa(lp188
I0
aI3
aI5
aI6
aI9
aI11
aI12
aI14
aI16
aI18
aI20
aI22
aI24
aI27
aI28
aI38
aa(lp189
I9
aa.