(lp0
(lp1
I169
aa(lp2
I41
aa(lp3
I25
aI35
aa(lp4
I45
aa(lp5
I19
aI243
aa(lp6
I159
aI197
aa(lp7
I147
aI159
aa(lp8
I47
aI217
aa(lp9
I69
aI249
aa(lp10
I99
aI159
aa(lp11
I217
aI249
aa(lp12
I143
aI159
aa(lp13
I159
aI267
aa(lp14
I35
aI109
aa(lp15
I7
aI135
aa(lp16
I187
aI207
aa(lp17
I7
aI77
aa(lp18
I217
aI243
aa(lp19
I91
aI243
aa(lp20
I181
aI243
aa(lp21
I243
aa(lp22
I187
aI225
aa(lp23
I149
aI187
aa(lp24
I9
aI187
aa(lp25
I27
aI187
aI245
aa(lp26
I27
aI133
aI187
aa(lp27
I85
aI247
aI261
aa(lp28
I167
aI247
aI261
aa(lp29
I247
aI261
aI265
aa(lp30
I93
aI247
aI261
aa(lp31
I201
aI247
aa(lp32
I7
aI27
aI187
aa(lp33
I7
aI105
aI187
aa(lp34
I7
aI89
aI187
aa(lp35
I7
aI129
aI187
aa(lp36
I7
aI21
aI71
aa(lp37
I7
aI21
aI241
aa(lp38
I7
aI139
aI187
aa(lp39
I137
aI187
aI261
aa(lp40
I187
aI231
aI261
aa(lp41
I187
aI199
aI261
aa(lp42
I187
aI221
aI261
aa(lp43
I187
aI233
aI267
aa(lp44
I7
aI17
aI187
aa(lp45
I7
aI171
aI219
aa(lp46
I21
aI161
aI187
aa(lp47
I7
aI109
aa(lp48
I7
aI21
aa(lp49
I7
aI219
aa(lp50
I87
aI247
aa(lp51
I7
aI95
aa(lp52
I7
aI37
aI239
aa(lp53
I7
aI83
aI161
aa(lp54
I7
aI161
aI235
aa(lp55
I7
aI235
aI263
aa(lp56
I7
aI237
aI263
aa(lp57
I7
aI59
aI263
aa(lp58
I7
aI57
aI263
aa(lp59
I7
aI166
aa(lp60
I7
aI263
aI275
aa(lp61
I7
aI73
aI263
aa(lp62
I7
aI115
aI215
aa(lp63
I7
aI215
aI263
aa(lp64
I7
aI189
aI263
aa(lp65
I7
aI263
aa(lp66
I33
aI53
aI274
aa(lp67
I33
aI111
aI247
aa(lp68
I33
aI39
aI247
aa(lp69
I33
aI39
aI188
aa(lp70
I39
aI151
aI188
aa(lp71
I39
aI188
aI263
aa(lp72
I39
aI263
aI267
aa(lp73
I253
aI267
aI269
aa(lp74
I1
aI269
aa(lp75
I267
aI269
aa(lp76
I15
aI114
aI155
aa(lp77
I114
aI155
aI246
aa(lp78
I155
aI274
aa(lp79
I155
aI267
aa(lp80
I246
aI267
aa(lp81
I0
aI115
aI267
aa(lp82
I0
aI267
aI275
aa(lp83
I267
aI275
aa(lp84
I162
aI247
aa(lp85
I154
aI162
aa(lp86
I167
aI237
aa(lp87
I214
aI237
aa(lp88
I166
aI214
aa(lp89
I37
aI154
aI166
aa(lp90
I1
aI154
aI215
aa(lp91
I188
aI246
aa(lp92
I188
aI275
aa(lp93
I15
aI115
aI247
aa(lp94
I15
aI247
aI263
aa(lp95
I15
aI114
aI263
aa(lp96
I58
aI64
aI223
aa(lp97
I64
aI214
aI262
aa(lp98
I214
aI222
aa(lp99
I150
aI249
aa(lp100
I37
aI249
aa(lp101
I37
aI151
aI262
aa(lp102
I151
aI214
aI262
aa(lp103
I55
aI151
aI214
aa(lp104
I36
aI151
aI214
aa(lp105
I36
aI54
aI214
aa(lp106
I36
aI119
aI214
aa(lp107
I129
aI223
aa(lp108
I129
aI138
aa(lp109
I75
aI129
aI170
aa(lp110
I129
aI170
aI195
aa(lp111
I129
aI191
aa(lp112
I58
aI139
aI150
aa(lp113
I55
aI139
aI191
aa(lp114
I55
aI74
aa(lp115
I74
aI119
aI150
aa(lp116
I74
aI150
aa(lp117
I150
aI222
aa(lp118
I174
aI223
aa(lp119
I166
aI274
aa(lp120
I166
aI223
aa(lp121
I59
aI154
aa(lp122
I154
aI194
aa(lp123
I54
aI154
aa(lp124
I58
aI60
aa(lp125
I60
aa(lp126
I124
aI195
aa(lp127
I59
aI195
aa(lp128
I54
aI80
aa(lp129
I80
aI155
aa(lp130
I80
aI263
aa(lp131
I80
aI215
aa(lp132
I80
aI115
aa(lp133
I36
aI80
aa(lp134
I80
aI221
aa(lp135
I80
aI275
aa(lp136
I80
aI246
aa(lp137
I80
aI266
aa(lp138
I15
aI220
aa(lp139
I15
aI274
aa(lp140
I118
aI247
aa(lp141
I114
aI118
aa(lp142
I115
aI147
aI246
aa(lp143
I147
aI246
aa(lp144
I52
aI164
aI273
aa(lp145
I0
aI164
aa(lp146
I0
aI53
aI114
aa(lp147
I53
aI214
aa(lp148
I100
aI223
aI268
aa(lp149
I100
aI153
aI223
aa(lp150
I37
aI269
aa(lp151
I207
aI214
aI221
aa(lp152
I207
aI214
aa(lp153
I115
aI220
aa(lp154
I220
aI246
aa(lp155
I14
aI191
aI225
aa(lp156
I114
aI215
aa(lp157
I14
aI215
aI262
aa(lp158
I14
aI154
aI215
aa(lp159
I37
aI223
aI239
aa(lp160
I58
aI239
aa(lp161
I0
aI178
aa(lp162
I118
aI178
aa(lp163
I1
aI36
aa(lp164
I0
aI217
aa(lp165
I143
aI215
aa(lp166
I0
aI115
aI143
aa(lp167
I37
aI73
aa(lp168
I73
aI214
aa(lp169
I30
aI36
aI189
aa(lp170
I30
aI189
aa(lp171
I118
aI263
aI274
aa(lp172
I115
aI118
aI274
aa(lp173
I14
aI115
aI118
aa(lp174
I55
aI262
aI265
aa(lp175
I214
aI262
aI265
aa(lp176
I214
aI265
aa(lp177
I54
aI118
aI214
aa(lp178
I118
aI155
aI214
aa(lp179
I154
aI231
aa(lp180
I7
aI115
aI275
aa(lp181
I0
aI106
aI167
aa(lp182
I106
aa(lp183
I1
aI115
aI118
aa(lp184
I71
aI262
aa(lp185
I71
aI160
aa(lp186
I246
aI270
aa(lp187
I118
aI272
aa(lp188
I122
aI214
aa(lp189
I37
aI154
aI253
aa(lp190
I154
aI214
aI254
aa(lp191
I125
aI130
aI214
aa(lp192
I154
aI190
aI214
aa(lp193
I56
aI192
aa(lp194
I192
aI252
aa(lp195
I57
aI214
aa(lp196
I115
aI144
aa(lp197
I42
aI55
aI195
aa(lp198
I27
aa(lp199
I12
aI37
aa(lp200
I55
aI214
aI276
aa(lp201
I154
aI171
aa(lp202
I37
aI172
aa(lp203
I182
aa(lp204
I126
aI275
aa(lp205
I2
aI214
aI263
aa(lp206
I2
aI214
aa(lp207
I35
aI246
aa(lp208
I55
aI195
aI210
aa(lp209
I39
aI115
aa(lp210
I62
aI138
aa(lp211
I99
aI115
aI246
aa(lp212
I69
aI275
aa(lp213
I15
aI66
aa(lp214
I55
aI93
aI262
aa(lp215
I246
aI258
aa(lp216
I197
aI246
aa(lp217
I91
aI246
aa(lp218
I161
aI262
aa(lp219
I56
aI159
aI173
aa(lp220
I133
aI154
aa(lp221
I48
aI58
aa(lp222
I33
aI214
aI262
aa(lp223
I15
aI33
aI214
aa(lp224
I214
aI233
aa(lp225
I120
aI214
aa(lp226
I95
aI214
aa(lp227
I154
aI161
aa(lp228
I25
aI167
aI205
aa(lp229
I25
aI167
aa(lp230
I37
aI204
aa(lp231
I187
aI246
aI263
aa(lp232
I115
aI187
aI246
aa(lp233
I83
aa(lp234
I149
aI214
aa(lp235
I137
aI214
aI262
aa(lp236
I137
aI154
aI214
aa(lp237
I214
aI219
aa(lp238
I21
aI58
aa(lp239
I167
aI214
aI261
aa(lp240
I102
aI246
aa(lp241
I37
aI87
aa(lp242
I116
aI214
aa(lp243
I9
aI37
aa(lp244
I115
aI250
aa(lp245
I241
aI262
aa(lp246
I160
aI241
aa(lp247
I77
aI167
aI195
aa(lp248
I135
aI167
aa(lp249
I111
aI263
aa(lp250
I214
aI226
aa(lp251
I112
aI214
aa(lp252
I235
aa(lp253
I17
aI55
aI223
aa(lp254
I201
aI214
aa(lp255
I118
aI156
aI167
aa(lp256
I15
aI181
aa(lp257
I109
aI214
aa(lp258
I78
aI214
aa(lp259
I105
aI214
aI223
aa(lp260
I111
aI115
aa(lp261
I208
aI246
aa(lp262
I37
aI202
aa(lp263
I19
aa(lp264
I50
aI175
aI214
aa(lp265
I246
aI256
aa(lp266
I4
aI223
aa(lp267
I22
aI52
aI170
aa(lp268
I58
aI228
aI262
aa(lp269
I55
aI58
aI228
aa(lp270
I199
aI214
aa(lp271
I47
aI214
aa(lp272
I140
aI223
aa(lp273
I58
aI85
aI195
aa(lp274
I115
aI152
aa(lp275
I55
aI93
aa(lp276
I212
aa(lp277
I96
aI167
aI214
aa(lp278
I176
aI214
aa(lp279
I89
aI214
aa(lp280
I10
aI167
aa(lp281
I0
aI156
aI250
aa(lp282
I0
aI7
aI156
aa(lp283
I7
aI187
aI275
aa(lp284
I0
aI272
aa(lp285
I143
aI246
aa(lp286
I187
aI246
aa(lp287
I7
aI153
aI275
aa(lp288
I7
aa(lp289
I246
aI274
aa(lp290
I0
aI114
aI263
aa(lp291
I66
aI246
aa(lp292
I114
aI246
aI263
aa(lp293
I1
aI15
aI263
aa(lp294
I33
aI55
aI214
aa(lp295
I99
aa(lp296
I1
aI15
aa(lp297
I181
aI246
aa(lp298
I14
aI155
aI262
aa(lp299
I1
aI155
aa(lp300
I75
aI156
aa(lp301
I156
aI223
aa(lp302
I74
aI214
aa(lp303
I151
aI214
aa(lp304
I150
aI190
aI214
aa(lp305
I162
aI170
aa(lp306
I137
aI223
aa(lp307
I15
aI214
aI253
aa(lp308
I214
aI253
aa(lp309
I150
aI231
aa(lp310
I133
aI214
aa(lp311
I214
aI254
aa(lp312
I42
aI195
aa(lp313
I214
aI276
aa(lp314
I33
aI214
aa(lp315
I58
aI228
aa(lp316
I178
aa(lp317
I250
aI275
aa(lp318
I39
aI275
aa(lp319
I272
aa(lp320
I144
aI246
aa(lp321
I111
aI275
aa(lp322
I217
aa(lp323
I20
aI48
aa(lp324
I5
aI22
aI198
aa(lp325
I42
aI150
aa(lp326
I85
aa(lp327
I150
aI162
aa(lp328
I223
aI228
aa(lp329
I17
aI214
aa(lp330
I150
aI241
aa(lp331
I93
aI139
aI223
aa(lp332
I93
aI150
aa(lp333
I124
aI161
aI214
aa(lp334
I150
aI161
aa(lp335
I59
aI214
aa(lp336
I194
aI214
aa(lp337
I171
aI214
aa(lp338
I36
aI262
aa(lp339
I87
aI125
aa(lp340
I172
aI214
aa(lp341
I12
aa(lp342
I204
aI214
aa(lp343
I214
aI269
aa(lp344
I9
aI214
aa(lp345
I202
aI214
aa(lp346
I69
aI110
aI153
aa(lp347
I103
aI153
aI256
aa(lp348
I0
aI153
aI256
aa(lp349
I258
aa(lp350
I126
aI143
aa(lp351
I35
aa(lp352
I143
aa(lp353
I250
aa(lp354
I270
aa(lp355
I102
aa(lp356
I80
aa(lp357
I187
aa(lp358
I147
aa(lp359
I188
aa(lp360
I220
aa(lp361
I0
aI267
aa(lp362
I0
aI274
aa(lp363
I91
aI189
aa(lp364
I15
aI247
aa(lp365
I197
aa(lp366
I146
aI208
aa(lp367
I152
aa(lp368
I0
aI181
aa(lp369
I181
aI266
aa(lp370
I153
aI181
aa(lp371
I267
aa(lp372
I55
aI126
aa(lp373
I66
aI189
aa(lp374
I144
aI266
aa(lp375
I111
aI266
aa(lp376
I39
aa(lp377
I37
aI215
aI262
aa(lp378
I55
aI265
aa(lp379
I154
aI190
aa(lp380
I207
aI223
aa(lp381
I37
aI109
aI167
aa(lp382
I78
aI195
aa(lp383
I2
aI119
aI195
aa(lp384
I0
aI53
aI223
aa(lp385
I176
aI195
aI223
aa(lp386
I58
aI89
aI223
aa(lp387
I167
aI191
aI261
aa(lp388
I37
aI191
aI225
aa(lp389
I55
aI195
aI276
aa(lp390
I37
aI122
aI191
aa(lp391
I58
aI125
aI130
aa(lp392
I37
aI57
aa(lp393
I120
aI195
aa(lp394
I37
aI138
aI149
aa(lp395
I95
aa(lp396
I58
aI233
aa(lp397
I37
aI151
aI154
aa(lp398
I219
aI223
aa(lp399
I50
aI88
aI167
aa(lp400
I96
aa(lp401
I116
aI167
aa(lp402
I154
aI199
aI223
aa(lp403
I37
aI58
aI201
aa(lp404
I37
aI195
aI226
aa(lp405
I47
aI119
aa(lp406
I37
aI112
aI154
aa(lp407
I58
aI105
aI138
aa(lp408
I32
aI191
aI254
aa(lp409
I191
aI223
aI254
aa(lp410
I33
aI37
aI154
aa(lp411
I37
aI47
aa(lp412
I109
aI167
aI173
aa(lp413
I58
aI172
aa(lp414
I125
aI191
aI225
aa(lp415
I122
aI191
aa(lp416
I55
aI73
aa(lp417
I58
aI204
aa(lp418
I195
aI202
aa(lp419
I9
aI125
aa(lp420
I154
aI253
aa(lp421
I2
aI195
aa(lp422
I57
aI125
aa(lp423
I149
aa(lp424
I151
aI154
aa(lp425
I58
aI112
aa(lp426
I58
aI125
aI201
aa(lp427
I167
aI195
aI226
aa(lp428
I33
aI55
aI195
aa(lp429
I47
aI125
aa(lp430
I26
aI42
aI50
aa(lp431
I78
aI88
aI162
aa(lp432
I26
aI78
aI140
aa(lp433
I26
aI78
aa(lp434
I249
aa(lp435
I73
aI93
aI156
aa(lp436
I116
aa(lp437
I133
aa(lp438
I50
aa(lp439
I237
aa(lp440
I73
aa(lp441
I53
aI57
aa(lp442
I57
aa(lp443
I93
aI161
aa(lp444
I32
aI161
aI219
aa(lp445
I26
aI64
aI225
aa(lp446
I32
aI122
aa(lp447
I32
aI113
aI225
aa(lp448
I32
aI113
aI201
aa(lp449
I113
aI120
aa(lp450
I32
aI199
aI219
aa(lp451
I32
aI228
aa(lp452
I17
aI32
aI202
aa(lp453
I172
aa(lp454
I113
aI199
aI202
aa(lp455
I32
aI226
aa(lp456
I32
aI202
aa(lp457
I32
aI239
aa(lp458
I32
aI276
aa(lp459
I32
aI171
aI269
aa(lp460
I32
aI171
aI176
aa(lp461
I32
aI124
aI171
aa(lp462
I32
aI166
aI171
aa(lp463
I32
aI139
aI171
aa(lp464
I75
aI171
aI190
aa(lp465
I58
aI171
aI190
aa(lp466
I171
aI190
aI223
aa(lp467
I100
aI138
aa(lp468
I210
aa(lp469
I160
aI162
aa(lp470
I64
aI138
aa(lp471
I36
aI58
aI171
aa(lp472
I118
aI171
aI191
aa(lp473
I32
aI140
aI160
aa(lp474
I138
aI207
aa(lp475
I32
aI265
aa(lp476
I89
aI138
aa(lp477
I138
aI167
aI261
aa(lp478
I53
aI118
aa(lp479
I28
aI138
aa(lp480
I32
aI125
aI130
aa(lp481
I4
aI198
aa(lp482
I231
aa(lp483
I32
aI137
aa(lp484
I42
aI138
aa(lp485
I77
aI138
aI203
aa(lp486
I21
aI125
aI138
aa(lp487
I138
aI233
aa(lp488
I58
aI64
aa(lp489
I64
aI191
aa(lp490
I42
aI75
aa(lp491
I124
aI176
aI191
aa(lp492
I139
aI191
aI269
aa(lp493
I124
aI139
aI191
aa(lp494
I124
aI191
aa(lp495
I166
aI191
aa(lp496
I170
aI176
aI191
aa(lp497
I191
aI269
aa(lp498
I75
aI139
aI191
aa(lp499
I118
aI139
aI191
aa(lp500
I74
aI223
aa(lp501
I58
aI190
aa(lp502
I75
aI166
aa(lp503
I75
aI124
aa(lp504
I190
aI223
aa(lp505
I32
aI269
aa(lp506
I64
aI75
aI92
aa(lp507
I32
aI75
aI176
aa(lp508
I75
aI139
aa(lp509
I88
aI167
aI174
aa(lp510
I32
aI100
aI177
aa(lp511
I88
aI167
aI278
aa(lp512
I62
aI177
aa(lp513
I32
aI167
aI176
aa(lp514
I64
aI177
aa(lp515
I118
aI156
aa(lp516
I64
aI170
aI238
aa(lp517
I32
aI125
aI176
aa(lp518
I25
aI177
aa(lp519
I10
aI175
aa(lp520
I109
aI125
aa(lp521
I174
aI177
aa(lp522
I177
aI278
aa(lp523
I32
aI176
aa(lp524
I109
aI113
aa(lp525
I124
aI139
aI167
aa(lp526
I89
aI118
aI177
aa(lp527
I26
aI113
aI261
aa(lp528
I55
aI190
aa(lp529
I55
aI59
aa(lp530
I55
aI222
aa(lp531
I55
aI194
aa(lp532
I28
aI170
aI177
aa(lp533
I130
aI234
aI268
aa(lp534
I42
aI170
aI277
aa(lp535
I77
aI177
aa(lp536
I21
aI177
aa(lp537
I177
aI233
aa(lp538
I124
aI161
aI170
aa(lp539
I161
aI166
aI170
aa(lp540
I118
aI161
aI170
aa(lp541
I161
aa(lp542
I32
aI93
aa(lp543
I17
aI138
aa(lp544
I17
aI167
aI170
aa(lp545
I17
aI125
aI170
aa(lp546
I17
aI170
aa(lp547
I138
aI199
aa(lp548
I105
aa(lp549
I138
aI219
aa(lp550
I138
aI254
aa(lp551
I167
aI204
aa(lp552
I138
aI171
aI253
aa(lp553
I2
aI138
aI171
aa(lp554
I37
aI118
aI190
aa(lp555
I112
aI138
aI171
aa(lp556
I42
aI88
aa(lp557
I42
aa(lp558
I26
aI64
aa(lp559
I113
aI122
aa(lp560
I97
aI219
aI269
aa(lp561
I26
aI97
aI219
aa(lp562
I113
aI140
aa(lp563
I113
aI228
aa(lp564
I93
aI113
aa(lp565
I17
aI113
aa(lp566
I113
aI239
aa(lp567
I113
aI226
aa(lp568
I113
aI199
aa(lp569
I113
aI276
aa(lp570
I89
aI113
aa(lp571
I135
aI175
aa(lp572
I225
aa(lp573
I252
aI265
aa(lp574
I25
aI238
aa(lp575
I100
aI198
aI238
aa(lp576
I62
aI118
aI238
aa(lp577
I113
aI137
aa(lp578
I113
aI202
aa(lp579
I113
aI269
aa(lp580
I113
aI201
aI238
aa(lp581
I26
aI113
aI174
aa(lp582
I88
aI278
aa(lp583
I124
aI138
aI171
aa(lp584
I138
aI166
aI171
aa(lp585
I28
aI88
aa(lp586
I21
aI167
aa(lp587
I21
aI125
aa(lp588
I21
aI238
aa(lp589
I26
aI77
aI227
aa(lp590
I88
aI233
aI238
aa(lp591
I33
aI138
aI166
aa(lp592
I33
aI75
aI118
aa(lp593
I177
aI254
aa(lp594
I113
aI170
aI254
aa(lp595
I88
aI113
aI254
aa(lp596
I113
aI171
aI204
aa(lp597
I113
aI204
aa(lp598
I9
aI113
aa(lp599
I113
aI170
aI253
aa(lp600
I113
aI253
aa(lp601
I2
aI113
aa(lp602
I88
aI228
aa(lp603
I120
aa(lp604
I88
aI140
aa(lp605
I122
aa(lp606
I87
aI234
aa(lp607
I88
aI226
aa(lp608
I88
aI276
aa(lp609
I109
aI238
aa(lp610
I88
aI137
aa(lp611
I202
aa(lp612
I269
aa(lp613
I201
aI234
aI238
aa(lp614
I88
aI174
aa(lp615
I112
aI171
aI177
aa(lp616
I112
aI125
aa(lp617
I26
aI54
aI261
aa(lp618
I17
aI88
aa(lp619
I93
aI277
aa(lp620
I88
aI199
aa(lp621
I97
aI140
aa(lp622
I93
aI104
aa(lp623
I228
aa(lp624
I17
aa(lp625
I199
aa(lp626
I226
aa(lp627
I239
aa(lp628
I278
aa(lp629
I137
aa(lp630
I28
aa(lp631
I16
aI233
aI238
aa(lp632
I89
aI170
aa(lp633
I170
aI238
aI254
aa(lp634
I88
aI238
aI254
aa(lp635
I238
aI254
aa(lp636
I204
aI238
aa(lp637
I9
aa(lp638
I253
aa(lp639
I2
aa(lp640
I37
aI118
aI151
aa(lp641
I37
aI54
aI118
aa(lp642
I37
aI118
aI155
aa(lp643
I32
aI119
aI124
aa(lp644
I32
aI119
aI166
aa(lp645
I119
aI139
aI170
aa(lp646
I138
aI156
aa(lp647
I0
aI53
aI138
aa(lp648
I14
aI36
aI74
aa(lp649
I14
aI36
aI59
aa(lp650
I14
aI36
aI194
aa(lp651
I14
aI36
aI151
aa(lp652
I36
aI75
aI171
aa(lp653
I171
aI195
aa(lp654
I14
aI36
aI215
aa(lp655
I15
aI33
aI195
aa(lp656
I15
aI33
aI58
aa(lp657
I33
aI37
aI170
aa(lp658
I33
aI75
aI170
aa(lp659
I33
aI170
aI191
aa(lp660
I33
aI119
aI170
aa(lp661
I0
aI53
aI88
aa(lp662
I119
aI166
aI177
aa(lp663
I119
aI166
aa(lp664
I119
aI176
aa(lp665
I36
aI139
aI191
aa(lp666
I33
aI36
aI191
aa(lp667
I33
aI75
aa(lp668
I33
aI191
aa(lp669
I33
aI37
aa.