(lp0
(lp1
I19
aI169
aa(lp2
I47
aI217
aa(lp3
I159
aI217
aa(lp4
I137
aI169
aI223
aa(lp5
I159
aa(lp6
I41
aI197
aa(lp7
I45
aI99
aa(lp8
I25
aI99
aa(lp9
I35
aI109
aa(lp10
I7
aI135
aa(lp11
I99
aI225
aa(lp12
I187
aI225
aa(lp13
I197
aI201
aI207
aa(lp14
I7
aI77
aa(lp15
I7
aI233
aa(lp16
I225
aa(lp17
I9
aI133
aI181
aa(lp18
I69
aI133
aa(lp19
I91
aI133
aI235
aa(lp20
I133
aI143
aa(lp21
I133
aI197
aa(lp22
I133
aI147
aa(lp23
I1
aI133
aa(lp24
I133
aI191
aa(lp25
I71
aI87
aI223
aa(lp26
I71
aI149
aI223
aa(lp27
I9
aI37
aI231
aa(lp28
I9
aI37
aI85
aa(lp29
I9
aI125
aa(lp30
I9
aI161
aI167
aa(lp31
I149
aI195
aa(lp32
I149
aI191
aa(lp33
I9
aa(lp34
I109
aI223
aa(lp35
I191
aI233
aa(lp36
I27
aI167
aI237
aa(lp37
I167
aI237
aa(lp38
I85
aI129
aI223
aa(lp39
I85
aa(lp40
I201
aa(lp41
I83
aa(lp42
I21
aa(lp43
I219
aI223
aa(lp44
I55
aI73
aa(lp45
I57
aI167
aa(lp46
I57
aI113
aa(lp47
I57
aI191
aa(lp48
I57
aI223
aa(lp49
I57
aI75
aa(lp50
I57
aI177
aa(lp51
I39
aI199
aa(lp52
I55
aI93
aI199
aa(lp53
I17
aI55
aI93
aa(lp54
I55
aI93
aI111
aa(lp55
I55
aI93
aI137
aa(lp56
I55
aI93
aI95
aa(lp57
I55
aI57
aI93
aa(lp58
I53
aI175
aI235
aa(lp59
I119
aI227
aI235
aa(lp60
I26
aI119
aI235
aa(lp61
I97
aI119
aI235
aa(lp62
I57
aI119
aa(lp63
I119
aI198
aI235
aa(lp64
I93
aI119
aa(lp65
I119
aI235
aa(lp66
I96
aI119
aa(lp67
I27
aI119
aa(lp68
I105
aI119
aa(lp69
I119
aI239
aa(lp70
I119
aI199
aa(lp71
I119
aI226
aa(lp72
I112
aI119
aa(lp73
I89
aI119
aa(lp74
I119
aI124
aa(lp75
I119
aI166
aa(lp76
I119
aI176
aa(lp77
I0
aI217
aa(lp78
I171
aI217
aa(lp79
I167
aI190
aI217
aa(lp80
I59
aI167
aI217
aa(lp81
I1
aI33
aI55
aa(lp82
I55
aI139
aI191
aa(lp83
I139
aI170
aI191
aa(lp84
I36
aI139
aI191
aa(lp85
I139
aI191
aa(lp86
I37
aI139
aa(lp87
I69
aI125
aI171
aa(lp88
I33
aI155
aI182
aa(lp89
I137
aI138
aa(lp90
I171
aI190
aI223
aa(lp91
I78
aI138
aa(lp92
I78
aI88
aa(lp93
I161
aa(lp94
I96
aa(lp95
I105
aI177
aa(lp96
I125
aI177
aI239
aa(lp97
I125
aI239
aa(lp98
I125
aI137
aa(lp99
I137
aI167
aa(lp100
I124
aI167
aI176
aa(lp101
I47
aI113
aa(lp102
I47
aI56
aa(lp103
I47
aI82
aa(lp104
I57
aI238
aa(lp105
I57
aa(lp106
I235
aa(lp107
I88
aI239
aa(lp108
I239
aa(lp109
I112
aI143
aa(lp110
I143
aI176
aa(lp111
I89
aI113
aa(lp112
I113
aI202
aa(lp113
I202
aa(lp114
I135
aI175
aa(lp115
I88
aI135
aa(lp116
I88
aI174
aa(lp117
I20
aI48
aa(lp118
I118
aI164
aa(lp119
I0
aI164
aa(lp120
I164
aI180
aa(lp121
I1
aI33
aI36
aa(lp122
I1
aI36
aI139
aa(lp123
I1
aI36
aI190
aa(lp124
I1
aI36
aI171
aa(lp125
I1
aI36
aI59
aa(lp126
I74
aI223
aa(lp127
I147
aI194
aI222
aa(lp128
I36
aI58
aI74
aa(lp129
I58
aI74
aI170
aa(lp130
I37
aI118
aI194
aa(lp131
I37
aI58
aI190
aa(lp132
I37
aI150
aI194
aa(lp133
I119
aI150
aI194
aa(lp134
I58
aI150
aI222
aa(lp135
I118
aI129
aI223
aa(lp136
I129
aI223
aa(lp137
I35
aI186
aa(lp138
I35
aI36
aI155
aa(lp139
I35
aI115
aa(lp140
I35
aI155
aa(lp141
I155
aI187
aa(lp142
I187
aa(lp143
I15
aI54
aI114
aa(lp144
I54
aI118
aI214
aa(lp145
I54
aI154
aI214
aa(lp146
I54
aI119
aI154
aa(lp147
I37
aI54
aI154
aa(lp148
I22
aI75
aI160
aa(lp149
I0
aI53
aI223
aa(lp150
I53
aI223
aa(lp151
I1
aI154
aI215
aa(lp152
I1
aI15
aI115
aa(lp153
I1
aI15
aa(lp154
I217
aa(lp155
I1
aI118
aa(lp156
I0
aI181
aa(lp157
I153
aI181
aa(lp158
I4
aI114
aa(lp159
I4
aI223
aa(lp160
I4
aI170
aa(lp161
I4
aI154
aa(lp162
I154
aI171
aa(lp163
I154
aI214
aI222
aa(lp164
I1
aI55
aI151
aa(lp165
I1
aI151
aa(lp166
I151
aI214
aa(lp167
I64
aI195
aI223
aa(lp168
I64
aI150
aI177
aa(lp169
I64
aI138
aI170
aa(lp170
I64
aI170
aI214
aa(lp171
I64
aI118
aI195
aa(lp172
I64
aI75
aI150
aa(lp173
I64
aI170
aI238
aa(lp174
I26
aI55
aI64
aa(lp175
I26
aI64
aI150
aa(lp176
I64
aI88
aI211
aa(lp177
I32
aI64
aI227
aa(lp178
I64
aI150
aI227
aa(lp179
I64
aI104
aI150
aa(lp180
I64
aI150
aI211
aa(lp181
I64
aa(lp182
I27
aI125
aI150
aa(lp183
I150
aI210
aI238
aa(lp184
I27
aI150
aa(lp185
I105
aI150
aa(lp186
I150
aI226
aa(lp187
I89
aI150
aa(lp188
I150
aI171
aI176
aa(lp189
I150
aI176
aa(lp190
I112
aI150
aa(lp191
I139
aI150
aa(lp192
I33
aI150
aa(lp193
I150
aI166
aa(lp194
I124
aI150
aa(lp195
I74
aI150
aa(lp196
I150
aI190
aa(lp197
I150
aI222
aa(lp198
I150
aI231
aa(lp199
I32
aI125
aI130
aa(lp200
I59
aI197
aa(lp201
I0
aI106
aI167
aa(lp202
I106
aa(lp203
I1
aI59
aI223
aa(lp204
I14
aI59
aI223
aa(lp205
I37
aI59
aI223
aa(lp206
I59
aI119
aI150
aa(lp207
I59
aI195
aa(lp208
I36
aI126
aa(lp209
I204
aI223
aa(lp210
I177
aI184
aa(lp211
I42
aI223
aa(lp212
I118
aI156
aI167
aa(lp213
I28
aI223
aa(lp214
I100
aI153
aI223
aa(lp215
I199
aI223
aa(lp216
I19
aI54
aa(lp217
I122
aI223
aa(lp218
I54
aI143
aI194
aa(lp219
I30
aI194
aa(lp220
I73
aI125
aa(lp221
I10
aI167
aa(lp222
I111
aI194
aa(lp223
I93
aI223
aa(lp224
I87
aa(lp225
I152
aI194
aa(lp226
I116
aI138
aa(lp227
I59
aI91
aa(lp228
I59
aI154
aa(lp229
I12
aa(lp230
I45
aa(lp231
I7
aI59
aa(lp232
I54
aI212
aa(lp233
I17
aI170
aI223
aa(lp234
I25
aI138
aa(lp235
I80
aI194
aa(lp236
I99
aI155
aI215
aa(lp237
I71
aI160
aa(lp238
I194
aI220
aa(lp239
I140
aI223
aa(lp240
I95
aI191
aa(lp241
I41
aa(lp242
I120
aa(lp243
I59
aI208
aa(lp244
I162
aI170
aa(lp245
I59
aI188
aa(lp246
I62
aI138
aa(lp247
I115
aI144
aa(lp248
I118
aI150
aI171
aa(lp249
I15
aI66
aa(lp250
I39
aI59
aa(lp251
I50
aI88
aI167
aa(lp252
I172
aI191
aa(lp253
I59
aI102
aI167
aa(lp254
I223
aI228
aa(lp255
I207
aI223
aa(lp256
I77
aI138
aI191
aa(lp257
I169
aI175
aI223
aa(lp258
I2
aI223
aa(lp259
I56
aI192
aa(lp260
I69
aI115
aa(lp261
I19
aa(lp262
I0
aI7
aI156
aa(lp263
I7
aI162
aI215
aa(lp264
I7
aI80
aI171
aa(lp265
I126
aI143
aI215
aa(lp266
I126
aI143
aa(lp267
I80
aI126
aa(lp268
I126
aI220
aa(lp269
I111
aI147
aI171
aa(lp270
I111
aI171
aI197
aa(lp271
I114
aI171
aa(lp272
I197
aa(lp273
I152
aI155
aa(lp274
I152
aa(lp275
I15
aI220
aa(lp276
I0
aI220
aa(lp277
I220
aa(lp278
I147
aa(lp279
I39
aa(lp280
I75
aI156
aa(lp281
I212
aa(lp282
I114
aI155
aa(lp283
I1
aI155
aa(lp284
I102
aI155
aa(lp285
I102
aI115
aa(lp286
I15
aI188
aa(lp287
I0
aI188
aa(lp288
I188
aa(lp289
I7
aa(lp290
I91
aI189
aa(lp291
I69
aI119
aI153
aa(lp292
I55
aI126
aa(lp293
I66
aI189
aa(lp294
I80
aI221
aa(lp295
I1
aI36
aa(lp296
I30
aI189
aa(lp297
I102
aa(lp298
I208
aa(lp299
I99
aI153
aI189
aa(lp300
I143
aa(lp301
I114
aI215
aa(lp302
I36
aI114
aa(lp303
I144
aI186
aa(lp304
I15
aI111
aa(lp305
I111
aa(lp306
I4
aI195
aa(lp307
I0
aI55
aI171
aa(lp308
I171
aI195
aa(lp309
I4
aI75
aI160
aa(lp310
I0
aI53
aI75
aa(lp311
I129
aI138
aa(lp312
I58
aI210
aa(lp313
I58
aI74
aa(lp314
I14
aI204
aa(lp315
I140
aI177
aa(lp316
I58
aI207
aa(lp317
I207
aa(lp318
I210
aa(lp319
I33
aI75
aa(lp320
I22
aI88
aI233
aa(lp321
I22
aI198
aa(lp322
I4
aI198
aa(lp323
I14
aI33
aa(lp324
I14
aI190
aa(lp325
I14
aI122
aI191
aa(lp326
I2
aI14
aI191
aa(lp327
I42
aI138
aa(lp328
I191
aI228
aa(lp329
I160
aI162
aa(lp330
I28
aI138
aa(lp331
I100
aI138
aI160
aa(lp332
I17
aI75
aa(lp333
I88
aI169
aI175
aa(lp334
I58
aI231
aa(lp335
I231
aa(lp336
I17
aI138
aa(lp337
I138
aI156
aa(lp338
I14
aI74
aI170
aa(lp339
I14
aI151
aI154
aa(lp340
I14
aI55
aI151
aa(lp341
I15
aI58
aI171
aa(lp342
I37
aI204
aa(lp343
I2
aI119
aI191
aa(lp344
I122
aa(lp345
I125
aI130
aI167
aa(lp346
I37
aI138
aI233
aa(lp347
I37
aI95
aI138
aa(lp348
I2
aI119
aI138
aa(lp349
I33
aI37
aa(lp350
I32
aI133
aa(lp351
I37
aI172
aa(lp352
I138
aI228
aa(lp353
I37
aI77
aI138
aa(lp354
I37
aI170
aI190
aa(lp355
I37
aI151
aI154
aa(lp356
I37
aI55
aI151
aa(lp357
I138
aI184
aa(lp358
I50
aI138
aa(lp359
I37
aI130
aI191
aa(lp360
I37
aI135
aa(lp361
I27
aI37
aI138
aa(lp362
I37
aI237
aa(lp363
I58
aI105
aI138
aa(lp364
I37
aI195
aI226
aa(lp365
I138
aI174
aa(lp366
I118
aI176
aI195
aa(lp367
I89
aI195
aa(lp368
I112
aI195
aI199
aa(lp369
I2
aI195
aI199
aa(lp370
I2
aI195
aI222
aa(lp371
I37
aI124
aI195
aa(lp372
I37
aI75
aI166
aa(lp373
I37
aI118
aI222
aa(lp374
I37
aI118
aI151
aa(lp375
I119
aI194
aI223
aa(lp376
I25
aI167
aI205
aa(lp377
I42
aI75
aI95
aa(lp378
I42
aI75
aa(lp379
I42
aI125
aI170
aa(lp380
I119
aI139
aI170
aa(lp381
I138
aI233
aa(lp382
I33
aI119
aI170
aa(lp383
I95
aa(lp384
I75
aI119
aI190
aa(lp385
I167
aI204
aa(lp386
I77
aI138
aI203
aa(lp387
I129
aI177
aa(lp388
I32
aI119
aI139
aa(lp389
I33
aI36
aI191
aa(lp390
I133
aI177
aa(lp391
I62
aI177
aa(lp392
I0
aI53
aI88
aa(lp393
I167
aI233
aa(lp394
I36
aI75
aI171
aa(lp395
I100
aI160
aI177
aa(lp396
I28
aI177
aa(lp397
I2
aI119
aI177
aa(lp398
I177
aI228
aa(lp399
I77
aI167
aI177
aa(lp400
I17
aI177
aa(lp401
I156
aI167
aa(lp402
I14
aI36
aI171
aa(lp403
I14
aI36
aI59
aa(lp404
I14
aI36
aI194
aa(lp405
I14
aI36
aI222
aa(lp406
I14
aI36
aI151
aa(lp407
I118
aI123
aI156
aa(lp408
I93
aa(lp409
I32
aI105
aa(lp410
I27
aI32
aa(lp411
I32
aI226
aa(lp412
I32
aI170
aI199
aa(lp413
I32
aI89
aa(lp414
I32
aI112
aa(lp415
I32
aI176
aa(lp416
I105
aI170
aa(lp417
I137
aa(lp418
I73
aI113
aa(lp419
I25
aI238
aa(lp420
I42
aI113
aI170
aa(lp421
I140
aI170
aI238
aa(lp422
I26
aI184
aI238
aa(lp423
I88
aI118
aI129
aa(lp424
I125
aI170
aI176
aa(lp425
I184
aI198
aI238
aa(lp426
I27
aI113
aI170
aa(lp427
I27
aI170
aI238
aa(lp428
I89
aI170
aa(lp429
I73
aa(lp430
I42
aI170
aI227
aa(lp431
I170
aI226
aa(lp432
I26
aI50
aI175
aa(lp433
I10
aI175
aa(lp434
I170
aI199
aa(lp435
I116
aI238
aa(lp436
I133
aI170
aa(lp437
I130
aI203
aI234
aa(lp438
I112
aI138
aI176
aa(lp439
I138
aI170
aI176
aa(lp440
I113
aI204
aa(lp441
I204
aI238
aa(lp442
I112
aI138
aa(lp443
I33
aI124
aI138
aa(lp444
I166
aI191
aa(lp445
I32
aI172
aa(lp446
I113
aI172
aa(lp447
I170
aI172
aa(lp448
I62
aI118
aI238
aa(lp449
I88
aI233
aI238
aa(lp450
I174
aI227
aa(lp451
I105
aa(lp452
I140
aa(lp453
I237
aI238
aa(lp454
I27
aI227
aI238
aa(lp455
I141
aI169
aI175
aa(lp456
I112
aI125
aa(lp457
I42
aI238
aa(lp458
I129
aI238
aa(lp459
I174
aI238
aa(lp460
I27
aa(lp461
I226
aa(lp462
I199
aa(lp463
I133
aa(lp464
I53
aI118
aa(lp465
I138
aI176
aa(lp466
I172
aI238
aa(lp467
I233
aa(lp468
I75
aI139
aa(lp469
I75
aI166
aa(lp470
I28
aa(lp471
I2
aa(lp472
I228
aa(lp473
I26
aI77
aI227
aa(lp474
I17
aa(lp475
I14
aI55
aI215
aa(lp476
I154
aI194
aa(lp477
I14
aI36
aI215
aa(lp478
I36
aI119
aI214
aa.