(lp0
(lp1
I137
aI169
aI223
aa(lp2
I93
aI169
aI223
aa(lp3
I19
aI243
aa(lp4
I169
aI223
aa(lp5
I7
aI167
aI169
aa(lp6
I41
aI197
aa(lp7
I159
aI197
aa(lp8
I147
aI159
aa(lp9
I45
aa(lp10
I25
aI99
aa(lp11
I99
aI159
aa(lp12
I143
aI159
aa(lp13
I35
aI159
aa(lp14
I159
aI247
aa(lp15
I7
aI159
aa(lp16
I91
aI159
aa(lp17
I113
aI159
aa(lp18
I37
aI159
aa(lp19
I159
aI187
aa(lp20
I159
aI167
aa(lp21
I125
aI159
aa(lp22
I159
aI177
aa(lp23
I159
aI191
aa(lp24
I69
aI135
aa(lp25
I77
aI161
aI195
aa(lp26
I47
aI175
aI241
aa(lp27
I47
aI75
aI241
aa(lp28
I47
aI173
aI241
aa(lp29
I217
aI233
aI241
aa(lp30
I249
aa(lp31
I243
aa(lp32
I133
aa(lp33
I191
aI207
aa(lp34
I135
aI191
aa(lp35
I129
aI195
aI245
aa(lp36
I195
aI233
aI241
aa(lp37
I71
aI73
aI181
aa(lp38
I1
aI71
aI73
aa(lp39
I71
aI73
aI227
aa(lp40
I135
aa(lp41
I71
aI73
aa(lp42
I71
aI237
aa(lp43
I71
aI87
aa(lp44
I71
aI83
aa(lp45
I71
aI85
aI111
aa(lp46
I9
aI71
aa(lp47
I57
aI71
aa(lp48
I71
aI109
aa(lp49
I97
aI225
aI233
aa(lp50
I71
aI201
aa(lp51
I71
aI225
aa(lp52
I71
aI97
aI149
aa(lp53
I39
aI71
aa(lp54
I71
aa(lp55
I241
aa(lp56
I129
aI231
aa(lp57
I53
aI253
aa(lp58
I53
aI85
aa(lp59
I53
aI235
aa(lp60
I55
aI231
aI235
aa(lp61
I219
aI231
aa(lp62
I21
aI97
aI219
aa(lp63
I95
aI97
aI219
aa(lp64
I119
aI211
aI219
aa(lp65
I219
aa(lp66
I161
aI174
aa(lp67
I174
aa(lp68
I119
aI210
aa(lp69
I119
aI235
aa(lp70
I95
aI119
aa(lp71
I17
aI119
aa(lp72
I96
aI119
aa(lp73
I27
aI119
aa(lp74
I105
aI119
aa(lp75
I119
aI239
aa(lp76
I119
aI199
aa(lp77
I119
aI226
aa(lp78
I112
aI119
aa(lp79
I89
aI119
aa(lp80
I119
aI124
aa(lp81
I119
aI166
aa(lp82
I119
aI176
aa(lp83
I15
aI66
aa(lp84
I0
aI66
aa(lp85
I66
aI190
aa(lp86
I1
aI33
aI36
aa(lp87
I14
aI139
aa(lp88
I14
aI36
aI190
aa(lp89
I59
aI197
aa(lp90
I36
aI74
aI197
aa(lp91
I33
aI36
aI58
aa(lp92
I36
aI58
aI171
aa(lp93
I0
aI106
aI167
aa(lp94
I106
aa(lp95
I1
aI36
aI190
aa(lp96
I50
aI138
aI167
aa(lp97
I50
aI138
aa(lp98
I26
aI50
aI175
aa(lp99
I32
aI166
aI171
aa(lp100
I125
aI204
aa(lp101
I113
aI204
aa(lp102
I130
aI203
aI234
aa(lp103
I130
aI173
aI234
aa(lp104
I121
aI130
aI200
aa(lp105
I130
aI200
aa(lp106
I130
aI148
aI173
aa(lp107
I130
aI148
aa(lp108
I130
aI238
aa(lp109
I149
aa(lp110
I120
aa(lp111
I201
aa(lp112
I172
aI238
aa(lp113
I172
aa(lp114
I202
aa(lp115
I235
aa(lp116
I239
aa(lp117
I26
aI77
aI227
aa(lp118
I26
aI77
aa(lp119
I77
aI97
aI211
aa(lp120
I27
aa(lp121
I226
aa(lp122
I204
aI238
aa(lp123
I96
aa(lp124
I124
aI162
aI198
aa(lp125
I162
aI198
aa(lp126
I112
aI125
aa(lp127
I89
aI125
aa(lp128
I89
aI113
aa(lp129
I154
aI171
aI176
aa(lp130
I139
aI154
aI171
aa(lp131
I59
aI102
aI171
aa(lp132
I54
aI118
aI217
aa(lp133
I177
aI233
aa(lp134
I41
aI121
aI175
aa(lp135
I140
aI177
aa(lp136
I124
aI161
aI177
aa(lp137
I161
aI166
aI177
aa(lp138
I57
aI125
aa(lp139
I57
aI113
aa(lp140
I124
aI171
aI223
aa(lp141
I139
aI171
aI223
aa(lp142
I171
aI250
aa(lp143
I125
aI207
aI238
aa(lp144
I207
aI238
aa(lp145
I177
aI254
aa(lp146
I88
aI113
aI254
aa(lp147
I2
aI113
aa(lp148
I2
aa(lp149
I57
aI238
aa(lp150
I112
aI182
aa(lp151
I118
aI123
aI156
aa(lp152
I9
aa(lp153
I60
aa(lp154
I17
aI88
aa(lp155
I17
aa(lp156
I80
aI89
aa(lp157
I80
aI171
aa(lp158
I53
aI118
aa(lp159
I88
aI238
aI254
aa(lp160
I238
aI254
aa(lp161
I109
aI238
aa(lp162
I112
aI126
aa(lp163
I126
aI166
aa(lp164
I124
aI126
aa(lp165
I36
aI126
aa(lp166
I124
aI167
aI176
aa(lp167
I55
aI167
aI176
aa(lp168
I55
aI118
aI171
aa(lp169
I10
aI175
aa(lp170
I73
aI125
aa(lp171
I73
aI113
aa(lp172
I73
aa(lp173
I171
aI220
aa(lp174
I171
aI208
aa(lp175
I112
aI138
aI176
aa(lp176
I138
aI166
aI176
aa(lp177
I138
aI176
aa(lp178
I88
aI95
aI167
aa(lp179
I95
aa(lp180
I20
aI48
aa(lp181
I48
aI198
aa(lp182
I48
aI227
aa(lp183
I21
aI238
aa(lp184
I199
aa(lp185
I7
aI89
aa(lp186
I62
aI118
aI238
aa(lp187
I99
aI112
aI176
aa(lp188
I89
aI111
aa(lp189
I33
aI256
aa(lp190
I112
aI143
aa(lp191
I64
aI198
aI227
aa(lp192
I237
aI238
aa(lp193
I26
aI184
aa(lp194
I144
aI176
aa(lp195
I56
aI192
aa(lp196
I176
aI187
aa(lp197
I87
aI234
aa(lp198
I78
aI238
aa(lp199
I47
aI234
aa(lp200
I118
aI164
aa(lp201
I85
aI238
aa(lp202
I91
aI112
aI124
aa(lp203
I231
aa(lp204
I54
aI118
aI178
aa(lp205
I42
aI238
aa(lp206
I228
aa(lp207
I89
aI112
aI188
aa(lp208
I253
aa(lp209
I4
aI198
aa(lp210
I141
aI169
aI175
aa(lp211
I26
aI169
aI198
aa(lp212
I140
aa(lp213
I105
aa(lp214
I118
aI176
aI195
aa(lp215
I137
aa(lp216
I39
aI89
aa(lp217
I100
aI198
aI238
aa(lp218
I112
aI176
aI247
aa(lp219
I35
aI190
aa(lp220
I89
aI152
aa(lp221
I89
aI150
aa(lp222
I225
aI234
aI238
aa(lp223
I16
aI233
aI238
aa(lp224
I5
aI22
aI198
aa(lp225
I112
aI118
aI181
aa(lp226
I114
aI176
aa(lp227
I116
aI238
aa(lp228
I69
aI89
aa(lp229
I75
aI89
aI112
aa(lp230
I56
aI159
aI173
aa(lp231
I93
aI227
aa(lp232
I12
aa(lp233
I112
aI161
aa(lp234
I147
aI176
aa(lp235
I122
aI198
aI238
aa(lp236
I30
aI112
aI166
aa(lp237
I112
aI176
aI188
aa(lp238
I28
aI88
aa(lp239
I28
aa(lp240
I75
aI112
aI171
aa(lp241
I152
aI176
aa(lp242
I69
aI171
aa(lp243
I143
aI176
aa(lp244
I176
aI247
aa(lp245
I182
aa(lp246
I7
aI139
aa(lp247
I112
aI176
aI214
aa(lp248
I111
aI171
aa(lp249
I150
aI171
aI176
aa(lp250
I153
aI171
aI258
aa(lp251
I39
aI171
aa(lp252
I19
aI54
aa(lp253
I30
aI33
aI124
aa(lp254
I30
aI166
aa(lp255
I15
aI36
aI181
aa(lp256
I91
aI118
aI166
aa(lp257
I88
aI118
aI129
aa(lp258
I176
aI214
aa(lp259
I33
aI166
aI188
aa(lp260
I75
aI166
aI176
aa(lp261
I118
aI161
aa(lp262
I129
aI238
aa(lp263
I52
aI99
aI139
aa(lp264
I37
aI112
aa(lp265
I37
aI124
aa(lp266
I37
aI118
aI166
aa(lp267
I166
aI176
aI191
aa(lp268
I152
aI171
aa(lp269
I33
aI114
aI171
aa(lp270
I139
aI147
aa(lp271
I118
aI190
aI247
aa(lp272
I118
aI143
aI171
aa(lp273
I139
aI187
aI190
aa(lp274
I144
aI171
aa(lp275
I139
aI171
aI195
aa(lp276
I166
aI171
aI195
aa(lp277
I138
aI166
aI171
aa(lp278
I75
aI166
aI171
aa(lp279
I139
aI214
aa(lp280
I150
aI166
aI171
aa(lp281
I59
aI166
aI247
aa(lp282
I139
aI166
aI191
aa(lp283
I30
aI176
aa(lp284
I176
aI188
aa(lp285
I75
aI176
aa(lp286
I91
aI176
aa(lp287
I37
aI176
aa(lp288
I37
aI139
aa(lp289
I33
aI37
aa(lp290
I1
aI190
aa(lp291
I171
aI190
aI223
aa(lp292
I138
aI156
aa(lp293
I14
aI190
aa(lp294
I37
aI118
aI190
aa(lp295
I190
aI214
aa(lp296
I0
aI53
aI138
aa(lp297
I0
aI54
aI217
aa(lp298
I37
aI154
aI190
aa(lp299
I74
aI126
aa(lp300
I161
aa(lp301
I30
aI190
aa(lp302
I59
aI147
aI171
aa(lp303
I15
aI190
aI247
aa(lp304
I0
aI178
aa(lp305
I0
aI164
aa(lp306
I7
aI74
aa(lp307
I187
aI190
aI194
aa(lp308
I151
aI187
aI190
aa(lp309
I171
aI190
aI195
aa(lp310
I62
aI138
aa(lp311
I59
aI171
aI256
aa(lp312
I114
aI171
aI194
aa(lp313
I0
aI143
aI171
aa(lp314
I55
aI171
aI190
aa(lp315
I188
aI190
aa(lp316
I37
aI75
aI190
aa(lp317
I91
aI190
aa(lp318
I15
aI181
aa(lp319
I99
aI190
aI222
aa(lp320
I150
aI171
aI190
aa(lp321
I75
aI171
aI190
aa(lp322
I124
aI138
aI171
aa(lp323
I154
aI171
aI190
aa(lp324
I32
aI119
aI139
aa(lp325
I156
aI167
aa(lp326
I124
aI167
aI171
aa(lp327
I0
aI53
aI88
aa(lp328
I62
aI177
aa(lp329
I176
aI191
aa(lp330
I118
aI139
aI191
aa(lp331
I36
aI139
aI191
aa(lp332
I33
aI36
aI191
aa(lp333
I36
aI171
aI223
aa(lp334
I14
aI36
aI171
aa(lp335
I35
aI36
aI222
aa(lp336
I59
aI214
aa(lp337
I30
aI194
aa(lp338
I30
aI215
aa(lp339
I36
aI171
aI195
aa(lp340
I187
aI222
aa(lp341
I15
aI59
aI247
aa(lp342
I118
aI171
aI191
aa(lp343
I74
aI154
aI171
aa(lp344
I36
aI55
aI171
aa(lp345
I15
aI99
aI222
aa(lp346
I74
aI91
aa(lp347
I59
aI91
aa(lp348
I36
aI75
aI171
aa(lp349
I36
aI150
aI171
aa(lp350
I59
aI188
aa(lp351
I19
aI194
aa(lp352
I19
aI155
aa(lp353
I19
aI153
aa(lp354
I66
aI99
aI215
aa(lp355
I197
aI215
aI256
aa(lp356
I171
aI215
aI256
aa(lp357
I7
aI171
aI222
aa(lp358
I7
aI171
aI215
aa(lp359
I99
aI171
aI215
aa(lp360
I99
aI171
aa(lp361
I143
aI171
aa(lp362
I102
aI171
aa(lp363
I53
aI147
aa(lp364
I53
aI160
aa(lp365
I171
aI247
aa(lp366
I171
aI188
aa(lp367
I154
aI171
aa(lp368
I55
aI171
aa(lp369
I171
aI214
aa(lp370
I1
aI171
aa(lp371
I150
aI171
aa(lp372
I171
aI223
aa(lp373
I171
aI195
aa(lp374
I147
aI171
aa(lp375
I15
aI58
aI171
aa(lp376
I91
aI194
aa(lp377
I58
aI74
aa(lp378
I69
aI115
aa(lp379
I99
aI115
aI190
aa(lp380
I99
aI190
aa(lp381
I59
aI143
aa(lp382
I143
aI194
aa(lp383
I190
aI250
aa(lp384
I102
aI190
aa(lp385
I147
aI190
aa(lp386
I114
aI190
aa(lp387
I190
aI220
aa(lp388
I58
aI190
aa(lp389
I190
aI223
aa(lp390
I119
aI150
aI190
aa(lp391
I150
aI190
aa(lp392
I80
aI222
aa(lp393
I33
aI75
aI118
aa(lp394
I75
aI124
aa(lp395
I59
aI208
aa(lp396
I144
aI222
aa(lp397
I152
aI190
aa(lp398
I39
aI151
aa(lp399
I115
aI153
aI258
aa(lp400
I111
aI222
aa(lp401
I7
aI222
aa(lp402
I59
aI256
aa(lp403
I75
aI125
aI139
aa(lp404
I75
aI166
aa(lp405
I33
aI75
aI170
aa(lp406
I75
aI119
aI190
aa(lp407
I154
aI190
aa(lp408
I55
aI190
aa(lp409
I190
aI195
aa(lp410
I37
aI170
aI190
aa(lp411
I89
aI112
aI138
aa(lp412
I112
aI138
aa(lp413
I33
aI124
aI138
aa(lp414
I33
aI138
aI166
aa(lp415
I32
aI176
aa(lp416
I7
aI194
aa(lp417
I194
aI256
aa(lp418
I188
aI194
aI250
aa(lp419
I194
aI250
aa(lp420
I37
aI102
aI194
aa(lp421
I37
aI147
aI194
aa(lp422
I194
aI220
aI247
aa(lp423
I194
aI247
aa(lp424
I1
aI194
aI223
aa(lp425
I1
aI194
aa(lp426
I14
aI150
aI194
aa(lp427
I37
aI150
aI194
aa(lp428
I37
aI59
aI223
aa(lp429
I37
aI194
aI223
aa(lp430
I114
aI222
aa(lp431
I152
aI194
aa(lp432
I194
aI208
aa(lp433
I188
aI194
aa(lp434
I194
aI214
aa(lp435
I99
aI222
aa(lp436
I102
aI194
aa(lp437
I147
aI194
aI222
aa(lp438
I14
aI36
aI194
aa(lp439
I119
aI150
aI194
aa(lp440
I119
aI194
aI223
aa(lp441
I154
aI222
aa(lp442
I55
aI222
aa(lp443
I222
aI256
aa(lp444
I102
aa(lp445
I143
aI215
aa(lp446
I222
aI250
aa(lp447
I188
aI220
aI222
aa(lp448
I188
aI222
aa(lp449
I15
aI222
aI247
aa(lp450
I1
aI222
aa(lp451
I37
aI150
aI222
aa(lp452
I0
aI147
aI222
aa(lp453
I91
aI222
aa(lp454
I220
aI222
aa(lp455
I54
aI208
aI221
aa(lp456
I214
aI222
aa(lp457
I14
aI36
aI222
aa(lp458
I119
aI150
aI222
aa(lp459
I155
aI250
aI256
aa(lp460
I155
aI215
aI256
aa(lp461
I7
aI115
aI215
aa(lp462
I188
aI215
aI220
aa(lp463
I188
aI215
aI247
aa(lp464
I15
aI188
aI215
aa(lp465
I188
aI215
aa(lp466
I1
aI215
aa(lp467
I147
aI215
aa(lp468
I54
aI215
aI247
aa(lp469
I91
aI215
aa(lp470
I126
aI215
aa(lp471
I155
aI250
aa(lp472
I54
aI187
aI215
aa(lp473
I115
aI144
aa(lp474
I111
aI155
aa(lp475
I155
aI220
aa(lp476
I30
aI189
aa(lp477
I143
aa(lp478
I1
aI54
aa(lp479
I37
aI99
aI246
aa(lp480
I35
aI246
aa(lp481
I155
aI246
aI256
aa(lp482
I7
aI115
aa(lp483
I54
aI147
aa(lp484
I0
aI155
aI256
aa(lp485
I99
aI155
aI189
aa(lp486
I155
aI197
aa(lp487
I155
aI247
aa(lp488
I91
aI246
aa(lp489
I188
aI246
aa(lp490
I126
aa(lp491
I14
aI36
aI155
aa(lp492
I36
aI54
aI214
aa(lp493
I114
aI215
aa(lp494
I114
aI155
aI246
aa(lp495
I152
aI155
aa(lp496
I115
aI197
aI256
aa(lp497
I110
aI115
aI256
aa(lp498
I54
aI119
aI250
aa(lp499
I54
aI188
aI220
aa(lp500
I54
aI220
aI247
aa(lp501
I54
aI220
aa(lp502
I14
aI54
aI154
aa(lp503
I54
aI154
aI214
aa(lp504
I54
aI119
aI154
aa(lp505
I0
aI217
aa(lp506
I14
aI55
aI215
aa(lp507
I80
aI155
aa(lp508
I155
aI187
aI215
aa(lp509
I208
aI215
aa(lp510
I147
aI155
aa(lp511
I1
aI155
aa(lp512
I208
aI246
aa(lp513
I36
aI155
aI214
aa(lp514
I55
aI151
aa(lp515
I115
aI250
aa(lp516
I215
aI247
aa(lp517
I111
aI215
aa(lp518
I215
aI220
aa(lp519
I80
aI215
aa(lp520
I187
aI215
aa(lp521
I99
aI115
aa(lp522
I30
aI36
aa(lp523
I36
aI197
aa(lp524
I36
aI115
aI147
aa(lp525
I115
aI188
aI220
aa(lp526
I36
aI247
aa(lp527
I36
aI220
aa(lp528
I1
aI36
aa(lp529
I14
aI36
aa(lp530
I36
aI119
aI214
aa(lp531
I39
aI215
aa(lp532
I115
aI147
aa(lp533
I115
aI197
aa(lp534
I115
aI220
aa(lp535
I178
aa(lp536
I35
aI186
aI189
aa(lp537
I153
aI181
aa(lp538
I91
aI189
aa(lp539
I115
aI188
aa(lp540
I217
aa(lp541
I0
aI115
aI247
aa(lp542
I15
aI115
aI247
aa(lp543
I111
aI115
aa(lp544
I115
aI208
aa(lp545
I80
aI115
aa(lp546
I115
aI187
aa(lp547
I39
aI115
aa(lp548
I69
aI119
aI153
aa(lp549
I256
aa(lp550
I7
aa(lp551
I147
aa(lp552
I99
aa(lp553
I144
aI186
aa(lp554
I110
aI153
aI250
aa(lp555
I220
aa(lp556
I188
aa(lp557
I111
aI189
aa(lp558
I208
aa(lp559
I80
aI221
aa(lp560
I153
aI187
aa(lp561
I39
aa(lp562
I115
aI152
aa(lp563
I152
aa(lp564
I258
aa(lp565
I1
aI118
aa(lp566
I118
aI247
aa(lp567
I14
aI118
aa(lp568
I114
aI118
aa(lp569
I154
aI194
aa(lp570
I55
aI194
aa(lp571
I150
aI222
aa(lp572
I54
aI154
aa(lp573
I166
aI191
aa(lp574
I74
aI223
aa.