(lp0
(lp1
I19
aa(lp2
I27
aI31
aI35
aa(lp3
I1
aI3
aI5
aI11
aI13
aI15
aI17
aI18
aI21
aI23
aI26
aI29
aI31
aI33
aI39
aI57
aI59
aI63
aI69
aI73
aI79
aa(lp4
I1
aI3
aI4
aI7
aI9
aI11
aI13
aI15
aI17
aI18
aI21
aI23
aI25
aI26
aI29
aI31
aI33
aI35
aI37
aI39
aI65
aa(lp5
I4
aI25
aI35
aa(lp6
I25
aI35
aa(lp7
I7
aI21
aI35
aa(lp8
I1
aI3
aI5
aI8
aI10
aI13
aI15
aI17
aI20
aI23
aI24
aI26
aI31
aI35
aI39
aI41
aI45
aI47
aI51
aI57
aI63
aa(lp9
I1
aI3
aI5
aI8
aI10
aI13
aI15
aI18
aI20
aI23
aI24
aI26
aI31
aI33
aI35
aI37
aI39
aI51
aI57
aI63
aI65
aa(lp10
I7
aI10
aI22
aa(lp11
I1
aI3
aI6
aI8
aI10
aI13
aI15
aI16
aI20
aI22
aI24
aI29
aI31
aI35
aI37
aI39
aI41
aI45
aI51
aI57
aI77
aa(lp12
I5
aI22
aa(lp13
I10
aI39
aa(lp14
I10
aI33
aI35
aa(lp15
I1
aI3
aI5
aI6
aI8
aI10
aI13
aI15
aI16
aI20
aI23
aI24
aI26
aI28
aI30
aI32
aI35
aI37
aI38
aI45
aI51
aa(lp16
I10
aI28
aI30
aa(lp17
I10
aa(lp18
I1
aI3
aI5
aI6
aI8
aI11
aI13
aI16
aI18
aI20
aI23
aI24
aI26
aI29
aI30
aI32
aI34
aI37
aI38
aI51
aI57
aI59
aa(lp19
I1
aI3
aI5
aI8
aI11
aI13
aI15
aI16
aI18
aI20
aI23
aI24
aI26
aI29
aI30
aI37
aI38
aI47
aI51
aI57
aI63
aa(lp20
I1
aI3
aI5
aI6
aI8
aI11
aI13
aI15
aI18
aI20
aI23
aI24
aI26
aI29
aI30
aI32
aI34
aI37
aI38
aI47
aI51
aI57
aa(lp21
I1
aI5
aI6
aI8
aI13
aI15
aI20
aI23
aI24
aI26
aI30
aI32
aI34
aI37
aI41
aI45
aI51
aI57
aI58
aI61
aI79
aa(lp22
I15
aI30
aa(lp23
I1
aI3
aI5
aI6
aI8
aI11
aI13
aI14
aI16
aI18
aI20
aI23
aI24
aI26
aI29
aI30
aI34
aI37
aI51
aI57
aI75
aa(lp24
I1
aI3
aI5
aI6
aI8
aI11
aI13
aI14
aI18
aI23
aI24
aI30
aI32
aI34
aI37
aI38
aI41
aI51
aI57
aI62
aI74
aI77
aa(lp25
I1
aI3
aI5
aI6
aI8
aI13
aI14
aI16
aI18
aI20
aI24
aI29
aI30
aI34
aI37
aI38
aI41
aI51
aI71
aI74
aI77
aa(lp26
I1
aI3
aI5
aI8
aI11
aI13
aI14
aI16
aI18
aI23
aI24
aI26
aI30
aI32
aI34
aI37
aI51
aI57
aI61
aI73
aI74
aI77
aa(lp27
I1
aI3
aI5
aI6
aI8
aI11
aI14
aI16
aI18
aI20
aI23
aI24
aI26
aI30
aI32
aI34
aI37
aI41
aI51
aI57
aI70
aI72
aa(lp28
I1
aI5
aI6
aI13
aI14
aI18
aI20
aI24
aI26
aI29
aI30
aI32
aI34
aI37
aI38
aI41
aI46
aI51
aI57
aI72
aI74
aa(lp29
I1
aI3
aI5
aI6
aI8
aI14
aI16
aI18
aI20
aI23
aI24
aI26
aI29
aI30
aI32
aI34
aI37
aI38
aI41
aI47
aI51
aI72
aI74
aa(lp30
I1
aI3
aI5
aI8
aI11
aI14
aI16
aI18
aI23
aI24
aI26
aI29
aI30
aI32
aI35
aI37
aI41
aI61
aI63
aI72
aI74
aa(lp31
I1
aI3
aI5
aI6
aI11
aI13
aI14
aI16
aI18
aI20
aI23
aI24
aI29
aI30
aI35
aI37
aI38
aI41
aI51
aI53
aI72
aI74
aa(lp32
I1
aI3
aI5
aI6
aI13
aI16
aI20
aI23
aI24
aI26
aI30
aI35
aI37
aI38
aI41
aI43
aI52
aI55
aI57
aI72
aI74
aa(lp33
I1
aI3
aI5
aI6
aI13
aI16
aI18
aI20
aI23
aI24
aI29
aI35
aI37
aI38
aI41
aI42
aI51
aI52
aI57
aI61
aI72
aI74
aa(lp34
I1
aI3
aI5
aI6
aI8
aI13
aI14
aI16
aI18
aI23
aI24
aI26
aI30
aI32
aI35
aI37
aI41
aI43
aI57
aI72
aI74
aa(lp35
I1
aI3
aI6
aI8
aI11
aI13
aI14
aI16
aI18
aI20
aI23
aI24
aI26
aI29
aI32
aI35
aI37
aI41
aI42
aI52
aI74
aa(lp36
I1
aI3
aI5
aI6
aI8
aI11
aI13
aI14
aI16
aI20
aI24
aI26
aI29
aI30
aI35
aI37
aI38
aI41
aI51
aI54
aI60
aI74
aa(lp37
I1
aI3
aI5
aI6
aI8
aI11
aI13
aI14
aI16
aI18
aI20
aI24
aI26
aI35
aI37
aI38
aI41
aI51
aI57
aI62
aI74
aa(lp38
I1
aI3
aI5
aI8
aI11
aI13
aI14
aI16
aI18
aI20
aI23
aI24
aI26
aI29
aI35
aI37
aI41
aI51
aI52
aI63
aI74
aa(lp39
I1
aI3
aI5
aI8
aI11
aI13
aI14
aI16
aI18
aI20
aI23
aI24
aI26
aI29
aI32
aI35
aI37
aI38
aI41
aI63
aI74
aa(lp40
I1
aI3
aI5
aI6
aI8
aI11
aI13
aI14
aI16
aI18
aI20
aI24
aI26
aI29
aI30
aI35
aI37
aI41
aI51
aI58
aI74
aa(lp41
I1
aI3
aI5
aI6
aI11
aI13
aI14
aI16
aI18
aI23
aI24
aI26
aI29
aI30
aI35
aI37
aI41
aI51
aI53
aI69
aI74
aa(lp42
I1
aI3
aI6
aI8
aI11
aI16
aI18
aI20
aI23
aI24
aI26
aI30
aI32
aI35
aI37
aI38
aI51
aI55
aI68
aI71
aI74
aa(lp43
I1
aI3
aI6
aI8
aI11
aI13
aI14
aI16
aI20
aI23
aI24
aI26
aI29
aI35
aI37
aI38
aI53
aI54
aI59
aI61
aI74
aa(lp44
I1
aI3
aI5
aI6
aI11
aI13
aI14
aI16
aI18
aI20
aI24
aI26
aI29
aI35
aI37
aI38
aI41
aI51
aI68
aI70
aI74
aa(lp45
I1
aI3
aI5
aI6
aI8
aI11
aI13
aI16
aI18
aI24
aI29
aI30
aI32
aI38
aI41
aI51
aI52
aI59
aI62
aI71
aI74
aa(lp46
I1
aI3
aI5
aI6
aI8
aI11
aI14
aI16
aI18
aI20
aI23
aI24
aI29
aI30
aI35
aI37
aI38
aI41
aI47
aI51
aI73
aI74
aa(lp47
I1
aI3
aI5
aI6
aI8
aI11
aI13
aI18
aI20
aI23
aI24
aI29
aI30
aI37
aI38
aI41
aI46
aI51
aI52
aI59
aI74
aa(lp48
I3
aI6
aI8
aI11
aI13
aI14
aI16
aI20
aI24
aI26
aI29
aI30
aI35
aI37
aI41
aI43
aI45
aI51
aI70
aI72
aI74
aa(lp49
I1
aI3
aI5
aI6
aI8
aI11
aI14
aI16
aI18
aI24
aI26
aI29
aI30
aI35
aI37
aI41
aI43
aI44
aI51
aI52
aI62
aI74
aa(lp50
I3
aI5
aI6
aI8
aI11
aI13
aI16
aI18
aI20
aI23
aI24
aI29
aI30
aI34
aI37
aI38
aI41
aI44
aI52
aI55
aI63
aI74
aa(lp51
I1
aI3
aI5
aI6
aI8
aI11
aI13
aI16
aI18
aI23
aI24
aI26
aI29
aI30
aI37
aI41
aI44
aI46
aI51
aI62
aI74
aa(lp52
I1
aI3
aI5
aI6
aI8
aI11
aI13
aI14
aI18
aI20
aI23
aI24
aI29
aI30
aI34
aI37
aI38
aI41
aI46
aI51
aI52
aI74
aa(lp53
I1
aI3
aI5
aI6
aI8
aI11
aI13
aI14
aI16
aI20
aI24
aI29
aI30
aI32
aI34
aI37
aI38
aI41
aI51
aI52
aI63
aI74
aa(lp54
I1
aI3
aI5
aI6
aI8
aI11
aI13
aI14
aI18
aI20
aI23
aI24
aI26
aI29
aI37
aI38
aI41
aI51
aI52
aI70
aI74
aa(lp55
I1
aI3
aI5
aI6
aI8
aI11
aI16
aI18
aI20
aI23
aI24
aI26
aI29
aI30
aI32
aI34
aI37
aI38
aI41
aI51
aI52
aI74
aa(lp56
I1
aI3
aI5
aI6
aI8
aI11
aI13
aI14
aI16
aI20
aI24
aI26
aI29
aI30
aI34
aI38
aI41
aI47
aI51
aI60
aI71
aI74
aa(lp57
I1
aI3
aI5
aI6
aI8
aI14
aI16
aI18
aI20
aI23
aI24
aI26
aI29
aI30
aI32
aI38
aI41
aI47
aI51
aI62
aI74
aa(lp58
I1
aI3
aI5
aI6
aI8
aI11
aI13
aI14
aI18
aI20
aI24
aI29
aI30
aI32
aI34
aI37
aI38
aI41
aI51
aI61
aI74
aa(lp59
I1
aI3
aI5
aI6
aI8
aI11
aI14
aI18
aI20
aI23
aI24
aI26
aI29
aI30
aI37
aI38
aI41
aI47
aI51
aI70
aI74
aa(lp60
I1
aI3
aI5
aI6
aI8
aI11
aI14
aI16
aI18
aI20
aI23
aI24
aI26
aI29
aI30
aI34
aI37
aI38
aI41
aI51
aI56
aI74
aa(lp61
I3
aI5
aI6
aI8
aI11
aI13
aI14
aI18
aI20
aI23
aI24
aI29
aI30
aI34
aI37
aI38
aI41
aI51
aI57
aI70
aI74
aI78
aa(lp62
I1
aI5
aI6
aI8
aI11
aI13
aI14
aI16
aI18
aI20
aI23
aI24
aI26
aI29
aI30
aI38
aI41
aI51
aI74
aI76
aI79
aa(lp63
I1
aI5
aI8
aI11
aI13
aI14
aI16
aI18
aI24
aI29
aI30
aI32
aI34
aI37
aI38
aI41
aI51
aI57
aI60
aI74
aI79
aa(lp64
I1
aI3
aI5
aI6
aI8
aI13
aI14
aI16
aI18
aI20
aI24
aI26
aI29
aI30
aI34
aI37
aI38
aI41
aI51
aI71
aI74
aa(lp65
I1
aI5
aI6
aI8
aI11
aI13
aI16
aI18
aI20
aI23
aI24
aI26
aI33
aI34
aI37
aI38
aI41
aI57
aI70
aI77
aI79
aa(lp66
I1
aI3
aI5
aI6
aI11
aI14
aI16
aI20
aI23
aI24
aI29
aI33
aI35
aI37
aI38
aI41
aI51
aI52
aI59
aI72
aI74
aa(lp67
I1
aI3
aI5
aI13
aI14
aI16
aI18
aI23
aI24
aI29
aI30
aI33
aI35
aI37
aI41
aI56
aI61
aI63
aI68
aI74
aI76
aa(lp68
I1
aI8
aI11
aI13
aI14
aI16
aI20
aI23
aI24
aI26
aI29
aI30
aI35
aI37
aI53
aI56
aI61
aI63
aI68
aI73
aI74
aa(lp69
I1
aI3
aI5
aI6
aI11
aI14
aI16
aI20
aI23
aI24
aI29
aI35
aI37
aI38
aI41
aI43
aI46
aI56
aI67
aI68
aI74
aI77
aa(lp70
I35
aa(lp71
I1
aI3
aI6
aI11
aI13
aI18
aI20
aI24
aI29
aI30
aI34
aI37
aI38
aI41
aI46
aI51
aI56
aI66
aI68
aI71
aI74
aa(lp72
I1
aI5
aI6
aI8
aI11
aI14
aI16
aI18
aI20
aI27
aI29
aI30
aI33
aI34
aI37
aI38
aI51
aI56
aI59
aI68
aI76
aa(lp73
I1
aI3
aI6
aI8
aI11
aI13
aI14
aI18
aI20
aI23
aI24
aI27
aI29
aI30
aI34
aI38
aI41
aI51
aI59
aI71
aI74
aa(lp74
I1
aI3
aI5
aI6
aI8
aI11
aI13
aI18
aI20
aI23
aI24
aI27
aI29
aI30
aI34
aI38
aI41
aI51
aI62
aI71
aI74
aa(lp75
I1
aI3
aI5
aI6
aI8
aI13
aI14
aI18
aI20
aI23
aI24
aI27
aI29
aI30
aI34
aI37
aI38
aI41
aI51
aI61
aI71
aI74
aa(lp76
I1
aI3
aI5
aI6
aI8
aI11
aI13
aI16
aI18
aI23
aI24
aI29
aI30
aI33
aI34
aI38
aI41
aI51
aI60
aI71
aI74
aa(lp77
I1
aI3
aI5
aI6
aI8
aI11
aI13
aI16
aI18
aI24
aI27
aI29
aI30
aI32
aI34
aI38
aI41
aI51
aI56
aI60
aI71
aI74
aa(lp78
I1
aI3
aI5
aI6
aI8
aI13
aI14
aI16
aI18
aI20
aI23
aI24
aI29
aI30
aI34
aI38
aI41
aI51
aI57
aI60
aI74
aa(lp79
I1
aI3
aI5
aI6
aI8
aI11
aI13
aI16
aI18
aI20
aI23
aI24
aI27
aI29
aI30
aI33
aI34
aI38
aI41
aI51
aI62
aa(lp80
I1
aI5
aI6
aI8
aI11
aI13
aI16
aI18
aI20
aI23
aI24
aI29
aI30
aI33
aI37
aI38
aI41
aI51
aI63
aI74
aI76
aa(lp81
I1
aI3
aI5
aI6
aI8
aI13
aI14
aI18
aI20
aI24
aI29
aI30
aI34
aI37
aI38
aI41
aI51
aI61
aI70
aI74
aI77
aa(lp82
I1
aI3
aI5
aI6
aI8
aI13
aI14
aI18
aI20
aI23
aI24
aI27
aI29
aI30
aI33
aI34
aI37
aI38
aI41
aI51
aI74
aI78
aa(lp83
I1
aI3
aI5
aI6
aI8
aI11
aI13
aI14
aI18
aI20
aI23
aI24
aI27
aI29
aI30
aI34
aI38
aI41
aI51
aI74
aI79
aa(lp84
I1
aI3
aI5
aI6
aI8
aI11
aI13
aI14
aI16
aI18
aI20
aI27
aI29
aI30
aI32
aI34
aI38
aI41
aI51
aI74
aI77
aa(lp85
I1
aI5
aI6
aI8
aI11
aI13
aI14
aI18
aI20
aI23
aI24
aI27
aI29
aI30
aI32
aI34
aI38
aI41
aI51
aI60
aI63
aa(lp86
I3
aI5
aI6
aI8
aI11
aI13
aI16
aI18
aI20
aI23
aI24
aI29
aI30
aI32
aI34
aI38
aI41
aI51
aI62
aI70
aI74
aa(lp87
I1
aI3
aI5
aI6
aI8
aI11
aI13
aI16
aI18
aI20
aI24
aI28
aI30
aI34
aI37
aI38
aI41
aI51
aI61
aI62
aI74
aa(lp88
I5
aI6
aI8
aI11
aI13
aI14
aI16
aI18
aI23
aI24
aI27
aI28
aI30
aI33
aI34
aI37
aI38
aI41
aI61
aI65
aI73
aI74
aa(lp89
I1
aI3
aI6
aI13
aI16
aI18
aI20
aI23
aI24
aI27
aI28
aI30
aI33
aI34
aI37
aI38
aI41
aI55
aI64
aI73
aI74
aa(lp90
I1
aI3
aI5
aI6
aI8
aI11
aI14
aI16
aI18
aI20
aI23
aI24
aI27
aI28
aI30
aI34
aI37
aI38
aI41
aI54
aI64
aI73
aa(lp91
I1
aI3
aI5
aI8
aI11
aI13
aI14
aI20
aI24
aI28
aI30
aI33
aI34
aI37
aI38
aI41
aI51
aI54
aI61
aI70
aI72
aa(lp92
I1
aI3
aI5
aI11
aI14
aI16
aI18
aI20
aI23
aI24
aI27
aI28
aI30
aI33
aI34
aI37
aI38
aI41
aI51
aI61
aI70
aI72
aa(lp93
I1
aI3
aI5
aI8
aI11
aI13
aI14
aI16
aI18
aI23
aI24
aI27
aI28
aI30
aI33
aI34
aI38
aI41
aI51
aI63
aI74
aa(lp94
I5
aI27
aI30
aa(lp95
I1
aI5
aI6
aI8
aI11
aI13
aI20
aI23
aI24
aI26
aI28
aI30
aI33
aI34
aI37
aI38
aI41
aI46
aI51
aI62
aI72
aI74
aa(lp96
I1
aI3
aI5
aI8
aI11
aI16
aI18
aI20
aI23
aI24
aI26
aI28
aI30
aI33
aI34
aI37
aI38
aI41
aI46
aI51
aI72
aI74
aa(lp97
I1
aI3
aI6
aI8
aI11
aI18
aI20
aI23
aI24
aI26
aI28
aI30
aI33
aI37
aI38
aI41
aI55
aI63
aI70
aI72
aI74
aa(lp98
I1
aI3
aI5
aI8
aI11
aI13
aI16
aI18
aI23
aI24
aI26
aI28
aI30
aI33
aI34
aI38
aI41
aI51
aI53
aI62
aI72
aI74
aa(lp99
I1
aI5
aI6
aI8
aI13
aI14
aI16
aI20
aI24
aI26
aI28
aI30
aI33
aI34
aI37
aI38
aI41
aI51
aI54
aI70
aI72
aI74
aa(lp100
I1
aI3
aI5
aI6
aI8
aI11
aI16
aI18
aI20
aI23
aI24
aI26
aI28
aI30
aI33
aI34
aI37
aI38
aI41
aI51
aI52
aI74
aa(lp101
I1
aI3
aI5
aI6
aI8
aI13
aI18
aI20
aI23
aI24
aI28
aI30
aI37
aI38
aI41
aI46
aI51
aI54
aI60
aI62
aI74
aa(lp102
I1
aI3
aI5
aI6
aI8
aI11
aI13
aI18
aI20
aI23
aI24
aI26
aI28
aI30
aI33
aI37
aI38
aI41
aI51
aI60
aI74
aa(lp103
I3
aI5
aI8
aI11
aI13
aI16
aI18
aI20
aI23
aI24
aI26
aI28
aI30
aI33
aI37
aI38
aI41
aI51
aI54
aI63
aI74
aa(lp104
I1
aI5
aI6
aI8
aI11
aI18
aI20
aI23
aI24
aI26
aI28
aI30
aI37
aI38
aI41
aI47
aI51
aI53
aI61
aI70
aI74
aa(lp105
I3
aI5
aI6
aI8
aI13
aI14
aI16
aI18
aI23
aI24
aI28
aI30
aI34
aI37
aI38
aI41
aI46
aI51
aI61
aI70
aI74
aI78
aa(lp106
I3
aI5
aI6
aI8
aI13
aI16
aI18
aI23
aI24
aI28
aI30
aI33
aI34
aI37
aI38
aI41
aI51
aI61
aI73
aI74
aI79
aa(lp107
I1
aI3
aI8
aI13
aI16
aI18
aI23
aI24
aI26
aI28
aI30
aI33
aI34
aI37
aI38
aI41
aI46
aI51
aI63
aI71
aI73
aa(lp108
I1
aI3
aI5
aI6
aI11
aI14
aI16
aI18
aI24
aI26
aI28
aI30
aI33
aI34
aI37
aI38
aI41
aI47
aI51
aI61
aI74
aa(lp109
I1
aI3
aI5
aI6
aI8
aI11
aI14
aI18
aI23
aI24
aI28
aI30
aI37
aI38
aI41
aI46
aI51
aI52
aI55
aI71
aI74
aa(lp110
I5
aI6
aI8
aI11
aI14
aI16
aI18
aI20
aI23
aI24
aI26
aI28
aI30
aI32
aI34
aI38
aI41
aI51
aI56
aI62
aI74
aa(lp111
I1
aI3
aI5
aI6
aI11
aI13
aI14
aI16
aI23
aI24
aI26
aI30
aI34
aI37
aI38
aI41
aI51
aI57
aI60
aI71
aI74
aa(lp112
I1
aI3
aI5
aI6
aI8
aI13
aI16
aI20
aI23
aI24
aI28
aI30
aI34
aI38
aI41
aI46
aI51
aI55
aI63
aI71
aI74
aa(lp113
I1
aI3
aI5
aI11
aI13
aI14
aI16
aI18
aI20
aI23
aI24
aI26
aI28
aI30
aI32
aI34
aI41
aI46
aI51
aI54
aI71
aa(lp114
I1
aI3
aI5
aI6
aI8
aI11
aI13
aI18
aI23
aI24
aI26
aI28
aI30
aI32
aI37
aI38
aI41
aI51
aI71
aI74
aI76
aa(lp115
I3
aI6
aI8
aI11
aI13
aI18
aI20
aI23
aI24
aI26
aI28
aI30
aI32
aI34
aI37
aI41
aI51
aI54
aI58
aI73
aI77
aa(lp116
I1
aI3
aI6
aI8
aI11
aI13
aI14
aI18
aI20
aI23
aI24
aI28
aI30
aI32
aI34
aI37
aI41
aI51
aI54
aI63
aI73
aa(lp117
I1
aI3
aI5
aI8
aI11
aI14
aI16
aI18
aI20
aI23
aI24
aI26
aI28
aI30
aI34
aI38
aI51
aI59
aI60
aI71
aI74
aI77
aa(lp118
I1
aI3
aI5
aI6
aI8
aI11
aI13
aI14
aI16
aI18
aI23
aI24
aI26
aI28
aI30
aI34
aI38
aI47
aI71
aI74
aI77
aa(lp119
I1
aI3
aI5
aI6
aI8
aI13
aI16
aI18
aI24
aI28
aI30
aI32
aI34
aI37
aI38
aI41
aI43
aI51
aI53
aI73
aI74
aa(lp120
I1
aI3
aI6
aI11
aI13
aI16
aI18
aI20
aI23
aI30
aI32
aI34
aI37
aI38
aI41
aI42
aI47
aI49
aI57
aI60
aI70
aa(lp121
I1
aI3
aI5
aI6
aI8
aI11
aI13
aI14
aI16
aI18
aI20
aI23
aI24
aI34
aI37
aI38
aI41
aI42
aI47
aI48
aI51
aI57
aa(lp122
I1
aI3
aI5
aI6
aI8
aI13
aI14
aI18
aI20
aI23
aI24
aI28
aI30
aI34
aI37
aI41
aI51
aI54
aI62
aI70
aI74
aa(lp123
I3
aI5
aI6
aI8
aI11
aI14
aI16
aI18
aI20
aI24
aI26
aI30
aI32
aI37
aI38
aI41
aI52
aI55
aI57
aI70
aI74
aa(lp124
I1
aI3
aI5
aI8
aI11
aI13
aI14
aI16
aI18
aI20
aI24
aI26
aI28
aI30
aI34
aI37
aI41
aI52
aI55
aI63
aI73
aI74
aa(lp125
I5
aI28
aI30
aa(lp126
I3
aI5
aI6
aI8
aI11
aI14
aI16
aI20
aI23
aI24
aI29
aI30
aI34
aI38
aI41
aI42
aI51
aI60
aI63
aI70
aI76
aa(lp127
I1
aI3
aI5
aI6
aI8
aI11
aI13
aI20
aI23
aI24
aI26
aI29
aI30
aI34
aI37
aI38
aI41
aI42
aI47
aI51
aI58
aI63
aa(lp128
I1
aI3
aI6
aI8
aI13
aI14
aI16
aI18
aI20
aI23
aI26
aI29
aI30
aI32
aI34
aI37
aI41
aI42
aI45
aI51
aI73
aa(lp129
I1
aI3
aI5
aI6
aI8
aI11
aI13
aI14
aI16
aI18
aI26
aI29
aI30
aI32
aI34
aI38
aI41
aI42
aI44
aI51
aI53
aI78
aa(lp130
I1
aI3
aI5
aI6
aI8
aI11
aI13
aI14
aI16
aI18
aI20
aI23
aI24
aI26
aI29
aI32
aI34
aI41
aI42
aI44
aI51
aI65
aI70
aa(lp131
I1
aI3
aI8
aI11
aI13
aI14
aI16
aI18
aI20
aI23
aI26
aI29
aI30
aI32
aI34
aI41
aI42
aI44
aI51
aI70
aI73
aa(lp132
I1
aI3
aI5
aI6
aI8
aI11
aI14
aI16
aI18
aI20
aI23
aI24
aI26
aI29
aI30
aI32
aI37
aI38
aI41
aI51
aI70
aa(lp133
I5
aI8
aI11
aI13
aI14
aI16
aI18
aI20
aI23
aI24
aI26
aI29
aI30
aI33
aI34
aI37
aI41
aI51
aI63
aI64
aI73
aa(lp134
I1
aI3
aI6
aI8
aI11
aI13
aI14
aI16
aI18
aI20
aI23
aI24
aI29
aI30
aI33
aI34
aI37
aI41
aI51
aI70
aI73
aa(lp135
I3
aI5
aI6
aI8
aI11
aI13
aI14
aI16
aI18
aI20
aI23
aI24
aI26
aI29
aI37
aI38
aI41
aI51
aI65
aI70
aI72
aa(lp136
I1
aI3
aI5
aI6
aI8
aI11
aI14
aI16
aI18
aI20
aI23
aI24
aI26
aI29
aI30
aI33
aI34
aI37
aI41
aI51
aI70
aa(lp137
I1
aI5
aI6
aI8
aI13
aI14
aI16
aI18
aI20
aI23
aI24
aI26
aI29
aI30
aI33
aI34
aI37
aI38
aI41
aI51
aI60
aa(lp138
I1
aI5
aI6
aI8
aI11
aI13
aI14
aI16
aI18
aI20
aI23
aI24
aI26
aI29
aI30
aI33
aI34
aI37
aI38
aI41
aI51
aa(lp139
I1
aI3
aI5
aI6
aI8
aI11
aI13
aI14
aI16
aI18
aI20
aI23
aI24
aI26
aI29
aI30
aI32
aI34
aI37
aI38
aI51
aa(lp140
I12
aa(lp141
I14
aI25
aI37
aa(lp142
I1
aI3
aI4
aI6
aI8
aI11
aI13
aI14
aI16
aI18
aI20
aI23
aI24
aI26
aI29
aI30
aI34
aI37
aI38
aI41
aI51
aI64
aa(lp143
I3
aI4
aI6
aI8
aI11
aI13
aI14
aI16
aI18
aI20
aI23
aI24
aI26
aI29
aI30
aI33
aI34
aI37
aI38
aI41
aI51
aa(lp144
I3
aI4
aI6
aI8
aI11
aI13
aI14
aI16
aI18
aI23
aI24
aI26
aI28
aI30
aI33
aI38
aI41
aI43
aI51
aI77
aI79
aa(lp145
I1
aI3
aI8
aI11
aI13
aI14
aI16
aI18
aI20
aI23
aI24
aI26
aI28
aI30
aI33
aI34
aI37
aI38
aI41
aI51
aI63
aa(lp146
I1
aI3
aI4
aI6
aI8
aI11
aI14
aI16
aI18
aI20
aI23
aI24
aI26
aI28
aI30
aI33
aI34
aI37
aI38
aI41
aI51
aa(lp147
I1
aI4
aI6
aI8
aI16
aI18
aI20
aI23
aI24
aI26
aI28
aI30
aI34
aI37
aI38
aI41
aI51
aI53
aI59
aI62
aI79
aa(lp148
I1
aI3
aI4
aI6
aI8
aI11
aI13
aI16
aI18
aI20
aI23
aI24
aI26
aI28
aI30
aI32
aI34
aI38
aI41
aI51
aI55
aa(lp149
I1
aI3
aI4
aI6
aI8
aI11
aI13
aI14
aI18
aI24
aI26
aI28
aI30
aI37
aI41
aI51
aI53
aI54
aI61
aI62
aI79
aa(lp150
I3
aI6
aI11
aI13
aI14
aI18
aI20
aI24
aI26
aI28
aI32
aI34
aI37
aI38
aI41
aI45
aI51
aI54
aI61
aI72
aI75
aa(lp151
I1
aI4
aI6
aI8
aI11
aI13
aI16
aI18
aI20
aI23
aI24
aI26
aI28
aI30
aI32
aI34
aI37
aI41
aI44
aI51
aI54
aa(lp152
I1
aI3
aI4
aI6
aI8
aI13
aI20
aI23
aI24
aI26
aI28
aI30
aI32
aI34
aI37
aI38
aI41
aI51
aI60
aI72
aI78
aa(lp153
I3
aI6
aI8
aI11
aI13
aI14
aI18
aI20
aI23
aI24
aI26
aI28
aI30
aI32
aI34
aI37
aI38
aI41
aI45
aI51
aI54
aI62
aa(lp154
I4
aI8
aI11
aI13
aI16
aI18
aI20
aI23
aI24
aI26
aI28
aI30
aI32
aI34
aI38
aI41
aI51
aI53
aI54
aI60
aI71
aI79
aa(lp155
I1
aI4
aI6
aI8
aI11
aI16
aI20
aI23
aI24
aI26
aI28
aI30
aI32
aI34
aI38
aI41
aI51
aI52
aI54
aI60
aI71
aI72
aa(lp156
I1
aI3
aI4
aI6
aI8
aI13
aI16
aI18
aI20
aI23
aI24
aI28
aI30
aI34
aI37
aI38
aI41
aI51
aI52
aI54
aI79
aa(lp157
I1
aI4
aI8
aI13
aI14
aI16
aI18
aI20
aI23
aI24
aI26
aI28
aI30
aI32
aI34
aI38
aI41
aI51
aI54
aI60
aI79
aa(lp158
I1
aI3
aI4
aI6
aI8
aI13
aI16
aI18
aI20
aI24
aI29
aI30
aI32
aI34
aI38
aI41
aI51
aI54
aI60
aI70
aI72
aI79
aa(lp159
I3
aI4
aI11
aI14
aI16
aI18
aI20
aI23
aI24
aI26
aI29
aI32
aI34
aI37
aI38
aI41
aI51
aI53
aI54
aI70
aI72
aI78
aa(lp160
I1
aI3
aI4
aI6
aI11
aI13
aI14
aI18
aI20
aI23
aI24
aI26
aI29
aI30
aI32
aI34
aI37
aI41
aI51
aI54
aI70
aI72
aa(lp161
I1
aI4
aI6
aI8
aI11
aI13
aI16
aI18
aI20
aI23
aI24
aI26
aI29
aI32
aI34
aI38
aI41
aI51
aI52
aI58
aI70
aI72
aa(lp162
I3
aI4
aI6
aI8
aI13
aI14
aI16
aI18
aI20
aI23
aI24
aI26
aI29
aI32
aI34
aI37
aI38
aI41
aI51
aI52
aI70
aI72
aI78
aa(lp163
I3
aI4
aI8
aI11
aI16
aI20
aI23
aI24
aI26
aI29
aI32
aI34
aI37
aI38
aI41
aI51
aI52
aI70
aI72
aI76
aI79
aa(lp164
I1
aI3
aI4
aI8
aI11
aI13
aI14
aI16
aI18
aI20
aI23
aI24
aI26
aI29
aI32
aI34
aI37
aI38
aI41
aI51
aI52
aI72
aa(lp165
I1
aI4
aI6
aI8
aI13
aI14
aI16
aI18
aI20
aI23
aI24
aI26
aI29
aI30
aI32
aI34
aI38
aI41
aI47
aI51
aI70
aI72
aa(lp166
I1
aI3
aI4
aI6
aI8
aI11
aI14
aI16
aI18
aI20
aI24
aI26
aI29
aI30
aI32
aI34
aI37
aI41
aI46
aI51
aI70
aI72
aa(lp167
I1
aI4
aI6
aI8
aI11
aI13
aI16
aI18
aI23
aI26
aI29
aI32
aI37
aI38
aI41
aI46
aI51
aI52
aI60
aI70
aI77
aI79
aa(lp168
I1
aI3
aI4
aI8
aI11
aI13
aI14
aI16
aI18
aI20
aI23
aI24
aI29
aI32
aI34
aI37
aI38
aI41
aI46
aI51
aI52
aI60
aa(lp169
I3
aI4
aI6
aI8
aI11
aI13
aI16
aI18
aI20
aI23
aI24
aI29
aI30
aI32
aI37
aI38
aI41
aI46
aI51
aI70
aI76
aa(lp170
I1
aI3
aI4
aI6
aI8
aI11
aI13
aI14
aI16
aI18
aI20
aI23
aI24
aI29
aI30
aI32
aI37
aI38
aI41
aI46
aI51
aI60
aa(lp171
I1
aI3
aI4
aI6
aI8
aI11
aI13
aI14
aI16
aI18
aI23
aI24
aI26
aI29
aI30
aI32
aI34
aI37
aI41
aI46
aI51
aI70
aa(lp172
I1
aI4
aI6
aI8
aI11
aI13
aI14
aI16
aI18
aI20
aI23
aI24
aI26
aI29
aI30
aI34
aI37
aI41
aI51
aI61
aI70
aa(lp173
I1
aI3
aI4
aI6
aI8
aI13
aI14
aI16
aI18
aI23
aI24
aI26
aI29
aI30
aI32
aI34
aI38
aI41
aI43
aI51
aI70
aI77
aa(lp174
I1
aI3
aI4
aI6
aI8
aI11
aI13
aI14
aI16
aI20
aI23
aI24
aI29
aI30
aI34
aI38
aI41
aI51
aI59
aI70
aI76
aa(lp175
I1
aI4
aI6
aI8
aI14
aI16
aI18
aI20
aI23
aI24
aI26
aI29
aI30
aI32
aI34
aI38
aI41
aI47
aI51
aI70
aI76
aa(lp176
I1
aI3
aI4
aI8
aI11
aI13
aI16
aI18
aI20
aI23
aI24
aI26
aI29
aI30
aI32
aI34
aI37
aI38
aI41
aI46
aI51
aI58
aa(lp177
I4
aI30
aa(lp178
I3
aI8
aI11
aI13
aI14
aI20
aI23
aI24
aI26
aI30
aI32
aI34
aI37
aI39
aI41
aI46
aI61
aI63
aI73
aI76
aI79
aa(lp179
I1
aI3
aI5
aI8
aI11
aI13
aI14
aI16
aI18
aI20
aI23
aI24
aI26
aI29
aI30
aI32
aI34
aI37
aI51
aI71
aI73
aa(lp180
I1
aI3
aI5
aI6
aI8
aI11
aI13
aI14
aI16
aI18
aI20
aI23
aI24
aI26
aI29
aI30
aI34
aI37
aI39
aI46
aI51
aa(lp181
I1
aI3
aI5
aI6
aI8
aI11
aI13
aI14
aI16
aI20
aI23
aI24
aI26
aI29
aI32
aI37
aI39
aI41
aI51
aI65
aI72
aa(lp182
I1
aI3
aI5
aI6
aI8
aI11
aI13
aI14
aI16
aI18
aI20
aI23
aI24
aI26
aI29
aI30
aI32
aI34
aI37
aI39
aI41
aI51
aa(lp183
I1
aI3
aI5
aI6
aI8
aI11
aI13
aI14
aI16
aI18
aI20
aI23
aI24
aI26
aI29
aI30
aI33
aI34
aI39
aI41
aI51
aa(lp184
I25
aI30
aa(lp185
I1
aI3
aI5
aI6
aI8
aI11
aI13
aI14
aI16
aI18
aI20
aI23
aI24
aI29
aI30
aI32
aI34
aI36
aI39
aI41
aI51
aa(lp186
I1
aI3
aI5
aI8
aI11
aI13
aI14
aI16
aI18
aI20
aI23
aI24
aI26
aI29
aI30
aI34
aI36
aI38
aI41
aI51
aI63
aa(lp187
I1
aI3
aI5
aI6
aI8
aI11
aI13
aI14
aI16
aI18
aI20
aI23
aI24
aI26
aI29
aI30
aI33
aI34
aI38
aI41
aI51
aa(lp188
I1
aI3
aI5
aI6
aI8
aI11
aI13
aI14
aI16
aI18
aI20
aI23
aI24
aI26
aI29
aI30
aI32
aI34
aI36
aI38
aI51
aa(lp189
I30
aI33
aa(lp190
I30
aI36
aa(lp191
I30
aa(lp192
I1
aI3
aI5
aI6
aI8
aI11
aI13
aI14
aI16
aI18
aI20
aI23
aI24
aI26
aI29
aI31
aI32
aI34
aI37
aI39
aI61
aa(lp193
I39
aa(lp194
I1
aI3
aI5
aI6
aI8
aI11
aI13
aI14
aI16
aI18
aI20
aI23
aI24
aI26
aI29
aI31
aI32
aI34
aI37
aI38
aI41
aa(lp195
I1
aI3
aI6
aI11
aI13
aI14
aI16
aI18
aI20
aI23
aI24
aI26
aI28
aI31
aI32
aI34
aI37
aI38
aI41
aI60
aI64
aa(lp196
I1
aI3
aI5
aI8
aI11
aI13
aI14
aI16
aI18
aI20
aI23
aI24
aI26
aI28
aI31
aI32
aI34
aI37
aI38
aI41
aI77
aa(lp197
I1
aI3
aI5
aI6
aI8
aI11
aI13
aI16
aI18
aI20
aI23
aI24
aI26
aI28
aI31
aI32
aI34
aI37
aI38
aI41
aI59
aa(lp198
I1
aI3
aI5
aI6
aI8
aI11
aI13
aI14
aI18
aI20
aI23
aI24
aI26
aI28
aI31
aI32
aI34
aI37
aI38
aI41
aI47
aa(lp199
I3
aI5
aI6
aI8
aI11
aI13
aI14
aI16
aI18
aI20
aI23
aI24
aI26
aI28
aI31
aI32
aI37
aI38
aI41
aI46
aI60
aa(lp200
I1
aI3
aI5
aI8
aI11
aI13
aI14
aI16
aI18
aI20
aI23
aI24
aI28
aI31
aI32
aI37
aI38
aI41
aI46
aI62
aI72
aa(lp201
I1
aI3
aI5
aI6
aI8
aI11
aI13
aI14
aI18
aI23
aI24
aI26
aI28
aI31
aI32
aI34
aI37
aI38
aI41
aI61
aI63
aa(lp202
I28
aa(lp203
I1
aI3
aI5
aI6
aI8
aI11
aI13
aI14
aI16
aI18
aI23
aI24
aI29
aI31
aI33
aI34
aI37
aI38
aI41
aI61
aI73
aa(lp204
I3
aI5
aI6
aI8
aI11
aI14
aI18
aI20
aI23
aI24
aI26
aI29
aI31
aI33
aI34
aI37
aI38
aI41
aI46
aI58
aI60
aa(lp205
I1
aI3
aI5
aI6
aI8
aI11
aI13
aI16
aI18
aI20
aI23
aI24
aI26
aI29
aI31
aI33
aI34
aI37
aI41
aI59
aI73
aa(lp206
I1
aI3
aI5
aI6
aI8
aI11
aI13
aI14
aI16
aI18
aI20
aI23
aI24
aI26
aI29
aI31
aI33
aI34
aI41
aI47
aI73
aa(lp207
I1
aI3
aI5
aI6
aI8
aI11
aI13
aI14
aI16
aI18
aI20
aI23
aI24
aI29
aI31
aI33
aI34
aI37
aI38
aI41
aI46
aa(lp208
I1
aI3
aI6
aI8
aI11
aI13
aI14
aI16
aI18
aI20
aI23
aI24
aI26
aI29
aI31
aI33
aI34
aI37
aI38
aI41
aI76
aa(lp209
I3
aI5
aI6
aI8
aI11
aI13
aI14
aI16
aI18
aI20
aI23
aI24
aI26
aI29
aI31
aI33
aI34
aI37
aI38
aI41
aI65
aa(lp210
I1
aI3
aI6
aI8
aI11
aI13
aI14
aI16
aI18
aI20
aI23
aI24
aI26
aI29
aI31
aI33
aI34
aI37
aI38
aI41
aI43
aa(lp211
I1
aI3
aI5
aI6
aI8
aI11
aI13
aI14
aI16
aI18
aI20
aI23
aI24
aI26
aI29
aI31
aI33
aI34
aI37
aI38
aI41
aa(lp212
I1
aI3
aI4
aI6
aI8
aI11
aI14
aI16
aI18
aI20
aI23
aI26
aI29
aI31
aI34
aI37
aI38
aI41
aI42
aI53
aI64
aa(lp213
I1
aI3
aI4
aI6
aI8
aI11
aI14
aI16
aI18
aI20
aI24
aI26
aI29
aI31
aI33
aI34
aI37
aI38
aI41
aI71
aI72
aI77
aa(lp214
I1
aI3
aI4
aI8
aI11
aI13
aI14
aI16
aI18
aI20
aI24
aI26
aI29
aI31
aI33
aI38
aI41
aI42
aI53
aI71
aI77
aa(lp215
I3
aI4
aI6
aI8
aI11
aI13
aI16
aI18
aI20
aI23
aI26
aI29
aI33
aI34
aI37
aI41
aI45
aI47
aI52
aI60
aI73
aI77
aa(lp216
I1
aI4
aI6
aI8
aI11
aI13
aI14
aI16
aI18
aI23
aI24
aI26
aI29
aI31
aI33
aI34
aI37
aI38
aI41
aI44
aI73
aa(lp217
I1
aI3
aI4
aI6
aI8
aI11
aI13
aI14
aI16
aI18
aI23
aI26
aI29
aI31
aI34
aI38
aI41
aI42
aI47
aI59
aI61
aa(lp218
I1
aI4
aI6
aI8
aI11
aI13
aI14
aI16
aI18
aI23
aI26
aI29
aI34
aI37
aI38
aI41
aI42
aI52
aI58
aI61
aI77
aI79
aa(lp219
I1
aI4
aI8
aI11
aI13
aI14
aI16
aI18
aI20
aI23
aI24
aI26
aI29
aI33
aI34
aI37
aI38
aI41
aI42
aI52
aI61
aa(lp220
I1
aI3
aI4
aI8
aI11
aI13
aI16
aI18
aI20
aI23
aI24
aI26
aI29
aI31
aI37
aI38
aI46
aI52
aI73
aI77
aI78
aa(lp221
I4
aI37
aa(lp222
I3
aI5
aI6
aI8
aI11
aI13
aI14
aI16
aI18
aI20
aI23
aI24
aI27
aI29
aI33
aI34
aI37
aI38
aI52
aI71
aI77
aa(lp223
I1
aI3
aI8
aI11
aI13
aI14
aI16
aI18
aI20
aI23
aI24
aI27
aI29
aI33
aI34
aI37
aI38
aI41
aI42
aI52
aI79
aa(lp224
I1
aI3
aI5
aI6
aI8
aI11
aI13
aI14
aI16
aI18
aI20
aI23
aI24
aI27
aI29
aI31
aI33
aI34
aI38
aI41
aI47
aa(lp225
I1
aI3
aI5
aI6
aI8
aI11
aI14
aI16
aI18
aI20
aI23
aI27
aI29
aI31
aI32
aI34
aI38
aI41
aI42
aI52
aI71
aa(lp226
I14
aI27
aI29
aa(lp227
I1
aI3
aI4
aI6
aI8
aI11
aI13
aI14
aI16
aI18
aI20
aI23
aI26
aI29
aI31
aI34
aI36
aI38
aI41
aI42
aI78
aa(lp228
I4
aI16
aa(lp229
I1
aI5
aI6
aI8
aI11
aI13
aI14
aI16
aI18
aI20
aI23
aI24
aI26
aI29
aI31
aI34
aI38
aI41
aI42
aI58
aI71
aI73
aa(lp230
I1
aI3
aI5
aI6
aI8
aI11
aI13
aI16
aI18
aI20
aI23
aI24
aI29
aI31
aI32
aI34
aI36
aI38
aI41
aI42
aI59
aI73
aa(lp231
I1
aI3
aI5
aI6
aI8
aI11
aI13
aI14
aI16
aI18
aI20
aI23
aI24
aI29
aI31
aI32
aI34
aI36
aI41
aI58
aI73
aa(lp232
I1
aI3
aI5
aI6
aI8
aI11
aI13
aI16
aI18
aI20
aI23
aI24
aI26
aI29
aI31
aI32
aI34
aI36
aI38
aI41
aI59
aI73
aa(lp233
I1
aI3
aI5
aI6
aI8
aI11
aI13
aI14
aI16
aI20
aI23
aI24
aI26
aI29
aI31
aI32
aI34
aI36
aI38
aI41
aI58
aa(lp234
I3
aI5
aI6
aI8
aI11
aI13
aI14
aI16
aI18
aI20
aI23
aI24
aI26
aI29
aI31
aI32
aI34
aI36
aI38
aI41
aI46
aI76
aa(lp235
I14
aI36
aa(lp236
I1
aI3
aI6
aI8
aI11
aI15
aI16
aI18
aI20
aI23
aI25
aI27
aI29
aI31
aI32
aI34
aI36
aI38
aI59
aI60
aI79
aa(lp237
I1
aI3
aI5
aI6
aI11
aI13
aI16
aI20
aI23
aI25
aI27
aI31
aI34
aI36
aI38
aI47
aI50
aI59
aI60
aI69
aI72
aa(lp238
I25
aI29
aa(lp239
I27
aa(lp240
I1
aI3
aI6
aI8
aI11
aI13
aI15
aI20
aI23
aI26
aI29
aI31
aI32
aI34
aI36
aI38
aI41
aI47
aI68
aI76
aI78
aa(lp241
I1
aI3
aI5
aI6
aI8
aI11
aI13
aI15
aI16
aI18
aI20
aI23
aI24
aI26
aI29
aI31
aI32
aI34
aI36
aI38
aI41
aI78
aa(lp242
I1
aI3
aI5
aI6
aI8
aI11
aI13
aI15
aI16
aI18
aI20
aI23
aI24
aI26
aI29
aI31
aI32
aI34
aI36
aI38
aI41
aI76
aa(lp243
I3
aI5
aI6
aI8
aI11
aI13
aI15
aI16
aI18
aI20
aI23
aI24
aI26
aI29
aI31
aI32
aI34
aI36
aI38
aI41
aI65
aa(lp244
I1
aI3
aI5
aI6
aI8
aI11
aI13
aI15
aI16
aI18
aI20
aI23
aI24
aI26
aI29
aI31
aI32
aI34
aI36
aI38
aI41
aa(lp245
I1
aI3
aI5
aI6
aI8
aI11
aI13
aI15
aI16
aI18
aI20
aI23
aI24
aI26
aI29
aI31
aI33
aI34
aI36
aI38
aI41
aa(lp246
I1
aI3
aI5
aI6
aI8
aI11
aI13
aI15
aI16
aI18
aI20
aI23
aI24
aI26
aI29
aI31
aI33
aI34
aI37
aI38
aI41
aa(lp247
I1
aI3
aI5
aI6
aI8
aI11
aI13
aI15
aI16
aI18
aI20
aI23
aI24
aI26
aI29
aI31
aI32
aI34
aI37
aI38
aI41
aa(lp248
I1
aI3
aI5
aI6
aI8
aI11
aI13
aI15
aI16
aI18
aI20
aI23
aI24
aI26
aI29
aI31
aI33
aI34
aI36
aI38
aI43
aI64
aa(lp249
I1
aI3
aI5
aI6
aI8
aI11
aI15
aI16
aI18
aI20
aI23
aI24
aI26
aI29
aI31
aI33
aI34
aI36
aI38
aI43
aI77
aa(lp250
I1
aI3
aI5
aI6
aI8
aI11
aI13
aI16
aI18
aI20
aI23
aI24
aI26
aI29
aI31
aI33
aI34
aI36
aI38
aI43
aI59
aa(lp251
I1
aI33
aI36
aa(lp252
I1
aI3
aI5
aI6
aI8
aI11
aI13
aI15
aI16
aI18
aI20
aI23
aI24
aI26
aI29
aI32
aI34
aI36
aI38
aI42
aI76
aa(lp253
I1
aI3
aI5
aI6
aI8
aI11
aI13
aI15
aI16
aI18
aI20
aI23
aI24
aI26
aI29
aI31
aI32
aI34
aI36
aI38
aI42
aa(lp254
I1
aI36
aa(lp255
I1
aI15
aa(lp256
I1
aI3
aI5
aI6
aI8
aI11
aI13
aI14
aI16
aI18
aI20
aI23
aI24
aI26
aI29
aI31
aI32
aI34
aI37
aI38
aI68
aa(lp257
I1
aI3
aI5
aI6
aI8
aI11
aI13
aI14
aI16
aI18
aI20
aI23
aI24
aI26
aI29
aI31
aI32
aI34
aI37
aI38
aI43
aI76
aa(lp258
I1
aI5
aI8
aI11
aI13
aI14
aI16
aI18
aI20
aI23
aI24
aI26
aI29
aI31
aI32
aI34
aI37
aI38
aI40
aI44
aI53
aI65
aa(lp259
I1
aI3
aI5
aI6
aI8
aI13
aI16
aI18
aI20
aI23
aI24
aI26
aI29
aI31
aI32
aI34
aI37
aI38
aI40
aI44
aI53
aI62
aa(lp260
I1
aI3
aI5
aI6
aI8
aI11
aI13
aI14
aI16
aI18
aI20
aI24
aI26
aI29
aI31
aI32
aI34
aI37
aI38
aI43
aI64
aI78
aa(lp261
I1
aI3
aI5
aI6
aI8
aI11
aI13
aI16
aI18
aI20
aI23
aI24
aI26
aI29
aI31
aI32
aI34
aI37
aI38
aI71
aI77
aI78
aa(lp262
I1
aI3
aI5
aI6
aI8
aI11
aI13
aI14
aI16
aI18
aI20
aI23
aI24
aI26
aI29
aI31
aI32
aI34
aI37
aI38
aI52
aa(lp263
I1
aI3
aI5
aI6
aI8
aI11
aI13
aI14
aI18
aI23
aI24
aI26
aI29
aI31
aI32
aI34
aI37
aI38
aI57
aI59
aI60
aI79
aa(lp264
I1
aI3
aI5
aI6
aI8
aI11
aI13
aI14
aI16
aI18
aI20
aI23
aI24
aI29
aI31
aI32
aI34
aI37
aI38
aI54
aI77
aa(lp265
I1
aI3
aI5
aI6
aI8
aI11
aI13
aI14
aI16
aI18
aI20
aI23
aI24
aI26
aI29
aI31
aI32
aI34
aI37
aI63
aI65
aa(lp266
I1
aI3
aI5
aI6
aI8
aI11
aI13
aI14
aI16
aI18
aI20
aI23
aI24
aI29
aI31
aI32
aI34
aI37
aI38
aI40
aI63
aa(lp267
I3
aI5
aI6
aI8
aI11
aI13
aI14
aI16
aI18
aI20
aI23
aI24
aI26
aI29
aI31
aI32
aI34
aI37
aI38
aI40
aI61
aa(lp268
I1
aI3
aI5
aI6
aI8
aI11
aI13
aI14
aI16
aI18
aI20
aI23
aI24
aI29
aI31
aI32
aI34
aI37
aI38
aI42
aI64
aa(lp269
I1
aI3
aI5
aI6
aI8
aI11
aI13
aI14
aI16
aI18
aI20
aI23
aI24
aI26
aI29
aI31
aI32
aI34
aI37
aI38
aI42
aa(lp270
I1
aI3
aI5
aI6
aI8
aI11
aI13
aI14
aI16
aI18
aI20
aI23
aI24
aI26
aI29
aI31
aI32
aI34
aI37
aI38
aI58
aI77
aa(lp271
I1
aI3
aI11
aI13
aI14
aI16
aI20
aI23
aI24
aI26
aI29
aI31
aI32
aI34
aI38
aI59
aI60
aI71
aI72
aI74
aI79
aa(lp272
I1
aI3
aI5
aI6
aI8
aI11
aI13
aI14
aI16
aI18
aI20
aI23
aI26
aI29
aI31
aI32
aI34
aI37
aI38
aI70
aI77
aI78
aa(lp273
I3
aI5
aI6
aI8
aI11
aI13
aI14
aI16
aI18
aI20
aI23
aI24
aI26
aI29
aI31
aI32
aI34
aI37
aI38
aI43
aI70
aI77
aa(lp274
I1
aI3
aI5
aI6
aI8
aI11
aI13
aI14
aI16
aI18
aI20
aI23
aI24
aI26
aI29
aI31
aI32
aI34
aI37
aI38
aI46
aI77
aa(lp275
I1
aI3
aI5
aI6
aI8
aI11
aI13
aI14
aI16
aI18
aI20
aI23
aI26
aI29
aI31
aI34
aI37
aI38
aI59
aI73
aI77
aa(lp276
I1
aI3
aI5
aI8
aI11
aI13
aI14
aI16
aI18
aI20
aI23
aI24
aI26
aI29
aI31
aI32
aI34
aI37
aI38
aI51
aI65
aI71
aa(lp277
I3
aI5
aI8
aI11
aI13
aI14
aI16
aI18
aI20
aI23
aI24
aI26
aI29
aI31
aI32
aI34
aI37
aI38
aI51
aI62
aI64
aa(lp278
I1
aI3
aI5
aI6
aI8
aI11
aI13
aI16
aI18
aI24
aI29
aI33
aI34
aI38
aI43
aI52
aI54
aI63
aI69
aI71
aI79
aa(lp279
I1
aI3
aI6
aI8
aI11
aI13
aI16
aI20
aI23
aI24
aI26
aI29
aI31
aI33
aI34
aI37
aI38
aI43
aI52
aI54
aI63
aI68
aa(lp280
I1
aI3
aI6
aI8
aI11
aI13
aI16
aI18
aI20
aI24
aI29
aI31
aI33
aI34
aI37
aI38
aI54
aI63
aI69
aI71
aI75
aa(lp281
I1
aI3
aI6
aI8
aI11
aI13
aI16
aI18
aI20
aI23
aI24
aI26
aI29
aI31
aI33
aI34
aI37
aI38
aI46
aI54
aI63
aI71
aa(lp282
I1
aI3
aI6
aI8
aI13
aI14
aI16
aI18
aI20
aI24
aI26
aI29
aI31
aI33
aI34
aI37
aI38
aI43
aI58
aI63
aI68
aa(lp283
I1
aI3
aI6
aI8
aI11
aI13
aI14
aI16
aI18
aI20
aI23
aI24
aI29
aI31
aI33
aI34
aI37
aI38
aI46
aI58
aI63
aI71
aa(lp284
I1
aI3
aI6
aI8
aI11
aI13
aI14
aI16
aI18
aI20
aI23
aI24
aI26
aI29
aI31
aI33
aI34
aI37
aI38
aI43
aI46
aa(lp285
I1
aI3
aI5
aI6
aI8
aI11
aI13
aI14
aI16
aI18
aI20
aI23
aI24
aI26
aI29
aI31
aI33
aI34
aI37
aI38
aI46
aa(lp286
I1
aI33
aa(lp287
I3
aI5
aI7
aI8
aI11
aI14
aI16
aI18
aI20
aI23
aI24
aI29
aI31
aI32
aI34
aI37
aI38
aI47
aI58
aI65
aI69
aa(lp288
I3
aI5
aI7
aI8
aI11
aI13
aI14
aI16
aI18
aI20
aI23
aI24
aI26
aI29
aI31
aI32
aI34
aI38
aI47
aI58
aI76
aa(lp289
I1
aI3
aI5
aI7
aI8
aI11
aI13
aI16
aI18
aI20
aI23
aI24
aI26
aI29
aI31
aI32
aI34
aI37
aI38
aI47
aI58
aa(lp290
I3
aI5
aI7
aI8
aI11
aI13
aI14
aI16
aI18
aI20
aI23
aI24
aI26
aI29
aI31
aI32
aI34
aI37
aI40
aI42
aI62
aa(lp291
I7
aa(lp292
I21
aa(lp293
I0
aI3
aI5
aI6
aI8
aI11
aI13
aI14
aI16
aI18
aI20
aI23
aI24
aI26
aI29
aI31
aI33
aI34
aI37
aI38
aI63
aa(lp294
I0
aI3
aI5
aI6
aI8
aI11
aI13
aI14
aI16
aI18
aI20
aI23
aI24
aI26
aI29
aI31
aI33
aI34
aI37
aI38
aI77
aa(lp295
I0
aI5
aI6
aI8
aI11
aI13
aI14
aI16
aI18
aI20
aI23
aI24
aI26
aI29
aI31
aI33
aI34
aI37
aI38
aI64
aI71
aa(lp296
I14
aI33
aa(lp297
I0
aI3
aI6
aI8
aI11
aI13
aI15
aI16
aI18
aI20
aI23
aI24
aI26
aI29
aI31
aI33
aI34
aI37
aI38
aI59
aI71
aa(lp298
I0
aI3
aI5
aI6
aI8
aI11
aI13
aI15
aI16
aI18
aI20
aI23
aI24
aI26
aI29
aI31
aI33
aI34
aI37
aI38
aI71
aa(lp299
I33
aI37
aa(lp300
I0
aI3
aI5
aI6
aI8
aI13
aI15
aI16
aI18
aI20
aI23
aI24
aI26
aI29
aI31
aI32
aI34
aI37
aI38
aI58
aI64
aa(lp301
I0
aI3
aI5
aI8
aI11
aI13
aI15
aI18
aI20
aI23
aI24
aI26
aI29
aI31
aI34
aI37
aI38
aI42
aI58
aI68
aI76
aa(lp302
I3
aI5
aI6
aI8
aI11
aI13
aI15
aI16
aI20
aI29
aI31
aI34
aI37
aI38
aI42
aI47
aI48
aI55
aI69
aI72
aI75
aa(lp303
I0
aI3
aI5
aI6
aI8
aI11
aI13
aI15
aI16
aI18
aI20
aI23
aI24
aI26
aI29
aI31
aI32
aI34
aI38
aI44
aI58
aI70
aa(lp304
I0
aI3
aI5
aI6
aI8
aI11
aI13
aI15
aI16
aI20
aI23
aI24
aI29
aI31
aI32
aI34
aI37
aI38
aI52
aI58
aI70
aa(lp305
I0
aI5
aI6
aI8
aI11
aI13
aI16
aI18
aI20
aI23
aI24
aI26
aI29
aI31
aI32
aI34
aI38
aI47
aI57
aI72
aI75
aa(lp306
I0
aI3
aI5
aI8
aI11
aI13
aI15
aI16
aI18
aI20
aI23
aI26
aI29
aI31
aI32
aI34
aI37
aI38
aI47
aI54
aI79
aa(lp307
I0
aI3
aI5
aI6
aI8
aI11
aI13
aI15
aI16
aI18
aI20
aI23
aI24
aI26
aI29
aI31
aI32
aI34
aI37
aI38
aI63
aI70
aa(lp308
I0
aI3
aI5
aI6
aI8
aI13
aI15
aI16
aI18
aI20
aI23
aI24
aI29
aI31
aI32
aI34
aI37
aI38
aI47
aI61
aI70
aa(lp309
I0
aI3
aI5
aI6
aI8
aI11
aI13
aI15
aI16
aI18
aI20
aI23
aI24
aI29
aI31
aI32
aI34
aI37
aI47
aI74
aI79
aa(lp310
I0
aI3
aI5
aI6
aI8
aI11
aI13
aI16
aI18
aI20
aI23
aI24
aI26
aI29
aI31
aI32
aI34
aI37
aI38
aI58
aI70
aI77
aa(lp311
I0
aI3
aI5
aI6
aI8
aI11
aI13
aI15
aI16
aI18
aI20
aI23
aI24
aI29
aI31
aI32
aI34
aI37
aI38
aI47
aI54
aa(lp312
I0
aI3
aI5
aI6
aI8
aI11
aI13
aI15
aI16
aI18
aI20
aI23
aI24
aI29
aI31
aI32
aI34
aI37
aI38
aI47
aI78
aa(lp313
I0
aI3
aI5
aI6
aI8
aI11
aI13
aI15
aI16
aI18
aI20
aI23
aI24
aI26
aI29
aI31
aI32
aI34
aI37
aI38
aI43
aI70
aa(lp314
I0
aI3
aI5
aI6
aI8
aI11
aI13
aI15
aI16
aI18
aI20
aI23
aI24
aI26
aI29
aI31
aI32
aI34
aI37
aI38
aI59
aI70
aa(lp315
I0
aI3
aI5
aI6
aI8
aI11
aI13
aI15
aI16
aI18
aI20
aI23
aI24
aI26
aI29
aI31
aI32
aI34
aI37
aI38
aI43
aI58
aa(lp316
I0
aI3
aI5
aI6
aI8
aI11
aI15
aI16
aI18
aI20
aI23
aI24
aI26
aI29
aI31
aI32
aI34
aI37
aI38
aI52
aI58
aa(lp317
I0
aI3
aI5
aI6
aI8
aI11
aI13
aI15
aI16
aI18
aI20
aI23
aI24
aI26
aI29
aI31
aI32
aI37
aI38
aI42
aI58
aI63
aa(lp318
I0
aI3
aI5
aI6
aI8
aI11
aI13
aI15
aI16
aI18
aI20
aI23
aI24
aI26
aI29
aI31
aI34
aI37
aI38
aI42
aI58
aI61
aa(lp319
I0
aI3
aI5
aI6
aI8
aI11
aI13
aI15
aI16
aI18
aI20
aI23
aI24
aI26
aI29
aI31
aI32
aI34
aI37
aI38
aI58
aI77
aa(lp320
I0
aI3
aI5
aI6
aI8
aI11
aI15
aI16
aI18
aI20
aI23
aI24
aI29
aI31
aI32
aI34
aI37
aI38
aI52
aI63
aI76
aa(lp321
I3
aI5
aI6
aI8
aI11
aI13
aI15
aI16
aI18
aI20
aI23
aI24
aI26
aI29
aI31
aI32
aI34
aI37
aI38
aI63
aI64
aI76
aa(lp322
I0
aI3
aI5
aI6
aI8
aI11
aI13
aI15
aI16
aI18
aI20
aI23
aI24
aI26
aI29
aI31
aI32
aI34
aI37
aI38
aI63
aI76
aa(lp323
I0
aI3
aI5
aI6
aI8
aI11
aI13
aI15
aI16
aI18
aI20
aI23
aI24
aI26
aI29
aI31
aI32
aI34
aI37
aI38
aI43
aI76
aa(lp324
I0
aI3
aI5
aI6
aI8
aI11
aI13
aI15
aI18
aI20
aI23
aI24
aI26
aI29
aI31
aI32
aI34
aI37
aI38
aI40
aI68
aa(lp325
I0
aI3
aI5
aI6
aI8
aI11
aI13
aI16
aI18
aI20
aI24
aI26
aI29
aI31
aI32
aI37
aI38
aI48
aI71
aI72
aI77
aa(lp326
I0
aI3
aI5
aI6
aI11
aI13
aI15
aI18
aI20
aI23
aI24
aI26
aI29
aI31
aI32
aI34
aI37
aI38
aI40
aI44
aI62
aI65
aa(lp327
I0
aI3
aI5
aI6
aI8
aI13
aI15
aI16
aI18
aI20
aI23
aI24
aI26
aI29
aI31
aI32
aI34
aI37
aI40
aI52
aI77
aa(lp328
I0
aI3
aI5
aI6
aI8
aI11
aI13
aI15
aI16
aI18
aI20
aI24
aI26
aI31
aI32
aI34
aI37
aI38
aI40
aI63
aI65
aa(lp329
I0
aI3
aI5
aI6
aI8
aI11
aI13
aI15
aI16
aI18
aI20
aI23
aI24
aI26
aI29
aI31
aI32
aI34
aI38
aI40
aI61
aa(lp330
I0
aI3
aI5
aI8
aI11
aI13
aI18
aI20
aI23
aI29
aI31
aI34
aI37
aI38
aI40
aI46
aI54
aI72
aI75
aI77
aI78
aa(lp331
I0
aI3
aI5
aI6
aI8
aI11
aI15
aI16
aI18
aI20
aI24
aI26
aI29
aI31
aI32
aI37
aI38
aI40
aI46
aI77
aI78
aa(lp332
I0
aI5
aI6
aI8
aI11
aI13
aI15
aI16
aI18
aI20
aI23
aI24
aI26
aI29
aI31
aI32
aI34
aI37
aI38
aI46
aI77
aa(lp333
I0
aI3
aI5
aI6
aI11
aI13
aI15
aI16
aI18
aI23
aI24
aI26
aI29
aI31
aI32
aI34
aI37
aI38
aI42
aI46
aI59
aa(lp334
I0
aI3
aI5
aI6
aI8
aI11
aI13
aI15
aI16
aI18
aI20
aI23
aI24
aI26
aI29
aI31
aI32
aI34
aI37
aI46
aI71
aa(lp335
I0
aI3
aI5
aI6
aI8
aI11
aI13
aI15
aI16
aI18
aI20
aI23
aI24
aI26
aI29
aI31
aI32
aI34
aI37
aI38
aI46
aa(lp336
I0
aI3
aI5
aI6
aI8
aI11
aI13
aI15
aI18
aI20
aI23
aI24
aI26
aI29
aI31
aI32
aI34
aI37
aI38
aI47
aI73
aa(lp337
I0
aI3
aI5
aI6
aI8
aI11
aI13
aI15
aI23
aI24
aI29
aI32
aI34
aI37
aI38
aI42
aI47
aI51
aI60
aI70
aI72
aa(lp338
I3
aI5
aI6
aI8
aI11
aI13
aI15
aI18
aI20
aI23
aI24
aI29
aI31
aI32
aI34
aI37
aI38
aI42
aI47
aI51
aI58
aa(lp339
I3
aI5
aI6
aI8
aI13
aI15
aI23
aI24
aI26
aI29
aI31
aI32
aI34
aI37
aI38
aI42
aI47
aI51
aI60
aI76
aI79
aa(lp340
I0
aI3
aI5
aI6
aI8
aI11
aI13
aI15
aI16
aI18
aI20
aI23
aI24
aI29
aI31
aI32
aI34
aI37
aI38
aI51
aI77
aa(lp341
I0
aI5
aI6
aI8
aI11
aI13
aI15
aI16
aI20
aI23
aI24
aI26
aI29
aI31
aI32
aI34
aI37
aI38
aI52
aI63
aI65
aa(lp342
I0
aI3
aI5
aI6
aI8
aI11
aI13
aI15
aI16
aI18
aI20
aI23
aI24
aI29
aI31
aI32
aI34
aI37
aI38
aI63
aI65
aa(lp343
I0
aI3
aI5
aI6
aI8
aI11
aI15
aI16
aI18
aI20
aI23
aI24
aI26
aI29
aI31
aI32
aI34
aI37
aI38
aI41
aI65
aa(lp344
I0
aI3
aI5
aI6
aI11
aI14
aI16
aI18
aI24
aI29
aI31
aI32
aI34
aI37
aI38
aI43
aI54
aI62
aI64
aI69
aI77
aa(lp345
I0
aI3
aI8
aI11
aI13
aI14
aI16
aI18
aI20
aI23
aI29
aI32
aI34
aI38
aI47
aI53
aI54
aI62
aI69
aI71
aI72
aI77
aa(lp346
I0
aI3
aI6
aI11
aI13
aI14
aI16
aI18
aI20
aI23
aI24
aI26
aI29
aI31
aI32
aI38
aI59
aI62
aI69
aI72
aI74
aa(lp347
I0
aI5
aI6
aI8
aI11
aI13
aI16
aI18
aI20
aI23
aI24
aI26
aI29
aI31
aI32
aI34
aI37
aI38
aI40
aI44
aI53
aI65
aa(lp348
I0
aI3
aI5
aI6
aI8
aI11
aI13
aI18
aI20
aI23
aI24
aI26
aI29
aI31
aI32
aI34
aI37
aI38
aI40
aI44
aI53
aI62
aa(lp349
I0
aI3
aI5
aI6
aI8
aI11
aI13
aI14
aI16
aI18
aI20
aI23
aI24
aI26
aI29
aI31
aI32
aI34
aI37
aI38
aI52
aa(lp350
I0
aI3
aI5
aI6
aI11
aI13
aI14
aI16
aI18
aI20
aI24
aI26
aI29
aI31
aI32
aI34
aI37
aI38
aI43
aI64
aI77
aI78
aa(lp351
I0
aI3
aI5
aI6
aI8
aI11
aI13
aI14
aI16
aI18
aI20
aI23
aI24
aI26
aI29
aI31
aI32
aI34
aI37
aI38
aI77
aI78
aa(lp352
I0
aI3
aI5
aI6
aI8
aI11
aI13
aI14
aI16
aI18
aI20
aI23
aI24
aI26
aI29
aI31
aI32
aI34
aI37
aI38
aI63
aI65
aa(lp353
I0
aI3
aI5
aI6
aI8
aI11
aI13
aI14
aI16
aI18
aI23
aI24
aI26
aI29
aI31
aI32
aI34
aI37
aI38
aI40
aI63
aa(lp354
I0
aI3
aI5
aI6
aI8
aI11
aI13
aI14
aI16
aI18
aI20
aI23
aI24
aI26
aI29
aI31
aI32
aI34
aI37
aI43
aI64
aI78
aa(lp355
I0
aI3
aI5
aI6
aI8
aI11
aI13
aI14
aI16
aI20
aI23
aI24
aI26
aI29
aI31
aI32
aI34
aI37
aI38
aI59
aI78
aa(lp356
I0
aI3
aI5
aI6
aI8
aI11
aI13
aI14
aI16
aI18
aI20
aI23
aI24
aI26
aI29
aI31
aI32
aI34
aI37
aI38
aI43
aI76
aa(lp357
I0
aI3
aI5
aI6
aI8
aI11
aI13
aI14
aI16
aI18
aI20
aI23
aI24
aI26
aI29
aI31
aI32
aI34
aI37
aI38
aI58
aI77
aa(lp358
I0
aI3
aI5
aI6
aI8
aI11
aI13
aI14
aI16
aI18
aI20
aI23
aI24
aI26
aI29
aI31
aI32
aI34
aI37
aI38
aI58
aa(lp359
I3
aI5
aI11
aI13
aI14
aI16
aI18
aI20
aI23
aI24
aI26
aI29
aI32
aI34
aI37
aI42
aI53
aI54
aI59
aI69
aI71
aa(lp360
I0
aI3
aI5
aI6
aI8
aI11
aI13
aI14
aI16
aI18
aI20
aI23
aI24
aI26
aI29
aI31
aI32
aI34
aI37
aI38
aI64
aI76
aa(lp361
I0
aI3
aI5
aI8
aI11
aI13
aI16
aI18
aI20
aI23
aI24
aI29
aI31
aI32
aI34
aI37
aI38
aI42
aI53
aI54
aI59
aa(lp362
I0
aI3
aI5
aI6
aI8
aI11
aI13
aI14
aI16
aI18
aI20
aI23
aI24
aI26
aI29
aI31
aI32
aI34
aI37
aI38
aI70
aa(lp363
I3
aI5
aI6
aI8
aI11
aI13
aI14
aI16
aI18
aI20
aI23
aI24
aI26
aI29
aI31
aI32
aI34
aI37
aI38
aI43
aI46
aI64
aa(lp364
I0
aI3
aI5
aI6
aI8
aI11
aI13
aI14
aI16
aI18
aI20
aI23
aI24
aI26
aI29
aI31
aI32
aI34
aI37
aI38
aI46
aI77
aa(lp365
I0
aI3
aI5
aI6
aI11
aI13
aI14
aI16
aI18
aI20
aI23
aI24
aI26
aI29
aI31
aI32
aI34
aI37
aI38
aI42
aI46
aI59
aa(lp366
I0
aI3
aI5
aI6
aI8
aI11
aI13
aI14
aI16
aI18
aI20
aI23
aI26
aI31
aI32
aI37
aI38
aI47
aI53
aI66
aI79
aa(lp367
I0
aI3
aI5
aI6
aI8
aI13
aI14
aI16
aI18
aI20
aI23
aI29
aI31
aI32
aI34
aI37
aI38
aI43
aI47
aI73
aI79
aa(lp368
I0
aI3
aI5
aI6
aI8
aI11
aI13
aI14
aI16
aI18
aI20
aI23
aI24
aI26
aI29
aI31
aI32
aI37
aI38
aI43
aI51
aa(lp369
I0
aI3
aI5
aI6
aI8
aI11
aI13
aI14
aI16
aI18
aI20
aI23
aI24
aI29
aI31
aI34
aI37
aI38
aI59
aI73
aI77
aa(lp370
I0
aI3
aI5
aI6
aI8
aI11
aI13
aI16
aI18
aI20
aI23
aI24
aI26
aI29
aI31
aI32
aI34
aI37
aI38
aI42
aI59
aI71
aI73
aa(lp371
I0
aI5
aI6
aI8
aI11
aI13
aI14
aI16
aI18
aI20
aI23
aI24
aI26
aI29
aI31
aI32
aI34
aI37
aI51
aI71
aI76
aI79
aa(lp372
I0
aI3
aI5
aI8
aI13
aI14
aI16
aI18
aI20
aI23
aI24
aI26
aI29
aI31
aI32
aI34
aI37
aI38
aI51
aI65
aI71
aa(lp373
I0
aI3
aI5
aI6
aI8
aI11
aI13
aI14
aI16
aI18
aI20
aI23
aI24
aI26
aI29
aI31
aI32
aI34
aI37
aI38
aI41
aa(lp374
I0
aI3
aI5
aI8
aI11
aI13
aI15
aI16
aI18
aI20
aI23
aI24
aI26
aI29
aI31
aI33
aI34
aI36
aI38
aI43
aI64
aa(lp375
I0
aI3
aI5
aI6
aI8
aI11
aI15
aI16
aI18
aI20
aI23
aI24
aI26
aI29
aI31
aI33
aI34
aI36
aI38
aI43
aI77
aa(lp376
I0
aI3
aI5
aI6
aI8
aI11
aI13
aI16
aI18
aI20
aI23
aI24
aI26
aI29
aI31
aI33
aI34
aI36
aI38
aI43
aI59
aa(lp377
I0
aI3
aI5
aI6
aI8
aI11
aI13
aI15
aI16
aI18
aI20
aI23
aI24
aI26
aI29
aI31
aI33
aI34
aI36
aI38
aI43
aa(lp378
I0
aI3
aI5
aI6
aI8
aI11
aI13
aI15
aI16
aI18
aI20
aI23
aI24
aI26
aI29
aI31
aI33
aI34
aI36
aI38
aI71
aa(lp379
I0
aI3
aI5
aI6
aI8
aI11
aI13
aI15
aI16
aI20
aI23
aI24
aI26
aI29
aI31
aI33
aI34
aI38
aI47
aI57
aI72
aa(lp380
I0
aI3
aI5
aI6
aI8
aI11
aI13
aI15
aI16
aI18
aI20
aI23
aI24
aI26
aI29
aI31
aI33
aI34
aI36
aI38
aI47
aI68
aa(lp381
I0
aI3
aI5
aI6
aI8
aI11
aI13
aI15
aI20
aI23
aI26
aI29
aI31
aI33
aI34
aI38
aI47
aI48
aI55
aI62
aI69
aI72
aa(lp382
I0
aI3
aI5
aI6
aI8
aI11
aI13
aI15
aI16
aI18
aI20
aI24
aI26
aI31
aI34
aI36
aI47
aI50
aI54
aI66
aI79
aa(lp383
I0
aI3
aI5
aI6
aI8
aI11
aI13
aI16
aI18
aI20
aI23
aI26
aI29
aI31
aI33
aI34
aI36
aI38
aI47
aI54
aI72
aa(lp384
I0
aI3
aI5
aI6
aI8
aI11
aI13
aI15
aI16
aI18
aI20
aI23
aI24
aI26
aI29
aI31
aI33
aI34
aI36
aI38
aI61
aI70
aa(lp385
I0
aI5
aI8
aI11
aI13
aI15
aI16
aI18
aI20
aI23
aI24
aI26
aI29
aI31
aI33
aI34
aI36
aI38
aI47
aI72
aI74
aa(lp386
I0
aI3
aI5
aI6
aI8
aI11
aI13
aI15
aI16
aI18
aI20
aI23
aI24
aI26
aI29
aI33
aI34
aI36
aI38
aI44
aI53
aI58
aa(lp387
I0
aI3
aI5
aI6
aI8
aI11
aI13
aI15
aI16
aI18
aI20
aI24
aI26
aI29
aI31
aI33
aI34
aI36
aI38
aI47
aI63
aI65
aa(lp388
I0
aI3
aI5
aI6
aI8
aI11
aI13
aI15
aI16
aI18
aI20
aI23
aI24
aI26
aI29
aI31
aI33
aI34
aI36
aI38
aI52
aI58
aa(lp389
I0
aI3
aI5
aI6
aI8
aI11
aI13
aI15
aI16
aI18
aI20
aI23
aI24
aI26
aI29
aI31
aI33
aI34
aI36
aI38
aI58
aI64
aa(lp390
I0
aI3
aI5
aI6
aI8
aI11
aI13
aI15
aI16
aI18
aI20
aI23
aI24
aI26
aI29
aI31
aI33
aI34
aI36
aI38
aI47
aI78
aa(lp391
I0
aI3
aI5
aI6
aI8
aI11
aI13
aI15
aI16
aI18
aI20
aI23
aI24
aI26
aI29
aI31
aI33
aI34
aI36
aI38
aI58
aI77
aa(lp392
I0
aI3
aI5
aI6
aI8
aI11
aI13
aI15
aI16
aI18
aI20
aI23
aI24
aI26
aI29
aI31
aI33
aI34
aI36
aI38
aI52
aa(lp393
I0
aI3
aI5
aI6
aI8
aI13
aI15
aI16
aI18
aI20
aI23
aI24
aI26
aI29
aI31
aI33
aI34
aI36
aI38
aI64
aI70
aa(lp394
I0
aI3
aI5
aI6
aI8
aI11
aI13
aI15
aI16
aI18
aI20
aI23
aI24
aI26
aI29
aI31
aI33
aI34
aI38
aI59
aI70
aa(lp395
I0
aI3
aI5
aI6
aI8
aI11
aI13
aI15
aI16
aI18
aI20
aI23
aI24
aI26
aI29
aI31
aI33
aI34
aI36
aI38
aI68
aI72
aa(lp396
I0
aI3
aI5
aI8
aI11
aI13
aI15
aI16
aI18
aI23
aI24
aI26
aI29
aI31
aI34
aI38
aI48
aI55
aI62
aI69
aI72
aI75
aa(lp397
I0
aI3
aI5
aI6
aI8
aI11
aI13
aI15
aI16
aI18
aI20
aI24
aI26
aI29
aI31
aI33
aI34
aI36
aI38
aI54
aI75
aa(lp398
I0
aI3
aI5
aI6
aI8
aI11
aI13
aI15
aI16
aI18
aI20
aI23
aI26
aI29
aI31
aI33
aI34
aI36
aI38
aI54
aI62
aa(lp399
I0
aI3
aI5
aI6
aI8
aI11
aI13
aI15
aI16
aI18
aI20
aI23
aI24
aI29
aI31
aI33
aI34
aI36
aI38
aI72
aI74
aa(lp400
I0
aI3
aI5
aI6
aI8
aI11
aI13
aI15
aI16
aI18
aI20
aI23
aI24
aI26
aI29
aI31
aI33
aI34
aI36
aI38
aI63
aI75
aa(lp401
I0
aI3
aI5
aI6
aI8
aI11
aI13
aI15
aI16
aI18
aI20
aI23
aI24
aI29
aI31
aI33
aI34
aI36
aI38
aI72
aI78
aa(lp402
I0
aI3
aI5
aI6
aI8
aI11
aI13
aI15
aI18
aI20
aI23
aI24
aI26
aI29
aI31
aI33
aI34
aI36
aI38
aI63
aI68
aa(lp403
I0
aI3
aI5
aI6
aI8
aI11
aI13
aI15
aI16
aI18
aI20
aI23
aI24
aI26
aI29
aI31
aI33
aI34
aI36
aI38
aI63
aa(lp404
I0
aI3
aI5
aI6
aI8
aI11
aI13
aI15
aI16
aI18
aI20
aI23
aI24
aI26
aI29
aI31
aI33
aI34
aI36
aI38
aI78
aa(lp405
I0
aI3
aI5
aI6
aI8
aI11
aI13
aI15
aI16
aI18
aI20
aI23
aI24
aI26
aI29
aI31
aI33
aI34
aI36
aI38
aI74
aa(lp406
I0
aI3
aI5
aI6
aI8
aI11
aI13
aI15
aI16
aI18
aI20
aI23
aI24
aI26
aI29
aI31
aI33
aI34
aI36
aI38
aI73
aa(lp407
I0
aI3
aI5
aI6
aI8
aI11
aI13
aI15
aI16
aI18
aI20
aI23
aI24
aI26
aI29
aI31
aI33
aI34
aI36
aI38
aI51
aI70
aI72
aa(lp408
I3
aI5
aI6
aI8
aI11
aI13
aI15
aI16
aI18
aI20
aI23
aI24
aI26
aI29
aI31
aI33
aI34
aI36
aI38
aI41
aI46
aI58
aa(lp409
I0
aI3
aI5
aI6
aI8
aI11
aI15
aI16
aI18
aI20
aI23
aI24
aI26
aI29
aI31
aI33
aI34
aI36
aI38
aI41
aI58
aI76
aa(lp410
I0
aI3
aI5
aI8
aI15
aI16
aI18
aI20
aI24
aI26
aI29
aI31
aI32
aI34
aI36
aI43
aI52
aI54
aI58
aI64
aI68
aI76
aa(lp411
I3
aI5
aI6
aI8
aI11
aI15
aI16
aI18
aI20
aI23
aI24
aI26
aI29
aI31
aI32
aI34
aI36
aI40
aI54
aI64
aI71
aI78
aa(lp412
I0
aI3
aI5
aI11
aI13
aI15
aI16
aI18
aI20
aI23
aI24
aI26
aI29
aI31
aI34
aI36
aI38
aI43
aI52
aI54
aI64
aI78
aa(lp413
I0
aI3
aI5
aI8
aI11
aI13
aI15
aI16
aI18
aI24
aI26
aI29
aI31
aI32
aI34
aI36
aI38
aI43
aI47
aI54
aI64
aI69
aI78
aa(lp414
I3
aI6
aI8
aI11
aI13
aI16
aI18
aI20
aI23
aI24
aI26
aI29
aI31
aI32
aI34
aI36
aI38
aI43
aI54
aI64
aI68
aI78
aa(lp415
I0
aI3
aI5
aI6
aI8
aI11
aI13
aI15
aI16
aI20
aI24
aI26
aI29
aI31
aI32
aI34
aI36
aI38
aI52
aI54
aI63
aI68
aa(lp416
I0
aI3
aI5
aI8
aI11
aI13
aI15
aI16
aI18
aI20
aI23
aI24
aI26
aI29
aI31
aI32
aI34
aI36
aI38
aI43
aI52
aI54
aI63
aa(lp417
I0
aI3
aI5
aI6
aI8
aI11
aI15
aI16
aI20
aI23
aI24
aI26
aI29
aI31
aI32
aI34
aI36
aI38
aI43
aI47
aI54
aa(lp418
I0
aI3
aI6
aI8
aI11
aI13
aI15
aI18
aI20
aI23
aI24
aI26
aI29
aI31
aI32
aI34
aI36
aI38
aI47
aI63
aI75
aI78
aa(lp419
I0
aI5
aI6
aI8
aI11
aI13
aI15
aI16
aI18
aI20
aI24
aI26
aI29
aI31
aI32
aI34
aI36
aI38
aI43
aI47
aI63
aI74
aa(lp420
I0
aI5
aI6
aI8
aI13
aI15
aI16
aI18
aI20
aI23
aI24
aI26
aI29
aI31
aI32
aI34
aI36
aI38
aI47
aI55
aI63
aI74
aa(lp421
I3
aI5
aI6
aI8
aI11
aI15
aI16
aI18
aI20
aI24
aI26
aI29
aI31
aI32
aI34
aI36
aI38
aI47
aI54
aI63
aI78
aa(lp422
I0
aI3
aI5
aI6
aI8
aI11
aI13
aI15
aI16
aI18
aI20
aI23
aI24
aI26
aI29
aI31
aI32
aI34
aI36
aI47
aI54
aa(lp423
I0
aI3
aI5
aI6
aI8
aI11
aI13
aI15
aI16
aI18
aI20
aI23
aI24
aI26
aI29
aI31
aI32
aI34
aI36
aI38
aI47
aI78
aa(lp424
I0
aI3
aI5
aI6
aI8
aI11
aI13
aI15
aI18
aI20
aI23
aI26
aI29
aI31
aI32
aI36
aI38
aI42
aI58
aI68
aI71
aa(lp425
I0
aI3
aI5
aI6
aI8
aI11
aI13
aI15
aI16
aI18
aI20
aI23
aI24
aI26
aI29
aI31
aI32
aI34
aI36
aI38
aI47
aI68
aa(lp426
I0
aI3
aI5
aI6
aI8
aI11
aI13
aI15
aI16
aI18
aI20
aI23
aI24
aI29
aI31
aI32
aI34
aI36
aI38
aI52
aI58
aa(lp427
I0
aI3
aI5
aI6
aI8
aI11
aI13
aI15
aI16
aI18
aI20
aI23
aI24
aI26
aI29
aI31
aI32
aI34
aI36
aI38
aI58
aI64
aa(lp428
I0
aI3
aI5
aI6
aI8
aI11
aI13
aI15
aI16
aI18
aI20
aI23
aI24
aI26
aI29
aI31
aI32
aI34
aI36
aI38
aI43
aI70
aa(lp429
I0
aI3
aI5
aI6
aI8
aI11
aI13
aI15
aI16
aI18
aI20
aI23
aI24
aI26
aI29
aI31
aI32
aI34
aI36
aI38
aI43
aI58
aa(lp430
I0
aI3
aI5
aI6
aI8
aI11
aI13
aI15
aI16
aI18
aI20
aI23
aI26
aI29
aI31
aI32
aI34
aI36
aI38
aI58
aI71
aI77
aa(lp431
I0
aI3
aI5
aI6
aI8
aI11
aI13
aI15
aI16
aI18
aI20
aI23
aI24
aI26
aI29
aI31
aI32
aI34
aI36
aI38
aI58
aI77
aa(lp432
I3
aI5
aI6
aI8
aI11
aI13
aI15
aI16
aI18
aI20
aI23
aI24
aI26
aI29
aI31
aI32
aI34
aI36
aI38
aI42
aI58
aI63
aa(lp433
I0
aI3
aI5
aI6
aI8
aI11
aI13
aI16
aI18
aI20
aI23
aI24
aI26
aI29
aI31
aI32
aI34
aI36
aI38
aI52
aI63
aI76
aa(lp434
I0
aI3
aI5
aI6
aI8
aI11
aI13
aI15
aI16
aI18
aI23
aI24
aI26
aI29
aI31
aI32
aI34
aI36
aI38
aI63
aI64
aI76
aa(lp435
I0
aI3
aI5
aI6
aI8
aI11
aI13
aI15
aI16
aI18
aI20
aI23
aI24
aI26
aI29
aI31
aI32
aI34
aI36
aI38
aI63
aI76
aa(lp436
I0
aI3
aI5
aI6
aI8
aI11
aI13
aI15
aI16
aI18
aI20
aI23
aI24
aI26
aI29
aI31
aI32
aI36
aI38
aI40
aI63
aa(lp437
I0
aI3
aI5
aI6
aI8
aI11
aI13
aI16
aI18
aI20
aI26
aI29
aI31
aI34
aI36
aI38
aI43
aI44
aI66
aI71
aI72
aa(lp438
I0
aI3
aI5
aI8
aI11
aI13
aI15
aI16
aI18
aI20
aI23
aI24
aI26
aI29
aI31
aI32
aI34
aI36
aI38
aI40
aI44
aI53
aa(lp439
I0
aI3
aI5
aI6
aI8
aI11
aI13
aI15
aI16
aI18
aI20
aI23
aI24
aI26
aI29
aI31
aI32
aI34
aI36
aI38
aI52
aI65
aa(lp440
I0
aI3
aI5
aI6
aI8
aI11
aI13
aI15
aI16
aI18
aI20
aI23
aI24
aI26
aI29
aI31
aI32
aI34
aI36
aI38
aI52
aa(lp441
I0
aI3
aI5
aI6
aI8
aI11
aI13
aI15
aI16
aI18
aI20
aI23
aI24
aI26
aI29
aI31
aI32
aI34
aI36
aI38
aI64
aa(lp442
I0
aI3
aI5
aI6
aI8
aI11
aI13
aI15
aI16
aI18
aI20
aI23
aI24
aI26
aI29
aI31
aI32
aI34
aI36
aI38
aI43
aI76
aa(lp443
I3
aI5
aI8
aI11
aI13
aI15
aI16
aI18
aI20
aI23
aI24
aI26
aI29
aI31
aI34
aI36
aI38
aI42
aI47
aI71
aI74
aI79
aa(lp444
I0
aI3
aI5
aI6
aI8
aI11
aI13
aI15
aI16
aI18
aI20
aI23
aI24
aI26
aI31
aI32
aI36
aI38
aI47
aI74
aI79
aa(lp445
I0
aI3
aI5
aI6
aI8
aI11
aI13
aI15
aI16
aI18
aI20
aI23
aI24
aI26
aI29
aI31
aI32
aI34
aI36
aI38
aI78
aa(lp446
I0
aI3
aI5
aI6
aI8
aI11
aI13
aI15
aI16
aI18
aI20
aI23
aI24
aI26
aI29
aI31
aI32
aI34
aI36
aI38
aI46
aa(lp447
I0
aI3
aI5
aI6
aI8
aI11
aI13
aI15
aI16
aI18
aI20
aI23
aI24
aI26
aI29
aI32
aI34
aI36
aI38
aI47
aI73
aa(lp448
I3
aI5
aI6
aI8
aI11
aI13
aI15
aI16
aI18
aI20
aI23
aI24
aI29
aI32
aI34
aI36
aI38
aI42
aI47
aI51
aI70
aa(lp449
I3
aI5
aI6
aI8
aI11
aI13
aI15
aI23
aI24
aI29
aI31
aI32
aI34
aI36
aI38
aI42
aI47
aI51
aI58
aI60
aI76
aa(lp450
I3
aI5
aI6
aI8
aI11
aI13
aI15
aI16
aI20
aI23
aI24
aI26
aI29
aI31
aI32
aI34
aI36
aI38
aI42
aI47
aI51
aa(lp451
I0
aI3
aI5
aI6
aI8
aI11
aI13
aI15
aI16
aI18
aI23
aI24
aI26
aI29
aI31
aI32
aI36
aI47
aI51
aI60
aI79
aa(lp452
I0
aI3
aI5
aI9
aI11
aI13
aI15
aI18
aI20
aI23
aI24
aI26
aI29
aI31
aI34
aI38
aI52
aI64
aI68
aI71
aI78
aa(lp453
I9
aa(lp454
I0
aI3
aI5
aI6
aI15
aI17
aI18
aI24
aI26
aI29
aI31
aI33
aI34
aI36
aI43
aI46
aI52
aI64
aI68
aI70
aI77
aI78
aa(lp455
I0
aI3
aI5
aI6
aI8
aI11
aI13
aI15
aI17
aI18
aI23
aI24
aI29
aI31
aI34
aI36
aI38
aI43
aI46
aI52
aI64
aI78
aa(lp456
I0
aI3
aI6
aI8
aI11
aI13
aI15
aI17
aI18
aI20
aI23
aI24
aI26
aI29
aI31
aI34
aI36
aI38
aI43
aI64
aI71
aI78
aa(lp457
I0
aI3
aI5
aI6
aI8
aI11
aI13
aI15
aI17
aI18
aI20
aI24
aI26
aI29
aI34
aI36
aI43
aI46
aI64
aI68
aI78
aa(lp458
I3
aI5
aI6
aI8
aI11
aI13
aI17
aI20
aI23
aI24
aI26
aI29
aI31
aI33
aI34
aI36
aI46
aI62
aI64
aI77
aI78
aa(lp459
I3
aI5
aI6
aI8
aI11
aI13
aI15
aI17
aI18
aI20
aI23
aI24
aI26
aI29
aI31
aI33
aI34
aI36
aI59
aI64
aI78
aa(lp460
I3
aI5
aI6
aI8
aI11
aI15
aI17
aI18
aI20
aI24
aI26
aI29
aI31
aI34
aI36
aI38
aI63
aI64
aI69
aI77
aI78
aa(lp461
I0
aI3
aI5
aI6
aI8
aI11
aI13
aI18
aI20
aI23
aI29
aI33
aI34
aI36
aI38
aI46
aI52
aI58
aI63
aI77
aI78
aa(lp462
I0
aI3
aI5
aI6
aI8
aI11
aI13
aI17
aI20
aI24
aI26
aI29
aI34
aI36
aI46
aI52
aI63
aI69
aI72
aI77
aI78
aa(lp463
I0
aI3
aI5
aI6
aI8
aI11
aI15
aI17
aI20
aI24
aI26
aI29
aI31
aI33
aI34
aI36
aI43
aI46
aI59
aI63
aI69
aI78
aa(lp464
I0
aI3
aI5
aI6
aI8
aI11
aI13
aI15
aI17
aI18
aI20
aI23
aI24
aI26
aI29
aI31
aI34
aI36
aI38
aI63
aI77
aI78
aa(lp465
I0
aI3
aI6
aI8
aI11
aI13
aI15
aI18
aI20
aI23
aI26
aI29
aI31
aI33
aI34
aI36
aI38
aI58
aI62
aI72
aI77
aI78
aa(lp466
I0
aI3
aI5
aI8
aI11
aI13
aI17
aI18
aI24
aI26
aI29
aI31
aI33
aI34
aI36
aI38
aI43
aI46
aI59
aI77
aI78
aa(lp467
I0
aI3
aI5
aI6
aI8
aI13
aI15
aI17
aI18
aI20
aI23
aI24
aI29
aI31
aI33
aI34
aI36
aI38
aI46
aI59
aI78
aa(lp468
I3
aI5
aI6
aI8
aI13
aI15
aI17
aI18
aI20
aI23
aI24
aI26
aI29
aI31
aI33
aI34
aI36
aI38
aI46
aI64
aI77
aa(lp469
I3
aI5
aI6
aI8
aI11
aI13
aI15
aI17
aI18
aI20
aI23
aI24
aI26
aI29
aI31
aI33
aI34
aI36
aI38
aI63
aI77
aa(lp470
I0
aI3
aI5
aI6
aI8
aI11
aI13
aI17
aI18
aI20
aI23
aI24
aI29
aI31
aI33
aI34
aI36
aI38
aI42
aI46
aI77
aa(lp471
I0
aI5
aI8
aI11
aI13
aI15
aI17
aI18
aI20
aI23
aI24
aI26
aI29
aI31
aI33
aI34
aI36
aI38
aI43
aI46
aI77
aa(lp472
I0
aI3
aI5
aI6
aI8
aI11
aI13
aI15
aI17
aI18
aI20
aI23
aI26
aI29
aI31
aI33
aI34
aI36
aI38
aI43
aI58
aI77
aa(lp473
I0
aI3
aI5
aI6
aI8
aI11
aI13
aI15
aI17
aI18
aI20
aI23
aI26
aI29
aI31
aI33
aI34
aI36
aI38
aI43
aI70
aI77
aa(lp474
I0
aI3
aI5
aI6
aI8
aI11
aI15
aI17
aI18
aI20
aI23
aI24
aI26
aI29
aI31
aI33
aI34
aI36
aI38
aI43
aI77
aa(lp475
I3
aI5
aI6
aI8
aI11
aI13
aI15
aI17
aI18
aI20
aI23
aI24
aI26
aI29
aI31
aI33
aI34
aI36
aI38
aI65
aI77
aa(lp476
I0
aI3
aI5
aI6
aI8
aI11
aI13
aI15
aI17
aI18
aI20
aI23
aI24
aI26
aI29
aI31
aI33
aI34
aI36
aI38
aI77
aa(lp477
I0
aI3
aI5
aI6
aI8
aI11
aI13
aI15
aI17
aI20
aI23
aI24
aI26
aI29
aI31
aI33
aI34
aI36
aI38
aI59
aI64
aa(lp478
I0
aI3
aI5
aI6
aI8
aI11
aI13
aI15
aI17
aI18
aI20
aI23
aI24
aI26
aI29
aI31
aI33
aI34
aI36
aI38
aI64
aa(lp479
I0
aI3
aI5
aI6
aI8
aI11
aI13
aI15
aI17
aI18
aI20
aI23
aI24
aI26
aI29
aI31
aI33
aI34
aI36
aI38
aI71
aa(lp480
I0
aI3
aI5
aI6
aI8
aI11
aI13
aI15
aI17
aI18
aI20
aI23
aI24
aI26
aI29
aI31
aI33
aI34
aI36
aI38
aI47
aa(lp481
I17
aa(lp482
I2
aa.