(lp0
(lp1
I93
aI169
aI177
aa(lp2
I137
aI169
aI177
aa(lp3
I41
aI197
aa(lp4
I19
aI85
aa(lp5
I159
aI197
aa(lp6
I45
aI99
aa(lp7
I25
aI99
aa(lp8
I35
aI77
aI99
aa(lp9
I77
aI99
aI137
aa(lp10
I99
aI105
aI139
aa(lp11
I7
aI135
aa(lp12
I47
aI119
aa(lp13
I69
aI85
aI187
aa(lp14
I7
aI27
aI187
aa(lp15
I7
aI27
aa(lp16
I9
aI133
aI181
aa(lp17
I87
aI133
aI181
aa(lp18
I73
aI133
aI181
aa(lp19
I57
aI133
aI181
aa(lp20
I39
aI133
aI181
aa(lp21
I83
aI91
aI133
aa(lp22
I91
aI109
aI133
aa(lp23
I133
aI143
aa(lp24
I133
aI197
aa(lp25
I133
aI147
aa(lp26
I1
aI133
aa(lp27
I133
aI191
aa(lp28
I133
aI195
aa(lp29
I111
aI133
aa(lp30
I133
aI177
aa(lp31
I133
aa(lp32
I37
aI109
aI167
aa(lp33
I37
aI109
aI125
aa(lp34
I37
aI109
aI175
aa(lp35
I71
aI75
aI149
aa(lp36
I39
aI71
aI109
aa(lp37
I37
aI75
aI109
aa(lp38
I71
aI75
aI109
aa(lp39
I29
aI71
aI109
aa(lp40
I71
aI85
aa(lp41
I71
aa(lp42
I55
aI113
aI129
aa(lp43
I53
aI137
aa(lp44
I21
aI55
aI113
aa(lp45
I21
aI55
aa(lp46
I55
aI137
aa(lp47
I17
aI55
aa(lp48
I55
aI174
aa(lp49
I27
aI55
aa(lp50
I95
aI97
aI119
aa(lp51
I95
aI97
aI161
aa(lp52
I95
aI161
aa(lp53
I96
aI161
aa(lp54
I27
aI161
aa(lp55
I199
aa(lp56
I27
aa(lp57
I105
aa(lp58
I39
aI89
aa(lp59
I39
aI171
aa(lp60
I152
aI171
aa(lp61
I112
aI171
aI177
aa(lp62
I73
aa(lp63
I112
aI138
aI176
aa(lp64
I138
aI166
aI176
aa(lp65
I138
aI176
aa(lp66
I124
aI167
aI176
aa(lp67
I75
aI166
aI171
aa(lp68
I75
aI124
aI171
aa(lp69
I124
aI167
aI171
aa(lp70
I33
aI182
aa(lp71
I139
aI154
aI171
aa(lp72
I32
aI139
aI171
aa(lp73
I22
aI88
aI160
aa(lp74
I22
aI160
aI177
aa(lp75
I22
aI160
aI167
aa(lp76
I89
aI125
aI170
aa(lp77
I32
aI89
aI113
aa(lp78
I32
aI89
aa(lp79
I89
aI170
aa(lp80
I109
aa(lp81
I91
aI112
aI124
aa(lp82
I89
aI91
aI124
aa(lp83
I89
aI113
aa(lp84
I21
aI88
aI113
aa(lp85
I21
aa(lp86
I184
aa(lp87
I4
aI88
aa(lp88
I4
aa(lp89
I2
aa(lp90
I97
aI159
aa(lp91
I20
aI159
aa(lp92
I96
aa(lp93
I118
aI156
aa(lp94
I35
aI190
aa(lp95
I114
aI176
aa(lp96
I47
aa(lp97
I58
aI89
aI118
aa(lp98
I7
aI89
aa(lp99
I100
aa(lp100
I42
aa(lp101
I53
aI118
aa(lp102
I37
aI112
aa(lp103
I80
aI89
aa(lp104
I80
aI171
aa(lp105
I80
aI176
aa(lp106
I74
aI80
aa(lp107
I80
aI139
aa(lp108
I80
aI166
aa(lp109
I75
aI112
aa(lp110
I112
aI138
aa(lp111
I112
aI177
aa(lp112
I58
aI112
aI176
aa(lp113
I12
aa(lp114
I99
aI112
aI176
aa(lp115
I111
aI176
aa(lp116
I135
aI175
aa(lp117
I7
aI139
aa(lp118
I57
aI88
aa(lp119
I176
aI187
aa(lp120
I112
aI176
aI197
aa(lp121
I106
aI118
aa(lp122
I15
aI66
aa(lp123
I112
aI154
aa(lp124
I95
aI170
aa(lp125
I88
aI174
aa(lp126
I93
aI170
aa(lp127
I192
aa(lp128
I112
aI118
aI181
aa(lp129
I32
aI112
aa(lp130
I41
aI97
aa(lp131
I137
aI170
aa(lp132
I54
aI118
aI178
aa(lp133
I112
aI176
aI191
aa(lp134
I60
aa(lp135
I118
aI178
aa(lp136
I55
aI176
aa(lp137
I150
aI176
aa(lp138
I139
aI150
aa(lp139
I33
aI150
aa(lp140
I150
aI166
aa(lp141
I114
aI190
aa(lp142
I182
aa(lp143
I154
aI166
aa(lp144
I37
aI124
aI170
aa(lp145
I32
aI176
aa(lp146
I118
aI124
aI181
aa(lp147
I52
aI99
aI139
aa(lp148
I99
aI115
aI190
aa(lp149
I187
aI190
aI194
aa(lp150
I190
aI197
aa(lp151
I33
aI124
aI138
aa(lp152
I74
aI91
aI124
aa(lp153
I91
aI124
aI190
aa(lp154
I59
aI91
aI124
aa(lp155
I124
aI191
aa(lp156
I75
aI166
aa(lp157
I111
aI166
aa(lp158
I7
aI74
aa(lp159
I58
aI124
aa(lp160
I9
aa(lp161
I62
aI138
aa(lp162
I62
aI177
aa(lp163
I62
aI88
aI173
aa(lp164
I7
aI190
aa(lp165
I75
aI124
aa(lp166
I124
aI167
aa(lp167
I83
aa(lp168
I119
aI124
aI138
aa(lp169
I32
aI119
aI124
aa(lp170
I119
aI124
aI170
aa(lp171
I119
aI166
aI170
aa(lp172
I119
aI139
aI170
aa(lp173
I33
aI119
aI170
aa(lp174
I0
aI53
aI138
aa(lp175
I138
aI156
aa(lp176
I0
aI106
aI167
aa(lp177
I119
aI150
aI190
aa(lp178
I15
aI181
aa(lp179
I59
aI197
aa(lp180
I59
aI74
aI99
aa(lp181
I15
aI187
aI194
aa(lp182
I74
aI119
aI150
aa(lp183
I74
aI154
aa(lp184
I37
aI170
aI190
aa(lp185
I35
aI194
aa(lp186
I74
aI111
aa(lp187
I7
aI59
aa(lp188
I59
aI99
aI194
aa(lp189
I37
aI59
aI150
aa(lp190
I37
aI59
aI154
aa(lp191
I59
aI154
aa(lp192
I75
aI119
aI190
aa(lp193
I59
aI91
aa(lp194
I111
aI194
aa(lp195
I7
aI194
aa(lp196
I15
aI99
aI194
aa(lp197
I37
aI154
aI194
aa(lp198
I37
aI150
aI194
aa(lp199
I58
aI74
aI170
aa(lp200
I154
aI194
aa(lp201
I91
aI194
aa(lp202
I36
aI58
aI171
aa(lp203
I15
aI58
aI171
aa(lp204
I75
aI137
aa(lp205
I33
aI75
aa(lp206
I0
aI106
aI156
aa(lp207
I88
aI156
aa(lp208
I0
aI53
aI191
aa(lp209
I37
aI166
aI191
aa(lp210
I139
aI191
aa(lp211
I33
aI191
aa(lp212
I32
aI137
aa(lp213
I137
aI138
aa(lp214
I137
aI177
aa(lp215
I37
aI137
aa(lp216
I37
aI176
aa(lp217
I37
aI139
aa(lp218
I33
aI37
aa(lp219
I0
aI106
aI125
aa(lp220
I166
aI171
aI191
aa(lp221
I5
aI22
aI156
aa(lp222
I135
aI156
aI173
aa(lp223
I29
aI156
aa(lp224
I125
aI174
aI198
aa(lp225
I125
aI137
aa(lp226
I137
aa(lp227
I112
aI119
aa(lp228
I119
aI124
aa(lp229
I119
aI166
aa(lp230
I119
aI176
aa(lp231
I93
aI177
aa(lp232
I36
aI75
aI171
aa(lp233
I59
aI147
aI171
aa(lp234
I59
aI147
aa(lp235
I147
aI194
aa(lp236
I15
aI54
aI147
aa(lp237
I15
aI147
aI151
aa(lp238
I15
aI115
aI147
aa(lp239
I15
aI147
aI155
aa(lp240
I15
aI147
aa(lp241
I147
aa(lp242
I80
aI153
aa(lp243
I0
aI181
aa(lp244
I187
aa(lp245
I197
aa(lp246
I7
aI153
aI189
aa(lp247
I99
aI153
aI189
aa(lp248
I35
aI186
aI189
aa(lp249
I114
aI155
aa(lp250
I14
aI55
aI151
aa(lp251
I91
aI189
aa(lp252
I111
aI155
aa(lp253
I111
aI115
aa(lp254
I111
aa(lp255
I152
aa(lp256
I39
aI189
aa(lp257
I14
aI36
aa(lp258
I39
aI146
aa(lp259
I0
aI188
aa(lp260
I188
aa(lp261
I178
aa(lp262
I106
aa(lp263
I1
aI155
aa(lp264
I53
aI150
aa(lp265
I52
aI138
aI169
aa(lp266
I138
aI169
aI179
aa(lp267
I169
aI175
aI177
aa(lp268
I26
aI118
aI169
aa(lp269
I37
aI118
aI190
aa(lp270
I37
aI118
aI171
aa(lp271
I37
aI74
aI118
aa(lp272
I37
aI59
aI118
aa(lp273
I37
aI118
aI194
aa(lp274
I37
aI118
aI151
aa(lp275
I37
aI54
aI118
aa(lp276
I75
aI129
aa(lp277
I126
aa(lp278
I50
aI88
aI167
aa(lp279
I143
aa(lp280
I129
aI138
aa(lp281
I115
aI144
aa(lp282
I10
aI167
aa(lp283
I64
aI138
aa(lp284
I122
aI191
aa(lp285
I37
aI122
aI138
aa(lp286
I17
aI138
aa(lp287
I37
aI77
aI138
aa(lp288
I160
aI162
aa(lp289
I162
aI198
aa(lp290
I161
aa(lp291
I25
aI138
aa(lp292
I54
aI88
aI164
aa(lp293
I85
aa(lp294
I59
aI102
aI167
aa(lp295
I102
aI194
aa(lp296
I15
aI102
aI155
aa(lp297
I120
aI195
aa(lp298
I37
aI120
aa(lp299
I116
aI167
aa(lp300
I45
aI58
aa(lp301
I45
aa(lp302
I69
aI115
aa(lp303
I78
aI191
aa(lp304
I78
aI138
aa(lp305
I32
aI140
aI160
aa(lp306
I37
aI172
aa(lp307
I19
aI54
aa(lp308
I37
aI97
aI130
aa(lp309
I28
aI138
aa(lp310
I37
aI138
aI149
aa(lp311
I14
aI58
aI190
aa(lp312
I58
aI74
aa(lp313
I151
aI154
aa(lp314
I54
aI154
aa(lp315
I166
aI195
aa(lp316
I74
aI118
aI195
aa(lp317
I59
aI195
aa(lp318
I125
aI149
aI167
aa(lp319
I58
aI172
aa(lp320
I77
aI138
aI191
aa(lp321
I58
aI125
aI130
aa(lp322
I26
aI50
aI175
aa(lp323
I104
aI116
aa(lp324
I26
aI64
aI170
aa(lp325
I26
aI77
aI122
aa(lp326
I120
aa(lp327
I149
aa(lp328
I28
aI88
aI170
aa(lp329
I122
aI125
aI170
aa(lp330
I122
aa(lp331
I112
aI125
aI170
aa(lp332
I125
aI170
aI176
aa(lp333
I74
aI150
aa(lp334
I88
aI118
aI129
aa(lp335
I25
aI26
aa(lp336
I140
aa(lp337
I17
aI113
aI170
aa(lp338
I17
aa(lp339
I130
aa(lp340
I26
aI77
aI88
aa(lp341
I78
aa(lp342
I170
aI172
aa(lp343
I50
aI164
aa(lp344
I10
aI164
aa(lp345
I10
aI16
aa(lp346
I22
aI26
aI135
aa(lp347
I26
aI135
aa(lp348
I26
aI77
aa(lp349
I26
aI64
aa(lp350
I28
aa(lp351
I174
aa(lp352
I5
aI22
aI198
aa(lp353
I95
aa(lp354
I93
aa(lp355
I57
aI97
aa(lp356
I112
aI125
aa(lp357
I138
aI166
aI171
aa(lp358
I26
aI129
aI198
aa(lp359
I104
aI172
aa(lp360
I19
aI194
aa(lp361
I55
aI118
aI171
aa(lp362
I33
aI55
aa(lp363
I55
aI139
aa(lp364
I55
aI166
aa(lp365
I55
aI190
aa(lp366
I55
aI74
aa(lp367
I55
aI59
aa(lp368
I55
aI194
aa(lp369
I55
aI151
aa(lp370
I1
aI36
aa(lp371
I37
aI118
aI155
aa(lp372
I14
aI115
aI118
aa(lp373
I1
aI115
aI118
aa(lp374
I15
aI102
aa(lp375
I1
aI15
aa(lp376
I164
aI180
aa(lp377
I102
aa(lp378
I30
aI36
aI189
aa(lp379
I15
aI30
aI189
aa(lp380
I30
aI194
aa(lp381
I30
aI189
aa.