(lp0
(lp1
I19
aI41
aa(lp2
I47
aa(lp3
I41
aa(lp4
I133
aa(lp5
I45
aI99
aa(lp6
I25
aI99
aa(lp7
I77
aI99
aa(lp8
I27
aI35
aI99
aa(lp9
I35
aI85
aI109
aa(lp10
I99
aI135
aI137
aa(lp11
I99
aI105
aI139
aa(lp12
I7
aI21
aI71
aa(lp13
I7
aI21
aI91
aa(lp14
I7
aI109
aa(lp15
I7
aI129
aa(lp16
I7
aI9
aa(lp17
I7
aI21
aa(lp18
I69
aI95
aa(lp19
I1
aI83
aa(lp20
I1
aI21
aI75
aa(lp21
I39
aI53
aI93
aa(lp22
I85
aI87
aI125
aa(lp23
I37
aI87
aa(lp24
I87
aI113
aa(lp25
I1
aI87
aa(lp26
I32
aI85
aI93
aa(lp27
I32
aI87
aI93
aa(lp28
I39
aI73
aa(lp29
I39
aI87
aa(lp30
I87
aa(lp31
I57
aa(lp32
I17
aI111
aa(lp33
I21
aI55
aa(lp34
I137
aa(lp35
I21
aI32
aa(lp36
I21
aI26
aI119
aa(lp37
I21
aI97
aI119
aa(lp38
I21
aI119
aa(lp39
I21
aa(lp40
I17
aa(lp41
I95
aa(lp42
I27
aa(lp43
I96
aa(lp44
I105
aa(lp45
I15
aI66
aa(lp46
I102
aI112
aa(lp47
I59
aI102
aa(lp48
I89
aI113
aa(lp49
I50
aa(lp50
I109
aa(lp51
I58
aI89
aI118
aa(lp52
I58
aI89
aI112
aa(lp53
I112
aI119
aa(lp54
I119
aI124
aa(lp55
I39
aI74
aa(lp56
I33
aI124
aI138
aa(lp57
I75
aI139
aa(lp58
I33
aI75
aI118
aa(lp59
I33
aI36
aI75
aa(lp60
I33
aI75
aa(lp61
I33
aI37
aa(lp62
I33
aI35
aI36
aa(lp63
I35
aI59
aa(lp64
I32
aI122
aI125
aa(lp65
I32
aI119
aI139
aa(lp66
I73
aI125
aa(lp67
I73
aa(lp68
I74
aI91
aI124
aa(lp69
I53
aI138
aa(lp70
I32
aI93
aa(lp71
I36
aI58
aI74
aa(lp72
I15
aI129
aI138
aa(lp73
I4
aI58
aa(lp74
I60
aI125
aa(lp75
I54
aI91
aa(lp76
I91
aI115
aa(lp77
I58
aI78
aa(lp78
I37
aI55
aI74
aa(lp79
I15
aI58
aI74
aa(lp80
I58
aI74
aa(lp81
I0
aI14
aI106
aa(lp82
I106
aa(lp83
I1
aI54
aa(lp84
I126
aa(lp85
I37
aI120
aa(lp86
I45
aI58
aa(lp87
I62
aI138
aa(lp88
I14
aI42
aI114
aa(lp89
I42
aI55
aI75
aa(lp90
I42
aI58
aa(lp91
I14
aI36
aI54
aa(lp92
I102
aa(lp93
I2
aI14
aa(lp94
I64
aI138
aa(lp95
I19
aI54
aa(lp96
I19
aa(lp97
I111
aI115
aa(lp98
I111
aa(lp99
I0
aI22
aI114
aa(lp100
I22
aI114
aa(lp101
I22
aI88
aa(lp102
I80
aI115
aa(lp103
I80
aa(lp104
I14
aI36
aa(lp105
I37
aI48
aI86
aa(lp106
I39
aI115
aa(lp107
I39
aa(lp108
I114
aI129
aa(lp109
I129
aI138
aa(lp110
I30
aI115
aa(lp111
I0
aI30
aa(lp112
I100
aI114
aa(lp113
I99
aa(lp114
I9
aa(lp115
I35
aa(lp116
I10
aI114
aa(lp117
I58
aI125
aI130
aa(lp118
I30
aa(lp119
I1
aI15
aa(lp120
I2
aI114
aa(lp121
I2
aI37
aI55
aa(lp122
I2
aI55
aa(lp123
I71
aI75
aa(lp124
I83
aa(lp125
I10
aI75
aa(lp126
I36
aI114
aa(lp127
I15
aI69
aI110
aa(lp128
I69
aI90
aI110
aa(lp129
I0
aI91
aa(lp130
I91
aa(lp131
I12
aI37
aa(lp132
I37
aI56
aI116
aa(lp133
I116
aI138
aa(lp134
I58
aI120
aa(lp135
I7
aI15
aI115
aa(lp136
I7
aI15
aI110
aa(lp137
I15
aI54
aI114
aa(lp138
I85
aa(lp139
I59
aI114
aa(lp140
I54
aI114
aa(lp141
I7
aI90
aI110
aa(lp142
I14
aI118
aa(lp143
I114
aI118
aa(lp144
I37
aI55
aI124
aa(lp145
I37
aI54
aI118
aa(lp146
I100
aI138
aa(lp147
I45
aa(lp148
I37
aI55
aI59
aa(lp149
I37
aI78
aI88
aa(lp150
I2
aI32
aI119
aa(lp151
I28
aI138
aa(lp152
I42
aI138
aa(lp153
I71
aa(lp154
I2
aI58
aa(lp155
I58
aI124
aa(lp156
I12
aI125
aa(lp157
I78
aa(lp158
I116
aa(lp159
I5
aI22
aI32
aa(lp160
I22
aI32
aI118
aa(lp161
I22
aI104
aa(lp162
I16
aI100
aI104
aa(lp163
I26
aI64
aa(lp164
I4
aI16
aa(lp165
I2
aa(lp166
I32
aI112
aa(lp167
I122
aa(lp168
I25
aa(lp169
I88
aI93
aa(lp170
I93
aa(lp171
I26
aI62
aa(lp172
I28
aa(lp173
I16
aI42
aI136
aa(lp174
I75
aI124
aa(lp175
I113
aI121
aI130
aa(lp176
I130
aa(lp177
I88
aI129
aa(lp178
I26
aI118
aI129
aa(lp179
I12
aa(lp180
I55
aI89
aa(lp181
I55
aI112
aa(lp182
I33
aI55
aa(lp183
I55
aI139
aa(lp184
I55
aI124
aa(lp185
I55
aI74
aa(lp186
I55
aI59
aa(lp187
I53
aa.