(lp0
(lp1
I7
aI167
aI169
aa(lp2
I19
aI167
aI169
aa(lp3
I159
aI167
aI169
aa(lp4
I93
aI169
aI177
aa(lp5
I137
aI169
aI177
aa(lp6
I45
aI99
aI169
aa(lp7
I99
aI107
aI169
aa(lp8
I141
aI169
aI175
aa(lp9
I75
aI169
aI187
aa(lp10
I133
aI169
aI187
aa(lp11
I35
aI75
aI169
aa(lp12
I35
aI69
aI169
aa(lp13
I29
aI35
aI169
aa(lp14
I35
aI73
aI169
aa(lp15
I9
aI35
aI169
aa(lp16
I35
aI109
aI169
aa(lp17
I35
aI47
aI169
aa(lp18
I35
aI111
aI169
aa(lp19
I35
aI159
aI169
aa(lp20
I169
aI197
aa(lp21
I83
aI169
aI191
aa(lp22
I133
aI169
aI191
aa(lp23
I159
aa(lp24
I41
aI217
aa(lp25
I133
aI217
aa(lp26
I169
aI195
aI216
aa(lp27
I169
aa(lp28
I133
aa(lp29
I25
aI91
aa(lp30
I147
aI181
aI201
aa(lp31
I135
aI143
aa(lp32
I37
aI135
aa(lp33
I97
aI135
aa(lp34
I39
aI85
aI181
aa(lp35
I39
aI181
aI201
aa(lp36
I125
aI135
aa(lp37
I71
aI135
aI181
aa(lp38
I135
aI181
aa(lp39
I135
aI141
aa(lp40
I135
aI211
aa(lp41
I113
aI135
aa(lp42
I135
aa(lp43
I25
aa(lp44
I87
aa(lp45
I207
aa(lp46
I1
aI173
aI201
aa(lp47
I1
aI77
aI201
aa(lp48
I1
aI201
aa(lp49
I53
aI55
aI137
aa(lp50
I53
aI55
aI129
aa(lp51
I53
aI123
aI201
aa(lp52
I53
aI65
aI201
aa(lp53
I53
aI76
aI201
aa(lp54
I53
aI57
aa(lp55
I5
aI53
aI129
aa(lp56
I53
aI129
aa(lp57
I53
aI84
aI201
aa(lp58
I53
aI201
aa(lp59
I53
aI85
aa(lp60
I53
aI77
aa(lp61
I53
aI64
aI172
aa(lp62
I53
aI64
aa(lp63
I53
aI219
aa(lp64
I53
aI149
aa(lp65
I53
aI122
aa(lp66
I21
aI53
aa(lp67
I4
aa(lp68
I28
aa(lp69
I140
aa(lp70
I161
aI174
aa(lp71
I174
aa(lp72
I119
aI210
aa(lp73
I210
aa(lp74
I21
aa(lp75
I17
aa(lp76
I95
aa(lp77
I199
aa(lp78
I27
aa(lp79
I96
aa(lp80
I105
aa(lp81
I89
aI124
aI197
aa(lp82
I89
aI197
aa(lp83
I139
aI197
aa(lp84
I190
aI197
aa(lp85
I176
aI197
aa(lp86
I74
aI197
aa(lp87
I59
aI166
aI197
aa(lp88
I166
aI171
aI197
aa(lp89
I33
aI166
aI197
aa(lp90
I15
aI194
aI197
aa(lp91
I36
aI194
aI197
aa(lp92
I197
aI215
aa(lp93
I194
aI197
aa(lp94
I33
aI197
aa(lp95
I151
aI197
aa(lp96
I155
aI197
aa(lp97
I54
aI197
aa(lp98
I115
aI197
aa(lp99
I197
aa(lp100
I14
aI118
aa(lp101
I114
aI176
aa(lp102
I176
aI195
aa(lp103
I14
aI154
aI215
aa(lp104
I14
aI55
aI215
aa(lp105
I14
aI139
aI195
aa(lp106
I58
aI75
aI139
aa(lp107
I58
aI139
aI150
aa(lp108
I14
aI74
aI150
aa(lp109
I14
aI150
aI194
aa(lp110
I167
aI192
aa(lp111
I14
aI57
aa(lp112
I75
aI139
aI191
aa(lp113
I139
aI170
aI191
aa(lp114
I14
aI139
aI170
aa(lp115
I14
aI139
aa(lp116
I37
aI139
aa(lp117
I32
aI119
aI139
aa(lp118
I32
aI139
aI171
aa(lp119
I33
aI55
aI171
aa(lp120
I167
aI172
aa(lp121
I113
aI172
aa(lp122
I124
aI150
aI171
aa(lp123
I139
aI150
aa(lp124
I78
aI177
aa(lp125
I78
aI88
aa(lp126
I26
aI64
aI170
aa(lp127
I26
aI64
aa(lp128
I147
aI176
aa(lp129
I139
aI147
aa(lp130
I124
aI147
aI171
aa(lp131
I59
aI147
aI171
aa(lp132
I33
aI59
aI147
aa(lp133
I33
aI147
aI190
aa(lp134
I33
aI58
aI166
aa(lp135
I33
aI138
aI166
aa(lp136
I55
aI166
aa(lp137
I15
aI36
aI181
aa(lp138
I0
aI181
aa(lp139
I181
aI190
aa(lp140
I181
aI194
aa(lp141
I59
aI181
aa(lp142
I181
aI215
aa(lp143
I74
aI181
aa(lp144
I36
aI74
aI214
aa(lp145
I1
aI36
aI151
aa(lp146
I36
aI151
aI214
aa(lp147
I14
aI36
aI155
aa(lp148
I14
aI36
aI54
aa(lp149
I14
aI36
aa(lp150
I36
aI119
aI214
aa(lp151
I204
aI214
aa(lp152
I58
aI204
aa(lp153
I100
aI191
aa(lp154
I100
aI138
aa(lp155
I100
aI154
aI167
aa(lp156
I139
aI195
aa(lp157
I154
aI190
aa(lp158
I59
aI154
aa(lp159
I151
aI154
aa(lp160
I53
aI118
aa(lp161
I0
aI53
aI75
aa(lp162
I0
aI53
aI150
aa(lp163
I0
aI53
aI191
aa(lp164
I0
aI53
aI195
aa(lp165
I53
aI150
aI190
aa(lp166
I53
aI150
aa(lp167
I53
aI170
aa(lp168
I1
aI55
aI74
aa(lp169
I1
aI74
aa(lp170
I1
aI15
aI151
aa(lp171
I1
aI151
aa(lp172
I1
aI215
aa(lp173
I1
aI54
aa(lp174
I1
aI155
aa(lp175
I7
aI153
aI189
aa(lp176
I37
aI138
aI184
aa(lp177
I114
aI215
aa(lp178
I37
aI120
aa(lp179
I37
aI150
aI194
aa(lp180
I37
aI118
aI194
aa(lp181
I48
aI58
aa(lp182
I48
aI170
aa(lp183
I137
aI191
aa(lp184
I62
aI177
aa(lp185
I26
aI62
aI167
aa(lp186
I62
aI88
aI173
aa(lp187
I32
aI125
aI176
aa(lp188
I125
aI170
aI176
aa(lp189
I30
aI33
aI124
aa(lp190
I30
aI166
aa(lp191
I85
aa(lp192
I111
aI139
aa(lp193
I111
aI166
aa(lp194
I74
aI111
aa(lp195
I111
aI190
aa(lp196
I111
aI194
aa(lp197
I99
aI115
aI215
aa(lp198
I154
aI194
aa(lp199
I55
aI194
aa(lp200
I54
aI212
aa(lp201
I212
aa(lp202
I45
aI138
aI191
aa(lp203
I45
aI119
aI138
aa(lp204
I45
aI125
aI138
aa(lp205
I45
aI138
aI173
aa(lp206
I45
aa(lp207
I75
aI139
aa(lp208
I124
aI139
aI167
aa(lp209
I97
aI149
aa(lp210
I32
aI176
aa(lp211
I113
aI204
aa(lp212
I204
aa(lp213
I122
aa(lp214
I104
aI116
aa(lp215
I47
aa(lp216
I112
aI161
aI170
aa(lp217
I112
aI161
aa(lp218
I118
aI161
aa(lp219
I161
aI166
aa(lp220
I161
aa(lp221
I119
aI176
aa(lp222
I93
aI198
aa(lp223
I89
aI167
aa(lp224
I89
aI125
aa(lp225
I89
aI113
aa(lp226
I83
aa(lp227
I57
aI113
aa(lp228
I57
aa(lp229
I182
aa(lp230
I5
aI22
aI198
aa(lp231
I91
aI124
aI176
aa(lp232
I91
aI124
aI171
aa(lp233
I91
aI166
aa(lp234
I160
aI162
aa(lp235
I120
aa(lp236
I42
aI177
aa(lp237
I42
aI88
aa(lp238
I42
aa(lp239
I41
aI97
aa(lp240
I39
aI89
aa(lp241
I39
aI171
aa(lp242
I39
aI176
aa(lp243
I39
aI151
aa(lp244
I39
aI166
aa(lp245
I39
aI74
aa(lp246
I39
aI112
aa(lp247
I112
aI167
aa(lp248
I112
aI138
aa(lp249
I150
aI166
aa(lp250
I75
aI166
aa(lp251
I75
aI124
aa(lp252
I124
aI167
aa(lp253
I74
aI126
aa(lp254
I126
aI190
aa(lp255
I37
aI75
aI190
aa(lp256
I75
aI119
aI190
aa(lp257
I26
aI50
aI175
aa(lp258
I152
aI190
aa(lp259
I35
aI36
aI190
aa(lp260
I35
aI166
aI194
aa(lp261
I35
aI36
aI194
aa(lp262
I59
aI91
aa(lp263
I91
aI194
aa(lp264
I33
aI75
aI118
aa(lp265
I33
aI75
aI170
aa(lp266
I60
aa(lp267
I32
aI125
aI130
aa(lp268
I125
aI130
aI167
aa(lp269
I33
aI36
aI75
aa(lp270
I33
aI36
aI191
aa(lp271
I33
aI191
aa(lp272
I167
aI177
aI219
aa(lp273
I219
aa(lp274
I0
aI217
aa(lp275
I10
aI167
aa(lp276
I118
aI156
aI167
aa(lp277
I118
aI156
aa(lp278
I156
aI167
aa(lp279
I69
aI125
aI171
aa(lp280
I15
aI66
aa(lp281
I80
aI171
aa(lp282
I139
aI187
aI190
aa(lp283
I71
aI160
aa(lp284
I100
aI160
aI177
aa(lp285
I100
aI125
aI198
aa(lp286
I118
aI164
aa(lp287
I0
aI164
aa(lp288
I139
aI188
aa(lp289
I73
aI125
aa(lp290
I9
aa(lp291
I20
aI48
aa(lp292
I129
aI177
aa(lp293
I88
aI129
aa(lp294
I26
aI129
aa(lp295
I176
aI208
aa(lp296
I202
aa(lp297
I2
aa(lp298
I12
aa(lp299
I59
aI102
aI171
aa(lp300
I54
aI118
aI178
aa(lp301
I10
aa(lp302
I73
aa(lp303
I78
aI94
aI121
aa(lp304
I62
aa(lp305
I109
aa(lp306
I137
aa(lp307
I104
aI172
aa(lp308
I106
aI118
aa(lp309
I0
aI106
aI167
aa(lp310
I77
aI167
aI177
aa(lp311
I26
aI167
aI184
aa(lp312
I33
aI143
aI171
aa(lp313
I0
aI178
aa(lp314
I59
aI208
aa(lp315
I19
aI54
aa(lp316
I144
aI171
aa(lp317
I30
aI190
aa(lp318
I0
aI53
aI88
aa(lp319
I69
aI74
aa(lp320
I119
aI139
aI170
aa(lp321
I74
aI80
aa(lp322
I139
aI143
aa(lp323
I139
aI144
aa(lp324
I58
aI118
aI139
aa(lp325
I77
aI88
aI125
aa(lp326
I130
aa(lp327
I184
aa(lp328
I26
aI77
aa(lp329
I97
aI100
aI198
aa(lp330
I89
aI170
aa(lp331
I59
aI102
aa(lp332
I112
aI177
aa(lp333
I138
aI150
aI176
aa(lp334
I138
aI176
aa(lp335
I33
aI114
aI171
aa(lp336
I190
aI214
aa(lp337
I33
aI190
aI195
aa(lp338
I33
aI37
aa(lp339
I33
aI187
aI190
aa(lp340
I188
aI190
aa(lp341
I33
aI150
aa(lp342
I144
aI190
aa(lp343
I59
aI143
aa(lp344
I171
aI190
aI195
aa(lp345
I150
aI171
aI190
aa(lp346
I35
aI215
aa(lp347
I35
aI74
aa(lp348
I15
aI59
aI214
aa(lp349
I114
aI171
aI194
aa(lp350
I59
aI214
aa(lp351
I36
aI171
aI195
aa(lp352
I59
aI74
aI195
aa(lp353
I30
aI189
aa(lp354
I152
aI171
aa(lp355
I0
aI66
aa(lp356
I138
aI166
aI171
aa(lp357
I187
aI190
aI194
aa(lp358
I15
aI187
aI194
aa(lp359
I151
aI187
aI215
aa(lp360
I75
aI171
aI190
aa(lp361
I36
aI75
aI171
aa(lp362
I30
aI194
aa(lp363
I59
aI188
aa(lp364
I14
aI74
aI170
aa(lp365
I59
aI147
aa(lp366
I115
aI144
aa(lp367
I152
aI194
aa(lp368
I74
aI150
aa(lp369
I166
aI191
aa(lp370
I37
aI170
aI190
aa(lp371
I80
aI190
aa(lp372
I39
aI190
aa(lp373
I150
aI190
aa(lp374
I190
aI195
aa(lp375
I80
aI194
aa(lp376
I39
aI59
aa(lp377
I14
aI59
aI150
aa(lp378
I37
aI59
aI150
aa(lp379
I59
aI119
aI150
aa(lp380
I59
aI195
aa(lp381
I19
aI153
aa(lp382
I164
aI180
aa(lp383
I164
aa(lp384
I99
aI178
aI186
aa(lp385
I35
aI178
aI196
aa(lp386
I106
aa(lp387
I35
aI186
aI189
aa(lp388
I171
aI181
aa(lp389
I114
aI171
aa(lp390
I147
aI171
aa(lp391
I154
aI171
aa(lp392
I55
aI171
aa(lp393
I171
aI214
aa(lp394
I150
aI171
aa(lp395
I171
aI195
aa(lp396
I102
aI171
aa(lp397
I15
aI58
aI171
aa(lp398
I0
aI143
aI171
aa(lp399
I58
aI74
aa(lp400
I188
aI194
aa(lp401
I147
aI194
aa(lp402
I39
aI194
aa(lp403
I102
aI194
aa(lp404
I143
aI194
aa(lp405
I69
aI153
aI178
aa(lp406
I39
aI103
aI178
aa(lp407
I178
aa(lp408
I80
aI153
aa(lp409
I147
aa(lp410
I153
aI181
aa(lp411
I111
aI189
aa(lp412
I114
aI155
aa(lp413
I39
aI155
aa(lp414
I39
aI115
aa(lp415
I39
aI189
aa(lp416
I55
aI126
aa(lp417
I126
aa(lp418
I217
aa(lp419
I91
aI189
aa(lp420
I115
aI208
aa(lp421
I208
aa(lp422
I102
aa(lp423
I69
aI110
aI153
aa(lp424
I69
aI110
aI146
aa(lp425
I152
aa(lp426
I1
aI15
aa(lp427
I66
aI189
aa(lp428
I144
aI186
aa(lp429
I14
aI55
aI151
aa(lp430
I151
aI214
aa(lp431
I69
aI146
aa(lp432
I35
aI186
aa(lp433
I99
aa(lp434
I30
aa(lp435
I39
aa(lp436
I111
aa(lp437
I188
aa(lp438
I187
aa.