(lp0
(lp1
I19
aI41
aa(lp2
I159
aa(lp3
I47
aa(lp4
I41
aa(lp5
I133
aa(lp6
I45
aI99
aa(lp7
I25
aI99
aa(lp8
I77
aI99
aa(lp9
I35
aI135
aa(lp10
I91
aI135
aa(lp11
I69
aI91
aI149
aa(lp12
I91
aI99
aI149
aa(lp13
I99
aI149
aa(lp14
I9
aI37
aI71
aa(lp15
I9
aI71
aI125
aa(lp16
I9
aI125
aa(lp17
I7
aI129
aa(lp18
I17
aI83
aI147
aa(lp19
I17
aI21
aI147
aa(lp20
I17
aI93
aI143
aa(lp21
I1
aI9
aI93
aa(lp22
I1
aI9
aa(lp23
I21
aI75
aI129
aa(lp24
I39
aI129
aa(lp25
I9
aI53
aI121
aa(lp26
I73
aa(lp27
I87
aa(lp28
I9
aa(lp29
I7
aI17
aa(lp30
I7
aI53
aI137
aa(lp31
I7
aI27
aa(lp32
I7
aI109
aa(lp33
I7
aI21
aa(lp34
I7
aI149
aa(lp35
I7
aI89
aa(lp36
I7
aI95
aa(lp37
I7
aI105
aa(lp38
I7
aI120
aa(lp39
I7
aI85
aa(lp40
I7
aI74
aI115
aa(lp41
I7
aI139
aa(lp42
I7
aI74
aa(lp43
I7
aI59
aa(lp44
I7
aI112
aa(lp45
I7
aI124
aa(lp46
I7
aI57
aa(lp47
I7
aI151
aI155
aa(lp48
I7
aI33
aI155
aa(lp49
I7
aI33
aa(lp50
I7
aI36
aI153
aa(lp51
I7
aI146
aI153
aa(lp52
I7
aI15
aI153
aa(lp53
I7
aI36
aa(lp54
I7
aI15
aa(lp55
I7
aI90
aa(lp56
I7
aI98
aa(lp57
I7
aa(lp58
I53
aI99
aa(lp59
I53
aI91
aa(lp60
I14
aI53
aa(lp61
I53
aI147
aa(lp62
I53
aI111
aa(lp63
I53
aI114
aa(lp64
I53
aI75
aa(lp65
I53
aI152
aa(lp66
I53
aI150
aa(lp67
I53
aI154
aa(lp68
I53
aI138
aa(lp69
I53
aI58
aa(lp70
I0
aI53
aI55
aa(lp71
I53
aI55
aa(lp72
I53
aa(lp73
I1
aI139
aa(lp74
I37
aI139
aa(lp75
I32
aI119
aI139
aa(lp76
I71
aa(lp77
I32
aI89
aI125
aa(lp78
I32
aI89
aI113
aa(lp79
I32
aI42
aI136
aa(lp80
I16
aI42
aI136
aa(lp81
I42
aI136
aI141
aa(lp82
I17
aa(lp83
I80
aI89
aa(lp84
I74
aI80
aa(lp85
I80
aI139
aa(lp86
I75
aI112
aa(lp87
I75
aI139
aa(lp88
I33
aI75
aI124
aa(lp89
I33
aI124
aI138
aa(lp90
I33
aI150
aa(lp91
I74
aI150
aa(lp92
I91
aI155
aa(lp93
I54
aI91
aa(lp94
I91
aI115
aa(lp95
I91
aa(lp96
I36
aI114
aa(lp97
I114
aI118
aa(lp98
I12
aI125
aa(lp99
I12
aI58
aa(lp100
I58
aI124
aa(lp101
I124
aI154
aa(lp102
I55
aI124
aa(lp103
I55
aI59
aa(lp104
I118
aI125
aI156
aa(lp105
I118
aI138
aI156
aa(lp106
I12
aa(lp107
I50
aa(lp108
I32
aI140
aa(lp109
I88
aI140
aa(lp110
I140
aa(lp111
I89
aI113
aa(lp112
I113
aI121
aI130
aa(lp113
I130
aa(lp114
I52
aI99
aI139
aa(lp115
I99
aI112
aI115
aa(lp116
I112
aI125
aI138
aa(lp117
I37
aI74
aI118
aa(lp118
I106
aI118
aI155
aa(lp119
I106
aI118
aa(lp120
I139
aI154
aa(lp121
I36
aI126
aa(lp122
I59
aI126
aa(lp123
I37
aI59
aI118
aa(lp124
I14
aI32
aI124
aa(lp125
I14
aI74
aI118
aa(lp126
I14
aI59
aI118
aa(lp127
I14
aI36
aI151
aa(lp128
I14
aI36
aI155
aa(lp129
I14
aI118
aI155
aa(lp130
I37
aI54
aI118
aa(lp131
I58
aI64
aa(lp132
I93
aI150
aa(lp133
I32
aI93
aa(lp134
I39
aI155
aa(lp135
I39
aI54
aa(lp136
I54
aI119
aI154
aa(lp137
I10
aI37
aa(lp138
I37
aI151
aI154
aa(lp139
I151
aI154
aa(lp140
I15
aI99
aa(lp141
I2
aI37
aI55
aa(lp142
I100
aI138
aI150
aa(lp143
I100
aI138
aa(lp144
I37
aI55
aI151
aa(lp145
I55
aI151
aa(lp146
I58
aI105
aI138
aa(lp147
I58
aI78
aa(lp148
I75
aI78
aI125
aa(lp149
I105
aa(lp150
I10
aI75
aa(lp151
I19
aI54
aa(lp152
I115
aI144
aa(lp153
I59
aI144
aa(lp154
I144
aI155
aa(lp155
I114
aI151
aa(lp156
I15
aI114
aI155
aa(lp157
I1
aI15
aI54
aa(lp158
I1
aI54
aa(lp159
I126
aa(lp160
I0
aI66
aa(lp161
I66
aI155
aa(lp162
I66
aI103
aa(lp163
I66
aI146
aa(lp164
I102
aa(lp165
I111
aI115
aa(lp166
I111
aa(lp167
I0
aI22
aI114
aa(lp168
I4
aI114
aa(lp169
I77
aI114
aa(lp170
I114
aI129
aa(lp171
I129
aI138
aa(lp172
I21
aI37
aI58
aa(lp173
I21
aI58
aa(lp174
I22
aI88
aa(lp175
I77
aI138
aa(lp176
I37
aI120
aa(lp177
I37
aI48
aI86
aa(lp178
I48
aI148
aa(lp179
I58
aI120
aa(lp180
I120
aa(lp181
I59
aI119
aI150
aa(lp182
I122
aI138
aa(lp183
I137
aI150
aa(lp184
I32
aI137
aa(lp185
I109
aI138
aa(lp186
I83
aa(lp187
I25
aI26
aa(lp188
I32
aI89
aa(lp189
I32
aI112
aa(lp190
I32
aI116
aa(lp191
I26
aI32
aI77
aa(lp192
I100
aa(lp193
I32
aI122
aa(lp194
I54
aI139
aI147
aa(lp195
I54
aI59
aI147
aa(lp196
I45
aa(lp197
I57
aI113
aa(lp198
I119
aI124
aI138
aa(lp199
I28
aI138
aa(lp200
I96
aa(lp201
I21
aa(lp202
I124
aI143
aa(lp203
I56
aI135
aI138
aa(lp204
I60
aa(lp205
I2
aI32
aa(lp206
I59
aI143
aa(lp207
I28
aI88
aa(lp208
I88
aI135
aa(lp209
I0
aI106
aI125
aa(lp210
I32
aI109
aa(lp211
I156
aa(lp212
I36
aI58
aI74
aa(lp213
I15
aI58
aI74
aa(lp214
I15
aI39
aa(lp215
I152
aa(lp216
I147
aI155
aa(lp217
I115
aI147
aa(lp218
I15
aI147
aa(lp219
I85
aI138
aa(lp220
I32
aI85
aI113
aa(lp221
I32
aI118
aI129
aa(lp222
I30
aI59
aa(lp223
I0
aI15
aI30
aa(lp224
I10
aI138
aa(lp225
I10
aI16
aa(lp226
I78
aI88
aa(lp227
I30
aI36
aI115
aa(lp228
I30
aI115
aa(lp229
I30
aI146
aa(lp230
I30
aa(lp231
I147
aa(lp232
I99
aI115
aa(lp233
I99
aI153
aa(lp234
I1
aI36
aa(lp235
I39
aI146
aa(lp236
I114
aI155
aa(lp237
I1
aI155
aa(lp238
I144
aa(lp239
I4
aI75
aa(lp240
I4
aI138
aa(lp241
I14
aI115
aI118
aa(lp242
I33
aI58
aa(lp243
I33
aI75
aa(lp244
I14
aI33
aa(lp245
I64
aI138
aa(lp246
I109
aa(lp247
I26
aI64
aa(lp248
I93
aa(lp249
I2
aa(lp250
I26
aI119
aI122
aa(lp251
I137
aa(lp252
I112
aI119
aa(lp253
I119
aI124
aa(lp254
I26
aI77
aI88
aa(lp255
I85
aI125
aa(lp256
I4
aI88
aa(lp257
I106
aa(lp258
I112
aI125
aa(lp259
I122
aa(lp260
I26
aI135
aa(lp261
I28
aa(lp262
I57
aI97
aa(lp263
I22
aI26
aa(lp264
I26
aI77
aa(lp265
I85
aa(lp266
I78
aa(lp267
I4
aa(lp268
I35
aI36
aI89
aa(lp269
I35
aI36
aI139
aa(lp270
I33
aI35
aI36
aa(lp271
I88
aI129
aa(lp272
I26
aI118
aI129
aa(lp273
I15
aI35
aI115
aa(lp274
I35
aa(lp275
I80
aI115
aa(lp276
I80
aI153
aa(lp277
I69
aI146
aa.