(lp0
(lp1
I45
aI99
aI169
aa(lp2
I99
aI107
aI169
aa(lp3
I19
aI169
aa(lp4
I93
aI169
aI177
aa(lp5
I137
aI169
aI177
aa(lp6
I7
aI167
aI169
aa(lp7
I7
aI169
aI175
aa(lp8
I7
aI35
aI169
aa(lp9
I7
aI169
aa(lp10
I69
aI91
aI169
aa(lp11
I75
aI97
aI169
aa(lp12
I83
aI97
aI169
aa(lp13
I87
aI97
aI169
aa(lp14
I97
aI169
aa(lp15
I41
aI91
aI169
aa(lp16
I91
aI111
aI169
aa(lp17
I29
aI37
aI169
aa(lp18
I29
aI125
aI169
aa(lp19
I29
aI61
aI169
aa(lp20
I121
aI159
aI169
aa(lp21
I51
aI147
aI169
aa(lp22
I147
aI165
aI169
aa(lp23
I47
aI164
aa(lp24
I29
aI63
aI169
aa(lp25
I159
aa(lp26
I169
aa(lp27
I71
aI135
aI173
aa(lp28
I135
aI173
aa(lp29
I135
aI143
aa(lp30
I1
aI135
aa(lp31
I113
aI135
aa(lp32
I55
aI135
aa(lp33
I62
aI154
aa(lp34
I135
aa(lp35
I25
aa(lp36
I50
aa(lp37
I73
aa(lp38
I9
aa(lp39
I53
aI57
aa(lp40
I57
aI154
aa(lp41
I77
aI154
aa(lp42
I111
aI129
aa(lp43
I39
aI60
aI161
aa(lp44
I60
aa(lp45
I109
aa(lp46
I120
aa(lp47
I77
aI111
aa(lp48
I77
aa(lp49
I85
aa(lp50
I149
aa(lp51
I161
aI172
aa(lp52
I174
aa(lp53
I119
aI172
aa(lp54
I172
aa(lp55
I21
aa(lp56
I17
aa(lp57
I95
aa(lp58
I27
aa(lp59
I96
aa(lp60
I105
aa(lp61
I89
aI154
aa(lp62
I112
aI154
aI171
aa(lp63
I71
aa(lp64
I112
aI161
aa(lp65
I88
aI140
aa(lp66
I112
aI138
aI176
aa(lp67
I26
aI64
aa(lp68
I112
aI167
aI176
aa(lp69
I88
aI93
aa(lp70
I100
aa(lp71
I144
aI176
aa(lp72
I59
aI102
aI171
aa(lp73
I59
aI102
aa(lp74
I102
aI112
aa(lp75
I58
aI112
aI176
aa(lp76
I58
aI124
aI176
aa(lp77
I58
aI118
aI139
aa(lp78
I58
aI124
aI139
aa(lp79
I33
aI58
aI124
aa(lp80
I119
aI124
aI138
aa(lp81
I33
aI124
aI138
aa(lp82
I33
aI138
aI166
aa(lp83
I122
aI125
aI177
aa(lp84
I35
aI36
aI139
aa(lp85
I30
aI166
aa(lp86
I139
aI152
aa(lp87
I116
aI177
aa(lp88
I33
aI55
aa(lp89
I7
aI139
aa(lp90
I10
aI175
aa(lp91
I22
aI88
aI160
aa(lp92
I125
aI170
aI176
aa(lp93
I118
aI164
aa(lp94
I1
aI33
aI118
aa(lp95
I126
aI166
aa(lp96
I139
aI144
aa(lp97
I139
aI143
aa(lp98
I62
aI177
aa(lp99
I139
aI147
aa(lp100
I2
aI125
aI177
aa(lp101
I69
aI74
aa(lp102
I78
aI177
aa(lp103
I74
aI80
aa(lp104
I162
aI170
aa(lp105
I89
aI118
aI177
aa(lp106
I42
aI125
aI170
aa(lp107
I19
aI54
aa(lp108
I87
aa(lp109
I48
aI170
aa(lp110
I112
aI125
aI177
aa(lp111
I57
aI125
aa(lp112
I42
aI177
aa(lp113
I118
aI178
aa(lp114
I52
aI99
aI139
aa(lp115
I118
aI125
aI156
aa(lp116
I139
aI154
aI171
aa(lp117
I139
aI154
aa(lp118
I154
aI166
aa(lp119
I74
aI154
aa(lp120
I37
aI74
aI118
aa(lp121
I28
aI138
aa(lp122
I0
aI106
aI167
aa(lp123
I106
aa(lp124
I1
aI36
aI59
aa(lp125
I1
aI36
aI151
aa(lp126
I0
aI53
aI75
aa(lp127
I0
aI164
aa(lp128
I45
aa(lp129
I59
aI147
aa(lp130
I75
aI119
aI139
aa(lp131
I59
aI99
aa(lp132
I15
aI99
aI115
aa(lp133
I152
aI155
aa(lp134
I4
aI170
aa(lp135
I151
aI154
aa(lp136
I35
aI151
aa(lp137
I30
aI59
aa(lp138
I39
aI151
aa(lp139
I7
aI59
aa(lp140
I37
aI59
aI118
aa(lp141
I28
aI75
aa(lp142
I75
aI125
aI139
aa(lp143
I75
aI139
aa(lp144
I124
aI139
aI167
aa(lp145
I28
aI170
aI177
aa(lp146
I15
aI66
aa(lp147
I32
aI125
aI130
aa(lp148
I20
aI125
aI130
aa(lp149
I62
aa(lp150
I16
aI42
aI136
aa(lp151
I28
aI125
aa(lp152
I2
aI125
aa(lp153
I112
aI125
aa(lp154
I89
aI125
aa(lp155
I122
aI125
aa(lp156
I88
aI129
aa(lp157
I104
aI116
aa(lp158
I118
aI162
aa(lp159
I118
aI156
aa(lp160
I2
aa(lp161
I28
aa(lp162
I140
aa(lp163
I93
aa(lp164
I122
aa(lp165
I26
aI118
aI129
aa(lp166
I89
aI113
aa(lp167
I22
aI26
aa(lp168
I57
aI97
aa(lp169
I112
aI171
aI177
aa(lp170
I32
aI124
aI171
aa(lp171
I32
aI166
aI171
aa(lp172
I32
aI139
aI171
aa(lp173
I75
aI118
aI171
aa(lp174
I118
aI143
aI171
aa(lp175
I74
aI91
aa(lp176
I138
aI176
aa(lp177
I161
aa(lp178
I36
aI58
aI171
aa(lp179
I58
aI74
aI118
aa(lp180
I30
aI151
aa(lp181
I147
aI151
aa(lp182
I58
aI166
aa(lp183
I114
aI151
aa(lp184
I69
aI115
aa(lp185
I143
aa(lp186
I91
aI151
aa(lp187
I37
aI118
aI151
aa(lp188
I33
aI58
aa(lp189
I55
aI151
aa(lp190
I75
aI166
aa(lp191
I124
aI167
aa(lp192
I130
aa(lp193
I53
aI118
aa(lp194
I111
aI166
aa(lp195
I74
aI111
aa(lp196
I59
aI111
aa(lp197
I111
aI155
aa(lp198
I7
aI15
aI115
aa(lp199
I115
aI144
aa(lp200
I138
aI156
aa(lp201
I160
aI162
aa(lp202
I33
aI119
aI170
aa(lp203
I33
aI36
aI75
aa(lp204
I33
aI37
aa(lp205
I0
aI53
aI138
aa(lp206
I4
aa(lp207
I119
aI166
aa(lp208
I119
aI176
aa(lp209
I32
aI112
aa(lp210
I32
aI176
aa(lp211
I15
aI58
aI74
aa(lp212
I15
aI58
aI171
aa(lp213
I1
aI15
aI151
aa(lp214
I37
aI139
aI170
aa(lp215
I47
aI125
aa(lp216
I47
aI113
aa(lp217
I47
aa(lp218
I88
aI137
aa(lp219
I137
aa(lp220
I89
aI150
aa(lp221
I150
aI171
aI176
aa(lp222
I124
aI150
aI171
aa(lp223
I150
aI166
aI171
aa(lp224
I139
aI150
aI171
aa(lp225
I33
aI150
aI171
aa(lp226
I33
aI150
aa(lp227
I74
aI150
aa(lp228
I35
aI36
aI59
aa(lp229
I39
aI59
aa(lp230
I59
aI80
aa(lp231
I55
aI59
aa(lp232
I59
aI91
aa(lp233
I15
aI35
aa(lp234
I80
aa(lp235
I91
aa(lp236
I36
aI152
aa(lp237
I36
aI114
aa(lp238
I19
aa(lp239
I36
aI115
aI147
aa(lp240
I111
aI115
aa(lp241
I39
aI115
aa(lp242
I1
aI36
aa(lp243
I54
aI154
aa(lp244
I37
aI54
aI118
aa(lp245
I37
aI118
aI155
aa(lp246
I115
aI152
aa(lp247
I30
aI115
aa(lp248
I152
aa(lp249
I114
aI118
aa(lp250
I1
aI115
aI118
aa(lp251
I15
aI99
aa(lp252
I15
aI114
aI155
aa(lp253
I30
aI146
aa(lp254
I69
aI146
aa(lp255
I15
aI111
aa(lp256
I15
aI39
aa(lp257
I1
aI15
aa(lp258
I144
aa(lp259
I7
aI146
aI153
aa(lp260
I0
aI66
aa(lp261
I35
aI115
aa(lp262
I14
aI115
aI118
aa(lp263
I99
aI153
aa(lp264
I114
aI155
aa(lp265
I114
aI171
aa(lp266
I147
aa(lp267
I154
aI171
aa(lp268
I0
aI55
aI171
aa(lp269
I39
aa(lp270
I178
aa(lp271
I66
aI103
aa(lp272
I53
aI114
aa(lp273
I53
aI160
aa(lp274
I14
aI32
aI133
aa(lp275
I32
aI133
aa(lp276
I119
aI133
aI167
aa(lp277
I133
aI177
aa(lp278
I133
aa.