(lp0
(lp1
I19
aI41
aa(lp2
I47
aa(lp3
I25
aI35
aa(lp4
I35
aI41
aa(lp5
I7
aI30
aI45
aa(lp6
I7
aI30
aI77
aa(lp7
I30
aI41
aa(lp8
I69
aI71
aI73
aa(lp9
I7
aI71
aI73
aa(lp10
I9
aI30
aI71
aa(lp11
I9
aI30
aa(lp12
I30
aI57
aa(lp13
I7
aI27
aI30
aa(lp14
I7
aI21
aI30
aa(lp15
I7
aI30
aI59
aa(lp16
I17
aI30
aI39
aa(lp17
I17
aI30
aa(lp18
I30
aI53
aa(lp19
I30
aI59
aa(lp20
I30
aI33
aa(lp21
I30
aa(lp22
I12
aI19
aa(lp23
I10
aI37
aa(lp24
I10
aI75
aa(lp25
I10
aI16
aa(lp26
I10
aI58
aa(lp27
I10
aI26
aa(lp28
I12
aa(lp29
I42
aa(lp30
I17
aI55
aa(lp31
I1
aI17
aa(lp32
I17
aa(lp33
I25
aa(lp34
I27
aa(lp35
I26
aI57
aa(lp36
I15
aI66
aa(lp37
I78
aa(lp38
I26
aI62
aa(lp39
I48
aa(lp40
I2
aa(lp41
I71
aa(lp42
I1
aI33
aI36
aa(lp43
I7
aI74
aa(lp44
I45
aa(lp45
I28
aa(lp46
I33
aI35
aI36
aa(lp47
I35
aI59
aa(lp48
I33
aI37
aa(lp49
I4
aa(lp50
I33
aI55
aa(lp51
I33
aI36
aI75
aa(lp52
I22
aI26
aa(lp53
I69
aI74
aa(lp54
I53
aa(lp55
I64
aa(lp56
I14
aI33
aI36
aa(lp57
I50
aa(lp58
I73
aa(lp59
I60
aa(lp60
I33
aI36
aI58
aa(lp61
I39
aI74
aa(lp62
I41
aa(lp63
I26
aI77
aa(lp64
I9
aa(lp65
I21
aa(lp66
I59
aI66
aa(lp67
I1
aI59
aa(lp68
I14
aI55
aI59
aa(lp69
I14
aI36
aI74
aa(lp70
I58
aI74
aa(lp71
I7
aI59
aa(lp72
I39
aI59
aa(lp73
I1
aI54
aa(lp74
I7
aI31
aI54
aa(lp75
I54
aI69
aa(lp76
I39
aI54
aa(lp77
I31
aI69
aa(lp78
I7
aa(lp79
I39
aa(lp80
I1
aI15
aa(lp81
I14
aI36
aa(lp82
I55
aI59
aa(lp83
I19
aI54
aa(lp84
I19
aa.