(lp0
(lp1
I199
aI803
aI1091
aa(lp2
I803
aI1091
aI1111
aa(lp3
I803
aI859
aI1091
aa(lp4
I739
aI803
aI859
aa(lp5
I803
aI859
aI1125
aa(lp6
I589
aI803
aI1101
aa(lp7
I803
aI1101
aI1125
aa(lp8
I573
aI803
aI1125
aa(lp9
I429
aI803
aI1125
aa(lp10
I803
aI973
aI1125
aa(lp11
I33
aI803
aI973
aa(lp12
I803
aI973
aI1061
aa(lp13
I803
aI993
aI1090
aa(lp14
I803
aI951
aI993
aa(lp15
I845
aI993
aI1091
aa(lp16
I217
aI845
aI1091
aa(lp17
I265
aI845
aI1091
aa(lp18
I749
aI845
aI1091
aa(lp19
I749
aI845
aI1061
aa(lp20
I802
aI941
aI1090
aa(lp21
I749
aI803
aI1061
aa(lp22
I125
aI803
aI1090
aa(lp23
I803
aI929
aI1061
aa(lp24
I23
aI803
aI1090
aa(lp25
I23
aI803
aI951
aa(lp26
I23
aI629
aI803
aa(lp27
I629
aI802
aI941
aa(lp28
I149
aI629
aI717
aa(lp29
I509
aI717
aI1091
aa(lp30
I629
aI637
aI717
aa(lp31
I23
aI235
aI629
aa(lp32
I121
aI381
aI1091
aa(lp33
I63
aI637
aI1091
aa(lp34
I63
aI935
aI1091
aa(lp35
I785
aI802
aI1091
aa(lp36
I381
aI579
aI1091
aa(lp37
I369
aI579
aI1091
aa(lp38
I579
aI935
aI1091
aa(lp39
I67
aI802
aI1091
aa(lp40
I23
aI629
aa(lp41
I875
aI935
aI1091
aa(lp42
I817
aI935
aI1091
aa(lp43
I651
aI685
aI1091
aa(lp44
I185
aI685
aI1091
aa(lp45
I549
aI685
aI1091
aa(lp46
I685
aI919
aI1091
aa(lp47
I119
aI313
aI435
aa(lp48
I119
aI935
aI950
aa(lp49
I935
aI950
aI1035
aa(lp50
I761
aI935
aI1177
aa(lp51
I27
aI935
aI1177
aa(lp52
I691
aI761
aI935
aa(lp53
I935
aI950
aI1071
aa(lp54
I118
aI435
aI1011
aa(lp55
I761
aI935
aI1073
aa(lp56
I657
aI935
aI950
aa(lp57
I761
aI901
aI919
aa(lp58
I118
aI435
aI901
aa(lp59
I118
aI901
aI913
aa(lp60
I521
aI935
aI950
aa(lp61
I27
aI153
aI935
aa(lp62
I611
aI935
aI950
aa(lp63
I163
aI935
aI1090
aa(lp64
I434
aI677
aI935
aa(lp65
I103
aI802
aI841
aa(lp66
I27
aI118
aI841
aa(lp67
I489
aI919
aI1001
aa(lp68
I399
aI935
aI950
aa(lp69
I51
aI434
aI627
aa(lp70
I434
aI627
aI685
aa(lp71
I118
aI501
aI1090
aa(lp72
I77
aI434
aI935
aa(lp73
I27
aI681
aI687
aa(lp74
I729
aI935
aI950
aa(lp75
I118
aI950
aI1027
aa(lp76
I807
aI935
aI950
aa(lp77
I434
aI457
aI935
aa(lp78
I73
aI118
aI913
aa(lp79
I545
aI935
aI950
aa(lp80
I434
aI935
aI1173
aa(lp81
I434
aI571
aI935
aa(lp82
I147
aI681
aI913
aa(lp83
I147
aI291
aI950
aa(lp84
I147
aI434
aI935
aa(lp85
I161
aI919
aI1001
aa(lp86
I27
aI161
aI919
aa(lp87
I434
aI751
aI935
aa(lp88
I434
aI935
aI1085
aa(lp89
I118
aI203
aI434
aa(lp90
I535
aI661
aI935
aa(lp91
I277
aI434
aI627
aa(lp92
I434
aI661
aI935
aa(lp93
I389
aI1090
aa(lp94
I434
aI741
aI935
aa(lp95
I27
aI165
aI935
aa(lp96
I727
aI935
aI950
aa(lp97
I187
aI434
aI935
aa(lp98
I233
aI434
aI935
aa(lp99
I767
aI802
aI912
aa(lp100
I803
aI935
aI950
aa(lp101
I118
aI514
aI912
aa(lp102
I118
aI434
aI514
aa(lp103
I119
aI681
aI913
aa(lp104
I119
aI919
aI950
aa(lp105
I119
aI647
aI950
aa(lp106
I119
aI950
aI1097
aa(lp107
I119
aI527
aI1090
aa(lp108
I119
aI527
aa(lp109
I19
aI119
aa(lp110
I119
aI1091
aI1149
aa(lp111
I119
aI653
aa(lp112
I119
aI1043
aI1091
aa(lp113
I119
aI979
aI1091
aa(lp114
I629
aI681
aa(lp115
I3
aI681
aa(lp116
I619
aI681
aa(lp117
I681
aI703
aa(lp118
I681
aI1079
aa(lp119
I443
aI681
aa(lp120
I681
aI775
aa(lp121
I623
aI681
aa(lp122
I27
aI681
aa(lp123
I681
aI801
aa(lp124
I681
aI1124
aa(lp125
I605
aI681
aa(lp126
I603
aI681
aa(lp127
I681
aI738
aa(lp128
I57
aI681
aa(lp129
I351
aI681
aa(lp130
I32
aI681
aa(lp131
I681
aI1017
aa(lp132
I681
aI1025
aa(lp133
I255
aI681
aa(lp134
I681
aI731
aa(lp135
I534
aI681
aa(lp136
I681
aI839
aa(lp137
I449
aI681
aa(lp138
I681
aI1176
aa(lp139
I681
aI690
aa(lp140
I621
aI681
aa(lp141
I295
aI681
aa(lp142
I681
aI1033
aa(lp143
I293
aI681
aa(lp144
I488
aI681
aa(lp145
I152
aI681
aa(lp146
I681
aI825
aa(lp147
I681
aI1175
aa(lp148
I655
aI681
aa(lp149
I21
aI681
aa(lp150
I195
aI681
aa(lp151
I279
aI681
aa(lp152
I160
aI681
aa(lp153
I615
aI681
aa(lp154
I681
aI759
aa(lp155
I433
aI681
aa(lp156
I164
aI681
aa(lp157
I511
aI681
aa(lp158
I681
aI797
aa(lp159
I205
aI681
aa(lp160
I145
aI681
aa(lp161
I681
aI861
aa(lp162
I681
aI773
aa(lp163
I681
aI989
aa(lp164
I311
aI681
aa(lp165
I533
aI681
aa(lp166
I681
aI991
aa(lp167
I681
aI686
aa(lp168
I681
aI1072
aa(lp169
I681
aI955
aa(lp170
I359
aI681
aa(lp171
I681
aa(lp172
I119
aI747
aa(lp173
I119
aI357
aI1091
aa(lp174
I119
aI357
aI739
aa(lp175
I119
aI357
aI628
aa(lp176
I119
aI141
aI950
aa(lp177
I119
aI887
aI1090
aa(lp178
I119
aI628
aI707
aa(lp179
I119
aI225
aI1090
aa(lp180
I119
aI628
aI1123
aa(lp181
I119
aI950
aI985
aa(lp182
I144
aI1034
aI1090
aa(lp183
I772
aI1034
aI1090
aa(lp184
I119
aI903
aI1090
aa(lp185
I119
aI950
aI975
aa(lp186
I358
aI802
aI1090
aa(lp187
I353
aI803
aI1090
aa(lp188
I177
aI803
aI1090
aa(lp189
I667
aI803
aI1090
aa(lp190
I493
aI803
aI1090
aa(lp191
I803
aI1091
aI1163
aa(lp192
I39
aI803
aI1091
aa(lp193
I569
aI803
aI1091
aa(lp194
I517
aI803
aI1090
aa(lp195
I627
aI803
aI1090
aa(lp196
I803
aI1090
aI1109
aa(lp197
I803
aI1090
aI1137
aa(lp198
I803
aI1039
aI1090
aa(lp199
I803
aI1083
aI1090
aa(lp200
I693
aI803
aI950
aa(lp201
I803
aI891
aI1090
aa(lp202
I803
aI1090
aI1191
aa(lp203
I61
aI803
aI950
aa(lp204
I310
aI1034
aI1090
aa(lp205
I204
aI1034
aI1090
aa(lp206
I628
aI802
aI927
aa(lp207
I954
aI1034
aI1090
aa(lp208
I119
aI791
aI950
aa(lp209
I119
aI569
aI628
aa(lp210
I119
aI181
aI1090
aa(lp211
I119
aI628
aI1107
aa(lp212
I119
aI349
aI1090
aa(lp213
I61
aI119
aI628
aa(lp214
I119
aI628
aI967
aa(lp215
I119
aI245
aI628
aa(lp216
I119
aI211
aI1090
aa(lp217
I119
aI129
aI950
aa(lp218
I119
aI881
aI1090
aa(lp219
I119
aI191
aI1090
aa(lp220
I119
aI563
aI1090
aa(lp221
I119
aI263
aI1090
aa(lp222
I69
aI119
aI1090
aa(lp223
I119
aI241
aI628
aa(lp224
I89
aI119
aI950
aa(lp225
I119
aI1090
aI1195
aa(lp226
I119
aI617
aI1090
aa(lp227
I119
aI513
aI1090
aa(lp228
I119
aI1090
aI1139
aa(lp229
I119
aI597
aI628
aa(lp230
I119
aI431
aI950
aa(lp231
I119
aI633
aI1090
aa(lp232
I119
aI1090
aI1183
aa(lp233
I119
aI595
aI1090
aa(lp234
I119
aI853
aI1090
aa(lp235
I119
aI587
aI1090
aa(lp236
I119
aI855
aI1090
aa(lp237
I119
aI995
aI1090
aa(lp238
I119
aI999
aI1090
aa(lp239
I119
aI639
aI1090
aa(lp240
I514
aI628
aI1034
aa(lp241
I146
aI514
aI628
aa(lp242
I461
aI514
aI628
aa(lp243
I514
aI628
aI1041
aa(lp244
I514
aI800
aI802
aa(lp245
I514
aI802
aI950
aa(lp246
I803
aI949
aI1090
aa(lp247
I169
aI803
aI1090
aa(lp248
I663
aI803
aI1090
aa(lp249
I803
aI899
aI1090
aa(lp250
I183
aI803
aI1090
aa(lp251
I803
aI1090
aI1167
aa(lp252
I109
aI803
aI1090
aa(lp253
I219
aI803
aI1090
aa(lp254
I803
aI917
aI1090
aa(lp255
I113
aI803
aI1090
aa(lp256
I803
aI1029
aI1090
aa(lp257
I243
aI803
aI1090
aa(lp258
I101
aI803
aI1090
aa(lp259
I117
aI803
aI1090
aa(lp260
I803
aI1075
aI1090
aa(lp261
I371
aI803
aI1090
aa(lp262
I803
aI885
aI1090
aa(lp263
I803
aI1090
aI1169
aa(lp264
I803
aI1090
aI1113
aa(lp265
I261
aI803
aI1090
aa(lp266
I803
aI1090
aI1197
aa(lp267
I81
aI803
aI1090
aa(lp268
I207
aI803
aI1090
aa(lp269
I803
aI961
aI1090
aa(lp270
I49
aI803
aI1090
aa(lp271
I541
aI803
aI1090
aa(lp272
I803
aI971
aI1090
aa(lp273
I709
aI803
aI1090
aa(lp274
I803
aI925
aI1090
aa(lp275
I803
aI811
aI1090
aa(lp276
I55
aI803
aI1090
aa(lp277
I91
aI803
aI1090
aa(lp278
I803
aI950
aa(lp279
I119
aI628
aI647
aa(lp280
I544
aI951
aI1177
aa(lp281
I939
aI951
aI1177
aa(lp282
I951
aI1093
aI1177
aa(lp283
I726
aI951
aI1177
aa(lp284
I951
aI1172
aI1177
aa(lp285
I656
aI951
aI1177
aa(lp286
I831
aI951
aI1177
aa(lp287
I951
aI1007
aI1177
aa(lp288
I951
aI1084
aI1177
aa(lp289
I43
aI951
aI1177
aa(lp290
I107
aI951
aI1177
aa(lp291
I951
aI1177
aa(lp292
I257
aI802
aI950
aa(lp293
I802
aI1090
aI1177
aa(lp294
I657
aI1091
aa(lp295
I801
aI1177
aa(lp296
I477
aI1177
aa(lp297
I1177
aa(lp298
I119
aI1091
aa(lp299
I1035
aI1091
aa(lp300
I1085
aI1091
aa(lp301
I758
aa(lp302
I118
aI275
aI1091
aa(lp303
I1091
aI1173
aa(lp304
I118
aI1003
aI1091
aa(lp305
I545
aI1091
aa(lp306
I45
aI118
aI1091
aa(lp307
I118
aI1073
aa(lp308
I118
aI455
aI1091
aa(lp309
I1091
aI1092
aa(lp310
I118
aI771
aI1091
aa(lp311
I691
aa(lp312
I459
aI1091
aa(lp313
I118
aI489
aa(lp314
I938
aI1091
aa(lp315
I118
aI153
aa(lp316
I118
aI1091
aa(lp317
I118
aI161
aI1090
aa(lp318
I118
aI292
aa(lp319
I118
aI1125
aa(lp320
I415
aI1090
aa(lp321
I577
aI1090
aa(lp322
I118
aI535
aa(lp323
I147
aI702
aa(lp324
I702
aI1006
aa(lp325
I727
aI950
aa(lp326
I460
aI702
aa(lp327
I628
aI687
aa(lp328
I687
aI950
aa(lp329
I460
aI604
aa(lp330
I604
aI793
aa(lp331
I604
aI1040
aa(lp332
I604
aI1028
aa(lp333
I604
aI830
aa(lp334
I2
aI830
aa(lp335
I830
aI1078
aa(lp336
I3
aI165
aI461
aa(lp337
I3
aI165
aI1029
aa(lp338
I3
aI146
aI165
aa(lp339
I3
aI146
aI990
aa(lp340
I147
aI800
aa(lp341
I147
aI434
aa(lp342
I703
aI801
aI990
aa(lp343
I702
aI801
aa(lp344
I629
aI1028
aI1179
aa(lp345
I2
aI801
aI1179
aa(lp346
I2
aI801
aa(lp347
I461
aI723
aI801
aa(lp348
I620
aI801
aa(lp349
I427
aI461
aI703
aa(lp350
I461
aI703
aI1189
aa(lp351
I350
aI801
aa(lp352
I877
aI1024
aa(lp353
I801
aI1024
aa(lp354
I461
aI1024
aa(lp355
I460
aI1024
aa(lp356
I460
aI824
aa(lp357
I278
aI460
aa(lp358
I460
aI800
aa(lp359
I460
aI774
aa(lp360
I448
aI460
aa(lp361
I460
aI838
aa(lp362
I460
aI614
aa(lp363
I460
aI602
aa(lp364
I33
aI460
aa(lp365
I434
aI877
aa(lp366
I460
aI618
aa(lp367
I460
aI912
aa(lp368
I460
aI619
aI1016
aa(lp369
I434
aI460
aa(lp370
I460
aI619
aI1032
aa(lp371
I442
aI460
aa(lp372
I460
aI622
aa(lp373
I460
aI1129
aa(lp374
I20
aI443
aI1029
aa(lp375
I327
aI460
aa(lp376
I432
aI460
aa(lp377
I294
aI460
aa(lp378
I26
aI460
aa(lp379
I56
aI460
aa(lp380
I460
aI1061
aa(lp381
I460
aI760
aa(lp382
I460
aI761
aI933
aa(lp383
I102
aI460
aa(lp384
I103
aI937
aI950
aa(lp385
I539
aa(lp386
I42
aI401
aa(lp387
I42
aI730
aa(lp388
I47
aa(lp389
I42
aa(lp390
I460
aI1174
aa(lp391
I460
aa(lp392
I969
aa(lp393
I90
aI254
aa(lp394
I90
aa(lp395
I209
aa(lp396
I441
aa(lp397
I368
aI431
aI761
aa(lp398
I216
aI431
aI950
aa(lp399
I431
aI761
aI1063
aa(lp400
I27
aI431
aI1063
aa(lp401
I431
aI731
aI1063
aa(lp402
I431
aI916
aI1063
aa(lp403
I26
aI431
aI916
aa(lp404
I431
aI760
aI916
aa(lp405
I431
aI761
aI928
aa(lp406
I54
aI431
aI760
aa(lp407
I27
aI431
aI1131
aa(lp408
I27
aI431
aI928
aa(lp409
I26
aI431
aI1074
aa(lp410
I431
aI760
aI1074
aa(lp411
I431
aI485
aI761
aa(lp412
I431
aI761
aI1110
aa(lp413
I106
aI431
aI760
aa(lp414
I27
aI431
aI1110
aa(lp415
I26
aI184
aI431
aa(lp416
I26
aI168
aI431
aa(lp417
I26
aI431
aI1171
aa(lp418
I27
aI431
aI748
aa(lp419
I27
aI397
aI431
aa(lp420
I397
aI431
aI970
aa(lp421
I397
aI431
aI516
aa(lp422
I26
aI264
aI431
aa(lp423
I60
aI431
aI1060
aa(lp424
I352
aI431
aI950
aa(lp425
I431
aI950
aI1108
aa(lp426
I88
aI431
aI1060
aa(lp427
I26
aI1009
aI1111
aa(lp428
I26
aI80
aI1111
aa(lp429
I431
aI1060
aI1110
aa(lp430
I431
aI932
aI1061
aa(lp431
I431
aI950
aI992
aa(lp432
I431
aI984
aI1060
aa(lp433
I431
aI516
aI1061
aa(lp434
I26
aI431
aI516
aa(lp435
I26
aI431
aI594
aa(lp436
I27
aI431
aI508
aa(lp437
I431
aI616
aI950
aa(lp438
I431
aI650
aI760
aa(lp439
I380
aI431
aI950
aa(lp440
I25
aI431
aI594
aa(lp441
I431
aI760
aI854
aa(lp442
I730
aI761
aI1111
aa(lp443
I431
aI761
aI918
aa(lp444
I431
aI761
aI796
aa(lp445
I27
aI431
aI796
aa(lp446
I26
aI431
aI998
aa(lp447
I431
aI731
aI796
aa(lp448
I431
aI692
aI731
aa(lp449
I24
aI26
aI692
aa(lp450
I27
aI431
aI692
aa(lp451
I27
aI431
aI568
aa(lp452
I431
aI568
aI638
aa(lp453
I26
aI321
aI431
aa(lp454
I431
aI890
aI950
aa(lp455
I27
aI431
aI860
aa(lp456
I431
aI626
aI860
aa(lp457
I26
aI111
aI431
aa(lp458
I108
aI431
aI860
aa(lp459
I431
aI860
aI1038
aa(lp460
I431
aI860
aI1112
aa(lp461
I24
aI26
aI1106
aa(lp462
I26
aI345
aI431
aa(lp463
I26
aI431
aI1112
aa(lp464
I24
aI26
aI819
aa(lp465
I26
aI370
aI431
aa(lp466
I26
aI431
aI586
aa(lp467
I26
aI431
aI898
aa(lp468
I26
aI100
aI431
aa(lp469
I100
aI431
aI730
aa(lp470
I431
aI730
aI1190
aa(lp471
I116
aI431
aI730
aa(lp472
I116
aI431
aI760
aa(lp473
I431
aI761
aI1147
aa(lp474
I240
aI431
aI761
aa(lp475
I240
aI431
aI1136
aa(lp476
I27
aI431
aI706
aa(lp477
I431
aI706
aI731
aa(lp478
I431
aI706
aI1015
aa(lp479
I24
aI431
aI706
aa(lp480
I26
aI218
aI431
aa(lp481
I27
aI431
aI1162
aa(lp482
I27
aI240
aI431
aa(lp483
I356
aI431
aI810
aa(lp484
I128
aI431
aa(lp485
I38
aI431
aI810
aa(lp486
I26
aI431
aI810
aa(lp487
I431
aI863
aI1067
aa(lp488
I24
aI431
aI863
aa(lp489
I240
aI431
aa(lp490
I26
aI431
aI492
aa(lp491
I26
aI431
aI512
aa(lp492
I26
aI431
aI960
aa(lp493
I27
aI431
aa(lp494
I26
aI431
aI880
aa(lp495
I26
aI206
aI431
aa(lp496
I431
aI959
aa(lp497
I431
aI1095
aa(lp498
I148
aI431
aa(lp499
I431
aa(lp500
I149
aI575
aa(lp501
I149
aI329
aa(lp502
I149
aI417
aa(lp503
I149
aI227
aa(lp504
I149
aI1168
aa(lp505
I149
aI182
aa(lp506
I149
aI189
aa(lp507
I198
aI263
aa(lp508
I199
aa(lp509
I552
aI950
aI1120
aa(lp510
I118
aI950
aI1120
aa(lp511
I24
aI553
aI760
aa(lp512
I374
aI552
aI950
aa(lp513
I374
aI950
aI1111
aa(lp514
I217
aI374
aI950
aa(lp515
I553
aI993
aI1060
aa(lp516
I357
aI1060
aI1110
aa(lp517
I25
aI183
aI1146
aa(lp518
I25
aI1146
aI1169
aa(lp519
I14
aI552
aI950
aa(lp520
I14
aI217
aI950
aa(lp521
I103
aI553
aI993
aa(lp522
I553
aI801
aI919
aa(lp523
I509
aI553
aI801
aa(lp524
I32
aI509
aI553
aa(lp525
I553
aI797
aI950
aa(lp526
I800
aI1110
aI1163
aa(lp527
I102
aI241
aa(lp528
I241
aI800
aa(lp529
I800
aI861
aa(lp530
I800
aI1163
aa(lp531
I800
aa(lp532
I39
aI508
aI1061
aa(lp533
I508
aI707
aa(lp534
I881
aI918
aa(lp535
I862
aI918
aa(lp536
I182
aI862
aI1061
aa(lp537
I189
aI707
aI860
aa(lp538
I189
aI860
aI862
aa(lp539
I118
aI910
aI950
aa(lp540
I553
aI1060
aI1111
aa(lp541
I103
aI553
aI1111
aa(lp542
I493
aI992
aa(lp543
I493
aI508
aa(lp544
I508
aI513
aa(lp545
I129
aI508
aa(lp546
I508
aI574
aa(lp547
I508
aI1094
aa(lp548
I508
aI1169
aa(lp549
I1095
aI1169
aa(lp550
I132
aI1095
aa(lp551
I132
aa(lp552
I552
aI950
aI1126
aa(lp553
I129
aI918
aI1168
aa(lp554
I214
aI217
aI950
aa(lp555
I214
aI749
aI950
aa(lp556
I381
aI553
aI1060
aa(lp557
I103
aI381
aI553
aa(lp558
I103
aI553
aI1137
aa(lp559
I103
aI216
aI1137
aa(lp560
I103
aI216
aI627
aa(lp561
I569
aI1061
aI1110
aa(lp562
I328
aI1060
aI1110
aa(lp563
I328
aI992
aI1060
aa(lp564
I328
aI380
aI1060
aa(lp565
I207
aI380
aI1060
aa(lp566
I416
aI1060
aI1136
aa(lp567
I416
aI508
aI1060
aa(lp568
I416
aI508
aa(lp569
I207
aI508
aa(lp570
I402
aI1095
aa(lp571
I25
aI950
aI1101
aa(lp572
I552
aI950
aI956
aa(lp573
I217
aI950
aI956
aa(lp574
I553
aI1060
aI1191
aa(lp575
I553
aI627
aI1060
aa(lp576
I226
aI1060
aI1190
aa(lp577
I226
aI1110
aa(lp578
I226
aI1107
aI1190
aa(lp579
I226
aI380
aa(lp580
I380
aI961
aI1107
aa(lp581
I380
aI1107
aI1191
aa(lp582
I380
aI1061
aI1107
aa(lp583
I219
aI380
aI1107
aa(lp584
I219
aI380
aI1060
aa(lp585
I380
aI958
aI1060
aa(lp586
I958
aI992
aI1060
aa(lp587
I894
aI1090
aa(lp588
I26
aI527
aa(lp589
I527
aI950
aa(lp590
I27
aI568
aI811
aa(lp591
I8
aI950
aI1111
aa(lp592
I8
aI552
aI950
aa(lp593
I381
aI1060
aI1110
aa(lp594
I381
aI1110
aa(lp595
I396
aI818
aI1110
aa(lp596
I468
aI950
aI1110
aa(lp597
I468
aI1061
aa(lp598
I25
aI468
aI950
aa(lp599
I468
aI730
aa(lp600
I198
aI468
aI760
aa(lp601
I198
aI468
aI950
aa(lp602
I240
aI587
aI761
aa(lp603
I240
aI627
aI761
aa(lp604
I24
aI568
aI627
aa(lp605
I24
aI380
aI627
aa(lp606
I24
aI627
aI1106
aa(lp607
I24
aI860
aI1106
aa(lp608
I24
aI933
aI1106
aa(lp609
I731
aI1014
aI1106
aa(lp610
I27
aI1014
aI1106
aa(lp611
I861
aI1014
aI1106
aa(lp612
I569
aI992
aI1014
aa(lp613
I569
aI992
aI1066
aa(lp614
I569
aI626
aI1066
aa(lp615
I569
aI819
aI993
aa(lp616
I381
aI569
aI819
aa(lp617
I569
aI819
aI899
aa(lp618
I478
aI552
aI950
aa(lp619
I569
aI1039
aI1110
aa(lp620
I117
aI1067
aI1110
aa(lp621
I26
aI693
aI761
aa(lp622
I217
aI284
aI950
aa(lp623
I265
aI553
aI1060
aa(lp624
I26
aI533
aI1110
aa(lp625
I26
aI533
aI992
aa(lp626
I545
aI552
aI950
aa(lp627
I811
aI1038
aI1060
aa(lp628
I116
aI811
aI1060
aa(lp629
I1067
aI1110
aI1150
aa(lp630
I116
aI1060
aI1150
aa(lp631
I217
aI272
aI950
aa(lp632
I553
aI985
aI1060
aa(lp633
I103
aI553
aI651
aa(lp634
I103
aI553
aI985
aa(lp635
I103
aI553
aI1039
aa(lp636
I26
aI396
aI553
aa(lp637
I102
aI264
aI693
aa(lp638
I264
aI693
aI1039
aa(lp639
I101
aI264
aI1039
aa(lp640
I650
aI1039
aI1061
aa(lp641
I396
aI984
aI1039
aa(lp642
I101
aI396
aI984
aa(lp643
I396
aI891
aI984
aa(lp644
I100
aI396
aI1061
aa(lp645
I98
aI552
aI950
aa(lp646
I98
aI102
aI217
aa(lp647
I98
aI102
aI118
aa(lp648
I216
aI891
aI929
aa(lp649
I216
aI929
aI1113
aa(lp650
I27
aI101
aI102
aa(lp651
I27
aI102
aI985
aa(lp652
I102
aI985
aI1015
aa(lp653
I102
aI890
aI985
aa(lp654
I100
aI102
aI985
aa(lp655
I102
aI265
aI836
aa(lp656
I102
aI217
aI836
aa(lp657
I102
aI264
aI891
aa(lp658
I102
aI118
aI922
aa(lp659
I502
aI552
aI950
aa(lp660
I147
aI552
aI760
aa(lp661
I147
aI265
aI761
aa(lp662
I102
aI761
aI891
aa(lp663
I552
aI950
aI1071
aa(lp664
I552
aI704
aI950
aa(lp665
I102
aI786
aa(lp666
I626
aI942
aa(lp667
I942
aI1110
aa(lp668
I32
aI482
aI1110
aa(lp669
I482
aI586
aI1090
aa(lp670
I102
aI1038
aI1111
aa(lp671
I82
aI1110
aa(lp672
I82
aI586
aI1090
aa(lp673
I102
aI586
aI1111
aa(lp674
I801
aI1179
aa(lp675
I32
aI820
aI1110
aa(lp676
I33
aI255
aI586
aa(lp677
I33
aI586
aI1175
aa(lp678
I33
aI1110
aa(lp679
I33
aI992
aa(lp680
I33
aI1111
aI1190
aa(lp681
I801
aI820
aI1190
aa(lp682
I102
aI810
aI993
aa(lp683
I102
aI898
aI993
aa(lp684
I116
aI692
aI993
aa(lp685
I102
aI116
aI993
aa(lp686
I102
aI993
aa(lp687
I102
aI1111
aa(lp688
I254
aI693
aa(lp689
I254
aI899
aa(lp690
I117
aI254
aa(lp691
I102
aI682
aa(lp692
I118
aI435
aI688
aa(lp693
I118
aI688
aI913
aa(lp694
I434
aI749
aI801
aa(lp695
I434
aI801
aI929
aa(lp696
I434
aI552
aI801
aa(lp697
I587
aI928
aa(lp698
I117
aI748
aa(lp699
I102
aI265
aI542
aa(lp700
I102
aI866
aa(lp701
I435
aI788
aa(lp702
I102
aI217
aI536
aa(lp703
I102
aI265
aI477
aa(lp704
I552
aI801
aI1078
aa(lp705
I217
aI962
aa(lp706
I102
aI141
aa(lp707
I64
aI435
aI552
aa(lp708
I102
aI979
aa(lp709
I265
aI870
aa(lp710
I102
aI217
aI248
aa(lp711
I16
aI1090
aa(lp712
I40
aI118
aI435
aa(lp713
I36
aI1110
aa(lp714
I102
aI429
aa(lp715
I102
aI919
aI1110
aa(lp716
I118
aI435
aI986
aa(lp717
I382
aI552
aI950
aa(lp718
I399
aI552
aI950
aa(lp719
I801
aI929
aI1129
aa(lp720
I749
aI801
aI1129
aa(lp721
I117
aI928
aa(lp722
I102
aI117
aI586
aa(lp723
I26
aI552
aI762
aa(lp724
I667
aI1090
aa(lp725
I102
aI420
aa(lp726
I32
aI564
aI1110
aa(lp727
I435
aI541
aa(lp728
I842
aI1090
aa(lp729
I102
aI864
aa(lp730
I996
aI1110
aa(lp731
I102
aI518
aa(lp732
I102
aI191
aa(lp733
I49
aI435
aa(lp734
I552
aI729
aI950
aa(lp735
I118
aI435
aI841
aa(lp736
I102
aI594
aI627
aa(lp737
I435
aI587
aI594
aa(lp738
I117
aI587
aI626
aa(lp739
I324
aI1110
aa(lp740
I780
aI801
aI1110
aa(lp741
I366
aI552
aI950
aa(lp742
I1110
aI1197
aa(lp743
I714
aI1110
aa(lp744
I102
aI217
aI1160
aa(lp745
I102
aI975
aa(lp746
I455
aI552
aI950
aa(lp747
I200
aI801
aI1110
aa(lp748
I898
aI958
aa(lp749
I118
aI196
aI435
aa(lp750
I349
aI1090
aa(lp751
I69
aI1110
aa(lp752
I63
aI102
aI265
aa(lp753
I102
aI633
aa(lp754
I102
aI220
aa(lp755
I801
aI1110
aI1118
aa(lp756
I102
aI647
aa(lp757
I102
aI627
aI1060
aa(lp758
I102
aI724
aa(lp759
I102
aI1083
aa(lp760
I118
aI306
aI435
aa(lp761
I1090
aI1098
aa(lp762
I340
aI552
aI950
aa(lp763
I102
aI396
aI898
aa(lp764
I102
aI396
aI692
aa(lp765
I102
aI233
aI265
aa(lp766
I627
aI1074
aa(lp767
I435
aI925
aa(lp768
I364
aI1110
aa(lp769
I480
aI801
aI1110
aa(lp770
I435
aI700
aa(lp771
I255
aI352
aI627
aa(lp772
I255
aI352
aI587
aa(lp773
I102
aI626
aI899
aa(lp774
I116
aI899
aa(lp775
I255
aI627
aI854
aa(lp776
I627
aI801
aI854
aa(lp777
I362
aI552
aI950
aa(lp778
I26
aI552
aI1006
aa(lp779
I0
aI102
aa(lp780
I102
aI1097
aa(lp781
I102
aI174
aa(lp782
I102
aI265
aI1152
aa(lp783
I749
aI801
aI912
aa(lp784
I801
aI912
aI929
aa(lp785
I748
aI1039
aa(lp786
I748
aI811
aa(lp787
I748
aI891
aa(lp788
I410
aI1110
aa(lp789
I552
aI614
aI801
aa(lp790
I552
aI950
aI1046
aa(lp791
I627
aI891
aI1108
aa(lp792
I102
aI217
aI286
aa(lp793
I26
aI216
aI749
aa(lp794
I891
aI928
aa(lp795
I995
aI1090
aa(lp796
I552
aI634
aI950
aa(lp797
I739
aI801
aa(lp798
I552
aI877
aI950
aa(lp799
I1110
aI1195
aa(lp800
I265
aI556
aa(lp801
I102
aI1149
aa(lp802
I552
aI717
aI950
aa(lp803
I435
aI546
aI552
aa(lp804
I32
aI1110
aI1144
aa(lp805
I118
aI228
aI435
aa(lp806
I102
aI118
aI785
aa(lp807
I1110
aI1139
aa(lp808
I102
aI1123
aa(lp809
I102
aI265
aI808
aa(lp810
I552
aI602
aI801
aa(lp811
I102
aI891
aI932
aa(lp812
I102
aI648
aa(lp813
I122
aI435
aa(lp814
I26
aI552
aI1092
aa(lp815
I801
aI814
aI1110
aa(lp816
I118
aI270
aI950
aa(lp817
I102
aI217
aI744
aa(lp818
I102
aI130
aa(lp819
I102
aI573
aa(lp820
I32
aI252
aI1110
aa(lp821
I102
aI1156
aa(lp822
I810
aI1038
aI1150
aa(lp823
I1038
aI1150
aa(lp824
I336
aI552
aI950
aa(lp825
I265
aI401
aI801
aa(lp826
I56
aI801
aI929
aa(lp827
I86
aI801
aI1110
aa(lp828
I102
aI217
aI560
aa(lp829
I485
aI985
aa(lp830
I698
aI1090
aa(lp831
I811
aI818
aI1038
aa(lp832
I254
aI818
aa(lp833
I12
aI102
aa(lp834
I345
aI811
aI1039
aa(lp835
I102
aI265
aI438
aa(lp836
I944
aI1090
aa(lp837
I102
aI134
aI217
aa(lp838
I118
aI435
aI452
aa(lp839
I102
aI802
aI927
aa(lp840
I424
aI801
aI1110
aa(lp841
I102
aI563
aa(lp842
I102
aI265
aI1140
aa(lp843
I6
aI435
aI552
aa(lp844
I801
aI856
aI1110
aa(lp845
I888
aI1090
aa(lp846
I1110
aI1167
aa(lp847
I102
aI217
aI980
aa(lp848
I552
aI736
aI950
aa(lp849
I412
aI552
aI950
aa(lp850
I622
aI749
aI801
aa(lp851
I102
aI236
aa(lp852
I552
aI950
aI1035
aa(lp853
I102
aI118
aI964
aa(lp854
I102
aI549
aa(lp855
I102
aI764
aa(lp856
I435
aI627
aI1112
aa(lp857
I552
aI579
aI950
aa(lp858
I102
aI265
aI459
aa(lp859
I328
aI1110
aa(lp860
I102
aI265
aI1192
aa(lp861
I102
aI390
aa(lp862
I435
aI718
aa(lp863
I552
aI604
aI801
aa(lp864
I10
aI552
aI950
aa(lp865
I930
aI1090
aa(lp866
I627
aI650
aI801
aa(lp867
I767
aI802
aI950
aa(lp868
I435
aI627
aI638
aa(lp869
I102
aI118
aI360
aa(lp870
I102
aI627
aI1171
aa(lp871
I278
aI552
aI801
aa(lp872
I1064
aa(lp873
I504
aI802
aI1090
aa(lp874
I102
aI1043
aa(lp875
I314
aI1090
aa(lp876
I322
aI435
aa(lp877
I521
aI552
aI950
aa(lp878
I96
aI102
aa(lp879
I102
aI802
aI1142
aa(lp880
I528
aa(lp881
I102
aI509
aI1110
aa(lp882
I920
aa(lp883
I435
aI982
aa(lp884
I102
aI887
aa(lp885
I444
aI802
aI1090
aa(lp886
I435
aI872
aa(lp887
I111
aI627
aa(lp888
I296
aI801
aI1110
aa(lp889
I102
aI627
aI916
aa(lp890
I552
aI848
aI950
aa(lp891
I302
aI435
aa(lp892
I450
aI801
aI1110
aa(lp893
I552
aI677
aI950
aa(lp894
I102
aI672
aa(lp895
I118
aI435
aI496
aa(lp896
I102
aI627
aI1009
aa(lp897
I102
aI265
aI655
aa(lp898
I435
aI552
aI1164
aa(lp899
I102
aI265
aI506
aa(lp900
I192
aI435
aa(lp901
I102
aI903
aa(lp902
I102
aI142
aI802
aa(lp903
I102
aI637
aa(lp904
I370
aI627
aI801
aa(lp905
I118
aI138
aI435
aa(lp906
I552
aI741
aI950
aa(lp907
I32
aI158
aI1110
aa(lp908
I102
aI217
aI522
aa(lp909
I102
aI976
aa(lp910
I552
aI817
aI950
aa(lp911
I184
aI435
aI627
aa(lp912
I552
aI771
aI950
aa(lp913
I466
aI1090
aa(lp914
I78
aI435
aa(lp915
I102
aI265
aI878
aa(lp916
I552
aI950
aI952
aa(lp917
I102
aI265
aI298
aa(lp918
I102
aI150
aa(lp919
I102
aI859
aa(lp920
I552
aI950
aI1080
aa(lp921
I102
aI108
aI627
aa(lp922
I102
aI265
aI937
aa(lp923
I80
aI627
aa(lp924
I102
aI791
aa(lp925
I606
aI801
aI1110
aa(lp926
I118
aI435
aI670
aa(lp927
I552
aI950
aI1052
aa(lp928
I464
aI801
aI1110
aa(lp929
I102
aI258
aa(lp930
I70
aI102
aI217
aa(lp931
I30
aI217
aa(lp932
I172
aI435
aa(lp933
I58
aI102
aa(lp934
I26
aI552
aI938
aa(lp935
I552
aI801
aI1032
aa(lp936
I552
aI807
aI950
aa(lp937
I102
aI265
aI275
aa(lp938
I118
aI435
aI582
aa(lp939
I114
aI1038
aa(lp940
I114
aI586
aa(lp941
I168
aI627
aa(lp942
I552
aI950
aI1076
aa(lp943
I60
aI627
aI1175
aa(lp944
I52
aI102
aa(lp945
I74
aI552
aI950
aa(lp946
I102
aI1036
aa(lp947
I26
aI552
aI1028
aa(lp948
I54
aI102
aI627
aa(lp949
I586
aI898
aI1191
aa(lp950
I616
aI627
aI1175
aa(lp951
I868
aI1110
aa(lp952
I904
aI1090
aa(lp953
I102
aI181
aa(lp954
I102
aI1198
aa(lp955
I102
aI1104
aa(lp956
I118
aI435
aI664
aa(lp957
I435
aI709
aa(lp958
I102
aI747
aa(lp959
I710
aI1090
aa(lp960
I102
aI265
aI354
aa(lp961
I376
aI1090
aa(lp962
I246
aI1110
aa(lp963
I102
aI265
aI1050
aa(lp964
I552
aI801
aI1016
aa(lp965
I435
aI552
aI1154
aa(lp966
I586
aI692
aI1137
aa(lp967
I88
aI627
aI1175
aa(lp968
I88
aI627
aI929
aa(lp969
I1039
aI1174
aa(lp970
I811
aI1174
aa(lp971
I712
aI801
aI1110
aa(lp972
I102
aI742
aa(lp973
I102
aI668
aa(lp974
I552
aI580
aI950
aa(lp975
I372
aI802
aI1090
aa(lp976
I118
aI530
aa(lp977
I102
aI597
aa(lp978
I1038
aI1116
aa(lp979
I586
aI1116
aa(lp980
I435
aI552
aI1186
aa(lp981
I102
aI797
aI1110
aa(lp982
I618
aI749
aI801
aa(lp983
I268
aI552
aI950
aa(lp984
I552
aI760
aI1085
aa(lp985
I102
aI217
aI776
aa(lp986
I102
aI217
aI658
aa(lp987
I462
aI1090
aa(lp988
I552
aI950
aI1180
aa(lp989
I102
aI973
aa(lp990
I102
aI291
aa(lp991
I118
aI1058
aI1090
aa(lp992
I552
aI832
aI950
aa(lp993
I801
aI906
aI1110
aa(lp994
I472
aI801
aI1110
aa(lp995
I330
aI802
aI1090
aa(lp996
I217
aI1056
aa(lp997
I102
aI1110
aI1163
aa(lp998
I552
aI801
aI838
aa(lp999
I102
aI1184
aa(lp1000
I386
aI435
aa(lp1001
I102
aI125
aa(lp1002
I156
aI1090
aa(lp1003
I102
aI498
aa(lp1004
I102
aI250
aI265
aa(lp1005
I316
aI801
aa(lp1006
I102
aI1012
aa(lp1007
I552
aI657
aI950
aa(lp1008
I342
aI801
aI1110
aa(lp1009
I104
aI435
aa(lp1010
I552
aI826
aI950
aa(lp1011
I102
aI754
aa(lp1012
I332
aI552
aI950
aa(lp1013
I552
aI751
aI760
aa(lp1014
I368
aI801
aI929
aa(lp1015
I1090
aI1132
aa(lp1016
I102
aI584
aI586
aa(lp1017
I254
aI810
aI1150
aa(lp1018
I254
aI1150
aa(lp1019
I435
aI624
aa(lp1020
I243
aI1090
aa(lp1021
I552
aI774
aI801
aa(lp1022
I118
aI435
aI486
aa(lp1023
I280
aa(lp1024
I524
aI1095
aa(lp1025
I357
aI1110
aa(lp1026
I102
aI217
aI685
aa(lp1027
I102
aI908
aa(lp1028
I432
aI749
aI801
aa(lp1029
I102
aI265
aI334
aa(lp1030
I102
aI154
aI265
aa(lp1031
I34
aI102
aI265
aa(lp1032
I663
aI1110
aa(lp1033
I102
aI511
aa(lp1034
I812
aI1110
aa(lp1035
I26
aI552
aI793
aa(lp1036
I694
aI801
aI1110
aa(lp1037
I102
aI313
aa(lp1038
I118
aI435
aI882
aa(lp1039
I118
aI378
aI435
aa(lp1040
I552
aI946
aI950
aa(lp1041
I102
aI265
aI590
aa(lp1042
I102
aI217
aI266
aa(lp1043
I552
aI846
aI950
aa(lp1044
I84
aI102
aa(lp1045
I102
aI404
aa(lp1046
I102
aI600
aa(lp1047
I552
aI611
aI950
aa(lp1048
I77
aI552
aI950
aa(lp1049
I45
aI552
aI950
aa(lp1050
I67
aI102
aI802
aa(lp1051
I102
aI853
aa(lp1052
I102
aI265
aI571
aa(lp1053
I408
aI586
aa(lp1054
I102
aI118
aI136
aa(lp1055
I102
aI265
aI896
aa(lp1056
I51
aI102
aI265
aa(lp1057
I4
aI552
aI950
aa(lp1058
I552
aI760
aI1003
aa(lp1059
I102
aI212
aI1110
aa(lp1060
I696
aI1110
aa(lp1061
I26
aI552
aI830
aa(lp1062
I102
aI217
aI346
aa(lp1063
I1004
aI1110
aa(lp1064
I102
aI265
aI566
aa(lp1065
I102
aI967
aa(lp1066
I102
aI217
aI1018
aa(lp1067
I102
aI106
aI627
aa(lp1068
I102
aI265
aI1001
aa(lp1069
I102
aI627
aI970
aa(lp1070
I102
aI225
aa(lp1071
I102
aI195
aa(lp1072
I102
aI627
aI998
aa(lp1073
I102
aI550
aa(lp1074
I102
aI265
aI661
aa(lp1075
I448
aI552
aI801
aa(lp1076
I778
aI1110
aa(lp1077
I118
aI288
aI435
aa(lp1078
I102
aI217
aI494
aa(lp1079
I352
aI627
aI1175
aa(lp1080
I102
aI436
aa(lp1081
I552
aI801
aI824
aa(lp1082
I552
aI950
aI1173
aa(lp1083
I442
aI749
aI801
aa(lp1084
I552
aI950
aI1020
aa(lp1085
I102
aI653
aa(lp1086
I188
aI1110
aa(lp1087
I166
aI552
aI950
aa(lp1088
I102
aI265
aI277
aa(lp1089
I178
aI552
aI801
aa(lp1090
I102
aI118
aI598
aa(lp1091
I720
aI1110
aa(lp1092
I102
aI230
aa(lp1093
I102
aI265
aI1102
aa(lp1094
I828
aI1110
aa(lp1095
I102
aI642
aa(lp1096
I627
aI801
aI1131
aa(lp1097
I102
aI300
aa(lp1098
I552
aI834
aI1090
aa(lp1099
I177
aI1110
aa(lp1100
I126
aI552
aI950
aa(lp1101
I435
aI552
aI732
aa(lp1102
I102
aI1068
aa(lp1103
I102
aI170
aI217
aa(lp1104
I102
aI392
aI802
aa(lp1105
I163
aI552
aI950
aa(lp1106
I32
aI261
aI1110
aa(lp1107
I102
aI217
aI554
aa(lp1108
I1030
aI1090
aa(lp1109
I608
aI801
aI1110
aa(lp1110
I327
aI801
aI929
aa(lp1111
I102
aI217
aI892
aa(lp1112
I102
aI187
aI265
aa(lp1113
I102
aI752
aa(lp1114
I102
aI265
aI850
aa(lp1115
I102
aI318
aa(lp1116
I32
aI183
aI1110
aa(lp1117
I265
aI804
aa(lp1118
I801
aI1088
aI1110
aa(lp1119
I222
aI552
aI950
aa(lp1120
I102
aI118
aI640
aa(lp1121
I102
aI935
aa(lp1122
I552
aI875
aI950
aa(lp1123
I113
aI1090
aa(lp1124
I102
aI265
aI1022
aa(lp1125
I474
aI801
aI1110
aa(lp1126
I102
aI422
aa(lp1127
I102
aI265
aI734
aa(lp1128
I516
aI627
aI801
aa(lp1129
I756
aI1090
aa(lp1130
I28
aI435
aI552
aa(lp1131
I235
aI552
aI950
aa(lp1132
I801
aI1110
aI1114
aa(lp1133
I552
aI782
aI950
aa(lp1134
I102
aI1183
aa.