(lp0
(lp1
I19
aI41
aa(lp2
I47
aa(lp3
I41
aa(lp4
I45
aI99
aa(lp5
I25
aI99
aa(lp6
I77
aI99
aa(lp7
I9
aI35
aa(lp8
I69
aI77
aa(lp9
I7
aI77
aa(lp10
I7
aI21
aI71
aa(lp11
I7
aI27
aa(lp12
I9
aI71
aI91
aa(lp13
I9
aI37
aI71
aa(lp14
I1
aI9
aI71
aa(lp15
I1
aI9
aa(lp16
I7
aI9
aa(lp17
I73
aa(lp18
I87
aa(lp19
I9
aa(lp20
I83
aa(lp21
I53
aI57
aa(lp22
I55
aI85
aa(lp23
I57
aa(lp24
I39
aI95
aa(lp25
I17
aI39
aa(lp26
I39
aI93
aa(lp27
I39
aI89
aa(lp28
I33
aI39
aa(lp29
I39
aI59
aa(lp30
I55
aI59
aa(lp31
I58
aI64
aa(lp32
I64
aI75
aa(lp33
I64
aa(lp34
I59
aI69
aa(lp35
I36
aI69
aa(lp36
I39
aI54
aa(lp37
I36
aI39
aa(lp38
I45
aI58
aa(lp39
I58
aI96
aa(lp40
I75
aI96
aa(lp41
I1
aI36
aI54
aa(lp42
I22
aI88
aa(lp43
I22
aI75
aa(lp44
I58
aI89
aa(lp45
I75
aI89
aa(lp46
I20
aI48
aa(lp47
I48
aI88
aa(lp48
I21
aI75
aa(lp49
I21
aa(lp50
I71
aa(lp51
I27
aI32
aa(lp52
I27
aa(lp53
I30
aI36
aI74
aa(lp54
I0
aI15
aI30
aa(lp55
I15
aI30
aI33
aa(lp56
I30
aI74
aa(lp57
I1
aI74
aa(lp58
I15
aI58
aI74
aa(lp59
I58
aI74
aa(lp60
I14
aI17
aa(lp61
I14
aI33
aa(lp62
I33
aI37
aa(lp63
I32
aI37
aI77
aa(lp64
I26
aI32
aI77
aa(lp65
I32
aI89
aa(lp66
I85
aa(lp67
I26
aI77
aa(lp68
I17
aa(lp69
I2
aa(lp70
I60
aa(lp71
I89
aI91
aa(lp72
I74
aI91
aa(lp73
I59
aI74
aI99
aa(lp74
I59
aI99
aa(lp75
I33
aI36
aI75
aa(lp76
I53
aa(lp77
I75
aI93
aa(lp78
I59
aI80
aa(lp79
I4
aI75
aa(lp80
I59
aI91
aa(lp81
I78
aa(lp82
I4
aI88
aa(lp83
I50
aa(lp84
I26
aI62
aa(lp85
I35
aI36
aI59
aa(lp86
I12
aa(lp87
I28
aI88
aa(lp88
I45
aa(lp89
I7
aI59
aa(lp90
I35
aI59
aa(lp91
I10
aI37
aa(lp92
I10
aa(lp93
I19
aI54
aa(lp94
I25
aa(lp95
I95
aa(lp96
I22
aI26
aa(lp97
I93
aa(lp98
I16
aI42
aa(lp99
I14
aI36
aI74
aa(lp100
I14
aI36
aI59
aa(lp101
I30
aI36
aa(lp102
I1
aI36
aa(lp103
I91
aa(lp104
I36
aI80
aa(lp105
I99
aa(lp106
I35
aI36
aa(lp107
I19
aa(lp108
I14
aI36
aa(lp109
I1
aI15
aa(lp110
I15
aI80
aa(lp111
I35
aa(lp112
I31
aI69
aa(lp113
I69
aI90
aa(lp114
I0
aI30
aa(lp115
I0
aI80
aa(lp116
I80
aa(lp117
I7
aa(lp118
I4
aa.