(lp0
(lp1
I19
aa(lp2
I1
aI3
aI5
aI7
aI9
aI11
aI13
aI15
aI17
aI18
aI21
aa(lp3
I1
aI2
aa(lp4
I0
aI2
aI5
aI7
aI9
aI11
aI13
aI15
aI17
aI18
aI23
aa(lp5
I2
aI5
aI9
aI11
aI15
aI18
aI21
aI29
aI31
aI35
aI39
aa(lp6
I2
aI5
aI8
aI11
aI13
aI15
aI18
aI27
aI29
aI31
aI35
aI39
aa(lp7
I0
aI2
aI5
aI6
aI8
aI11
aI13
aI14
aI18
aI27
aI29
aI39
aa(lp8
I0
aI2
aI5
aI7
aI8
aI11
aI13
aI14
aI17
aI18
aI27
aa(lp9
I2
aI14
aI16
aa(lp10
I0
aI2
aI5
aI8
aI10
aI13
aI14
aI18
aI27
aI29
aI39
aa(lp11
I2
aI6
aI10
aI13
aI15
aI17
aI18
aI25
aI29
aI33
aI39
aa(lp12
I0
aI2
aI8
aI10
aI13
aI15
aI18
aI29
aI31
aI35
aI39
aa(lp13
I5
aI10
aa(lp14
I10
aa(lp15
I4
aI6
aI8
aI13
aI15
aI17
aI18
aI21
aI29
aI33
aI39
aa(lp16
I0
aI2
aI4
aI6
aI8
aI11
aI13
aI15
aI17
aI18
aI39
aa(lp17
I0
aI2
aI4
aI7
aI8
aI11
aI13
aI15
aI17
aI18
aI32
aa(lp18
I0
aI2
aI4
aI7
aI8
aI11
aI13
aI15
aI17
aI18
aI39
aa(lp19
I2
aI4
aI16
aa(lp20
I0
aI2
aI6
aI8
aI11
aI13
aI15
aI17
aI18
aI27
aI29
aa(lp21
I4
aa(lp22
I2
aI5
aI6
aI8
aI11
aI13
aI15
aI17
aI18
aI23
aI29
aa(lp23
I0
aI2
aI5
aI6
aI8
aI11
aI13
aI17
aI18
aI22
aI29
aa(lp24
I0
aI2
aI5
aI6
aI8
aI11
aI13
aI15
aI16
aI18
aI29
aa(lp25
I2
aI8
aI16
aa(lp26
I0
aI2
aI5
aI7
aI8
aI11
aI13
aI15
aI17
aI18
aI31
aa(lp27
I0
aI2
aI5
aI7
aI8
aI11
aI13
aI15
aI17
aI18
aI21
aI30
aa(lp28
I2
aI8
aa(lp29
I0
aI7
aa(lp30
I1
aI3
aI5
aI7
aI8
aI11
aI13
aI15
aI17
aI18
aI30
aa(lp31
I1
aI3
aI5
aI7
aI8
aI11
aI13
aI15
aI17
aI18
aI29
aa(lp32
I1
aI3
aI5
aI7
aI8
aI11
aI13
aI15
aI16
aI18
aI29
aI31
aa(lp33
I1
aI3
aI5
aI7
aI8
aI11
aI13
aI15
aI16
aI18
aI22
aa(lp34
I1
aI3
aI5
aI7
aI8
aI11
aI13
aI15
aI16
aI18
aI29
aI30
aa(lp35
I1
aI3
aI5
aI7
aI8
aI11
aI13
aI18
aI22
aI29
aI30
aa(lp36
I7
aa(lp37
I1
aI3
aI5
aI6
aI8
aI11
aI13
aI14
aI18
aI20
aI29
aa(lp38
I1
aI3
aI5
aI6
aI8
aI11
aI13
aI14
aI16
aI18
aI29
aI34
aa(lp39
I1
aI3
aI5
aI6
aI8
aI11
aI13
aI14
aI16
aI18
aI29
aa(lp40
I1
aI3
aI5
aI6
aI8
aI11
aI13
aI14
aI17
aI18
aI29
aa(lp41
I0
aI3
aI5
aI6
aI8
aI11
aI13
aI14
aI16
aI18
aI29
aa(lp42
I1
aI3
aI5
aI6
aI8
aI11
aI13
aI15
aI16
aI18
aI21
aI29
aa(lp43
I1
aI3
aI5
aI6
aI8
aI11
aI13
aI15
aI16
aI18
aI29
aI35
aa(lp44
I1
aI3
aI5
aI6
aI8
aI11
aI13
aI15
aI16
aI18
aI29
aI38
aa(lp45
I1
aI3
aI5
aI6
aI8
aI11
aI13
aI15
aI16
aI18
aI29
aa(lp46
I1
aI3
aI5
aI6
aI8
aI11
aI13
aI15
aI17
aI18
aI30
aa(lp47
I1
aI3
aI5
aI6
aI8
aI11
aI13
aI15
aI17
aI18
aI39
aa(lp48
I1
aI3
aI5
aI6
aI8
aI11
aI13
aI15
aI17
aI18
aI29
aa(lp49
I0
aI3
aI5
aI6
aI8
aI11
aI13
aI15
aI18
aI20
aI23
aI29
aa(lp50
I0
aI3
aI5
aI6
aI8
aI11
aI13
aI15
aI16
aI18
aI23
aI29
aa(lp51
I0
aI5
aI6
aI8
aI11
aI13
aI15
aI16
aI18
aI21
aI29
aa(lp52
I0
aI3
aI5
aI6
aI8
aI11
aI13
aI15
aI18
aI20
aI29
aa(lp53
I3
aI5
aI6
aI8
aI11
aI13
aI14
aI17
aI18
aI20
aI29
aI31
aa(lp54
I0
aI3
aI5
aI6
aI8
aI11
aI14
aI17
aI18
aI22
aI29
aa(lp55
I0
aI3
aI5
aI6
aI8
aI11
aI14
aI17
aI18
aI20
aI23
aI29
aa(lp56
I0
aI5
aI6
aI8
aI11
aI13
aI14
aI17
aI18
aI21
aI23
aI29
aa(lp57
I0
aI5
aI6
aI8
aI11
aI13
aI15
aI17
aI18
aI21
aI29
aa(lp58
I1
aI3
aI5
aI6
aI8
aI11
aI13
aI15
aI16
aI18
aI22
aI38
aa(lp59
I1
aI3
aI5
aI6
aI8
aI11
aI13
aI15
aI16
aI18
aI20
aI30
aa(lp60
I1
aI3
aI5
aI6
aI8
aI11
aI13
aI15
aI16
aI18
aI20
aa(lp61
I1
aI15
aa(lp62
I1
aI3
aI5
aI6
aI8
aI11
aI13
aI16
aI18
aI34
aI36
aa(lp63
I1
aI3
aI5
aI6
aI8
aI11
aI13
aI14
aI16
aI18
aI25
aa(lp64
I1
aI3
aI5
aI6
aI8
aI11
aI13
aI14
aI16
aI18
aI35
aa(lp65
I1
aI3
aI5
aI6
aI8
aI11
aI13
aI16
aI18
aI30
aI34
aa(lp66
I1
aI3
aI5
aI6
aI8
aI11
aI13
aI14
aI16
aI18
aI27
aa(lp67
I1
aI3
aI5
aI6
aI8
aI11
aI13
aI14
aI16
aI18
aI22
aa(lp68
I1
aI3
aI5
aI6
aI8
aI11
aI13
aI14
aI16
aI18
aI34
aI39
aa(lp69
I1
aI3
aI5
aI6
aI8
aI11
aI13
aI14
aI16
aI18
aI20
aa(lp70
I1
aI3
aI5
aI6
aI8
aI11
aI13
aI14
aI17
aI18
aI30
aa(lp71
I1
aI3
aI5
aI6
aI8
aI11
aI13
aI14
aI17
aI18
aI20
aa(lp72
I14
aI17
aa(lp73
I0
aI3
aI5
aI6
aI8
aI11
aI13
aI15
aI16
aI18
aI36
aa(lp74
I0
aI3
aI6
aI8
aI11
aI13
aI16
aI18
aI28
aI36
aI38
aa(lp75
I0
aI3
aI5
aI6
aI8
aI11
aI13
aI14
aI16
aI18
aI25
aa(lp76
I0
aI3
aI5
aI6
aI8
aI11
aI13
aI14
aI16
aI18
aI35
aa(lp77
I0
aI3
aI5
aI6
aI8
aI11
aI13
aI14
aI16
aI18
aI30
aI34
aa(lp78
I0
aI3
aI5
aI6
aI8
aI11
aI13
aI14
aI16
aI18
aI27
aa(lp79
I0
aI3
aI5
aI6
aI8
aI11
aI13
aI14
aI16
aI18
aI22
aI31
aa(lp80
I0
aI3
aI5
aI6
aI8
aI11
aI13
aI14
aI16
aI18
aI39
aa(lp81
I0
aI3
aI5
aI6
aI8
aI11
aI13
aI14
aI16
aI18
aI32
aa(lp82
I0
aI3
aI5
aI6
aI8
aI11
aI13
aI14
aI16
aI18
aI20
aa(lp83
I0
aI3
aI5
aI6
aI8
aI11
aI13
aI15
aI16
aI18
aI20
aa(lp84
I0
aI3
aI5
aI6
aI11
aI13
aI15
aI16
aI18
aI21
aI32
aa(lp85
I0
aI3
aI5
aI6
aI8
aI11
aI13
aI15
aI16
aI18
aI35
aa(lp86
I0
aI3
aI5
aI6
aI8
aI11
aI13
aI15
aI16
aI18
aI21
aI30
aa(lp87
I0
aI3
aI5
aI6
aI8
aI11
aI13
aI15
aI16
aI18
aI27
aa(lp88
I0
aI3
aI5
aI6
aI8
aI11
aI15
aI16
aI18
aI21
aI22
aa(lp89
I0
aI3
aI5
aI6
aI8
aI11
aI13
aI15
aI16
aI18
aI39
aa(lp90
I0
aI3
aI5
aI8
aI11
aI13
aI15
aI18
aI24
aI30
aI32
aa(lp91
I0
aI3
aI5
aI6
aI8
aI11
aI13
aI15
aI17
aI18
aI30
aa(lp92
I17
aa(lp93
I9
aa(lp94
I12
aa.