(lp0
(lp1
I19
aI41
aa(lp2
I47
aa(lp3
I41
aa(lp4
I45
aI99
aa(lp5
I25
aI99
aa(lp6
I77
aI99
aa(lp7
I35
aI109
aa(lp8
I69
aI109
aa(lp9
I69
aI77
aa(lp10
I7
aI21
aI71
aa(lp11
I9
aI69
aa(lp12
I69
aI95
aa(lp13
I17
aI69
aa(lp14
I7
aI27
aa(lp15
I53
aI83
aI91
aa(lp16
I7
aI89
aa(lp17
I7
aI105
aa(lp18
I7
aI87
aa(lp19
I7
aI85
aa(lp20
I7
aI17
aa(lp21
I7
aI83
aa(lp22
I7
aI59
aa(lp23
I7
aI71
aI73
aa(lp24
I7
aI15
aI71
aa(lp25
I7
aI71
aa(lp26
I7
aI57
aI115
aa(lp27
I7
aI111
aI115
aa(lp28
I7
aI39
aI115
aa(lp29
I7
aI115
aa(lp30
I7
aI33
aI93
aa(lp31
I7
aI93
aa(lp32
I7
aa(lp33
I91
aa(lp34
I37
aI48
aa(lp35
I14
aI48
aa(lp36
I20
aI48
aa(lp37
I48
aa(lp38
I58
aI87
aa(lp39
I87
aa(lp40
I21
aa(lp41
I59
aI114
aa(lp42
I1
aI36
aa(lp43
I36
aI114
aa(lp44
I53
aI58
aa(lp45
I53
aa(lp46
I55
aI74
aa(lp47
I85
aI113
aa(lp48
I33
aI39
aa(lp49
I33
aI36
aI75
aa(lp50
I59
aI99
aa(lp51
I33
aI99
aa(lp52
I15
aI33
aI58
aa(lp53
I33
aI75
aa(lp54
I33
aI37
aa(lp55
I88
aI105
aI119
aa(lp56
I88
aI105
aI113
aa(lp57
I93
aa(lp58
I89
aI113
aa(lp59
I95
aa(lp60
I104
aI116
aa(lp61
I10
aa(lp62
I30
aI89
aa(lp63
I30
aI33
aI112
aa(lp64
I33
aI59
aI102
aa(lp65
I102
aI112
aa(lp66
I32
aI112
aa(lp67
I60
aa(lp68
I25
aa(lp69
I9
aa(lp70
I74
aI80
aa(lp71
I59
aI80
aa(lp72
I28
aI88
aa(lp73
I36
aI58
aI74
aa(lp74
I26
aI32
aI77
aa(lp75
I26
aI77
aI88
aa(lp76
I33
aI35
aI36
aa(lp77
I35
aI59
aa(lp78
I26
aI64
aa(lp79
I71
aI88
aa(lp80
I71
aa(lp81
I83
aa(lp82
I16
aI42
aa(lp83
I45
aa(lp84
I12
aa(lp85
I17
aa(lp86
I14
aI112
aa(lp87
I85
aa(lp88
I78
aa(lp89
I112
aI119
aa(lp90
I28
aa(lp91
I0
aI106
aa(lp92
I89
aI111
aa(lp93
I22
aI26
aa(lp94
I4
aa(lp95
I16
aI100
aI104
aa(lp96
I73
aa(lp97
I109
aa(lp98
I96
aa(lp99
I15
aI66
aa(lp100
I57
aI97
aa(lp101
I2
aa(lp102
I69
aI89
aa(lp103
I26
aI62
aa(lp104
I19
aI54
aa(lp105
I50
aa(lp106
I26
aI77
aa(lp107
I69
aI74
aa(lp108
I33
aI111
aa(lp109
I30
aI36
aI74
aa(lp110
I99
aI115
aa(lp111
I15
aI54
aI99
aa(lp112
I0
aI15
aI30
aa(lp113
I30
aI54
aa(lp114
I30
aI110
aa(lp115
I30
aa(lp116
I15
aI39
aa(lp117
I15
aI111
aa(lp118
I1
aI118
aa(lp119
I114
aI118
aa(lp120
I37
aI59
aI118
aa(lp121
I37
aI54
aI118
aa(lp122
I69
aI115
aa(lp123
I15
aI69
aI110
aa(lp124
I99
aa(lp125
I15
aI54
aI114
aa(lp126
I19
aa(lp127
I102
aa(lp128
I80
aI115
aa(lp129
I15
aI80
aa(lp130
I35
aI110
aa(lp131
I80
aa(lp132
I39
aa(lp133
I111
aa(lp134
I106
aa(lp135
I54
aI114
aa(lp136
I1
aI54
aa(lp137
I69
aI90
aI110
aa(lp138
I14
aI36
aa(lp139
I58
aI74
aa.